Xc:_glClearStencil
zhf:_Array_InternalArray__ICollection_Add_TisMark_t2724874473_m1613484179_gshared
rHc:__ZN10SizeModule8TransferI18StreamedBinaryReadILb1EEEEvRT_
c5c:__ZN5physx2Gu19gjkLocalPenetrationINS0_8CapsuleVENS0_17ShrunkConvexHullVEEEjRKT_RKT0_RKNS_6shdfnd3aos6FloatVERNSB_5Vec3VESG_SG_RSC_PhSI_Rhb
MEi:__ZL80Graphic_t2426225576_CustomAttributesCacheGenerator_Graphic_OnFillVBO_m1723985607P21CustomAttributesCache
kHh:_RuntimeTypeHandle_GetObjectData_m3567098501
z0b:__ZN12ShaderErrors21AddShaderCompileErrorERKNSt3__212basic_stringIcNS0_11char_traitsIcEENS0_9allocatorIcEEEEib
Skb:__ZN18StreamedBinaryReadILb1EE21TransferSTLStyleArrayIN4core12basic_stringIcNS2_20StringStorageDefaultIcEEEEEEvRT_17TransferMetaFlags
Gdl:__ZN6il2cpp2vm5Array13GetByteLengthEP11Il2CppArray
_rj:_Raycast3DCallback_BeginInvoke_m3028685017
$6h:_EqualityComparer_1__cctor_m968537130_gshared
Cvk:_TextGenerator_get_lineCount_m4287181941
nMk:__ZN14dense_hash_mapI10KeyWrapperINSt3__212basic_stringIcNS1_11char_traitsIcEENS1_9allocatorIcEEEEEP11Il2CppClassN6il2cpp5utils11StringUtils12StringHasherIS7_EENS1_8equal_toIS8_EENS5_INS1_4pairIKS8_SA_EEEEE15set_deleted_keyERSJ_
nog:_Comparison_1_Invoke_m353639462_gshared
aHj:_UInt64_System_IConvertible_ToDecimal_m4205696037
Drl:_mbrlen
hLc:__Z19UpdateProceduralTplILb0EEvRK22DualMinMax3DPolyCurvesS2_R23ParticleSystemParticlesRKN4math8float3x3Eb
GG:__ZN10StateRange8TransferI14SafeBinaryReadEEvRT_
MFa:__Z21SourceMipLevelForBlitiiii
Znb:__ZN31CanvasBatchIntermediateRenderer15AddAsRenderNodeER15RenderNodeQueueRK20DeprecatedSourceData
_Ph:_GenericTypeParameterBuilder_GetEvent_m4210567427
gqg:__ZN16VirtFuncInvoker0IP17Camera_t189460977E6InvokeEjPv
CDf:_Enumerator_get_Key_m2908810861
Nmj:__Z55RuntimeInvoker_ILTokenInfo_t149559338_Int32_t2071877448PK10MethodInfoPvPS2_
BRe:__ZN11UnityEngine7Connect14AppUpdateEventD0Ev
QXd:__ZNK5physx2Sc5Scene24getContactModifyCallbackEv
tBl:__ZdlPv
cDi:__ZL77StandaloneInputModule_t70867863_CustomAttributesCacheGenerator_m_VerticalAxisP21CustomAttributesCache
PJ:__ZN11UnityEngine9Animation28GenericAnimationBindingCacheD2Ev
W_d:__ZN5physx2Sq10AABBPruner10addObjectsEPjPKNS_9PxBounds3EPKNS0_13PrunerPayloadEj
Cji:__ZL68RemotingSurrogateSelector_t2821375126_CustomAttributesCacheGeneratorP21CustomAttributesCache
ylj:__Z76RuntimeInvoker_Void_t1841601450_Int32_t2071877448_KeyValuePair_2_t3716250094PK10MethodInfoPvPS2_
wWf:_List_1_System_Collections_IList_IndexOf_m39706221_gshared
fGf:_Decimal_op_Implicit_m2971610317
Zb:invoke_viiiifiiiiif
l6a:__Z18RestoreRenderStateR20CameraRenderOldStateR17ShaderPassContext
jzf:_SynchronizedArrayListWrapper_get_Item_m3309425850
gVb:__Z18Transfer_BlittableI18StreamedBinaryReadILb1EELb1E5RectTIfEEvRK29SerializationCommandArgumentsR31RuntimeSerializationCommandInfo
fPb:__Z18Transfer_BlittableI24GenerateTypeTreeTransferLb0E11ColorRGBA32EvRK29SerializationCommandArgumentsR31RuntimeSerializationCommandInfo
xt:__ZNSt3__26vectorIN13AnimationClip10FloatCurveE13stl_allocatorIS2_L18MemLabelIdentifier25ELi16EEE6resizeEj
apc:__Z21Object_CUSTOM_DestroyP12Il2CppObjectf
hed:__ZN5physx6shdfnd8PoolBaseINS_2Sc10NPhaseCore16ClothListElementENS0_19ReflectionAllocatorIS4_EEE17releaseEmptySlabsEv
sCg:_GraphicRaycaster_get_ignoreReversedGraphics_m2757724367
LKl:_emscripten_glDeleteBuffers__wrapper
Okh:_TlsServerCertificateRequest_ProcessAsSsl3_m3017921864
uOj:_Collision_t2876846408_marshal_pinvoke_back
The:__ZN5physx2Sc14ConstraintCore10breakApartEv
LQh:_GenericTypeParameterBuilder_GetHashCode_m867619899
Llj:__Z79RuntimeInvoker_Void_t1841601450_Int32_t2071877448_ParameterModifier_t1820634920PK10MethodInfoPvPS2_
$fl:__ZNSt3__26__treeINS_12basic_stringIcNS_11char_traitsIcEENS_9allocatorIcEEEENS_4lessIS6_EENS4_IS6_EEE16__construct_nodeIJRKS6_EEENS_10unique_ptrINS_11__tree_nodeIS6_PvEENS_22__tree_node_destructorINS4_ISH_EEEEEEDpOT_
bRg:_BinaryReader_ReadDecimal_m3164824427
m6h:_EqualityComparer_1__cctor_m3397254040_gshared
bwl:__ZNKSt3__220__time_get_c_storageIcE3__XEv
zaj:__Z37RuntimeInvoker_ContentType_t859870085PK10MethodInfoPvPS2_
Hoe:__ZN5physx7Cooking20loadTriangleMeshDescERKNS_18PxTriangleMeshDescERNS_19TriangleMeshBuilderE
H9g:__ZThn4_N6il2cpp2vm13ComObjectBaseI34__Il2CppComDelegate_t3311706788CCW18Il2CppIInspectableNS0_7details6ComNilES5_S5_S5_S5_S5_S5_E14QueryInterfaceERK10Il2CppGuidPPv
wvk:_TextGenerator_get_verts_m3124035267
iZg:_MonoType_CheckMethodSecurity_m4116906190
khd:__ZN5physx9NpFactory21releaseConnectorArrayEPNS_16NpConnectorArrayE
Oxk:_Vector2_get_one_m3174311904
GW:__ZNSt3__26__treeINS_12__value_typeIN19CloudServiceHandler11ServiceTypeEPS2_EENS_19__map_value_compareIS3_S5_NS_4lessIS3_EELb1EEE13stl_allocatorIS5_L18MemLabelIdentifier85ELi16EEE7destroyEPNS_11__tree_nodeIS5_PvEE
X1d:__ZNK5physx2Gu29EPASupportMapPairRelativeImplINS0_9TriangleVENS0_4BoxVEE6getDirEv
Mmf:_Array_Sort_TisVector2_t2243707579_m1307634946_gshared
Iea:__ZN13RuntimeStaticI18BackgroundJobQueueE13StaticDestroyEPv
gij:__Z37RuntimeInvoker_Enumerator_t1593300101PK10MethodInfoPvPS2_
Nva:__ZN17PersistentManager22CheckInstanceIDsLoadedEPii
VDa:__ZN7ApiGLES17CopyBufferSubDataEjjlll
lTe:__ZN11UnityEngine15PlatformWrapper17GetCloudProjectIdEv
rz:__ZN7mecanim5human19MaskHasLeftFootGoalERKNS_6bitsetILj66EEE
ZKk:__ZNSt3__26vectorIPK10Il2CppTypeNS_9allocatorIS3_EEE7reserveEj
frk:_U3CCreateWhereIteratorU3Ec__Iterator1D_1_Reset_m1773515612_gshared
Q7h:_EqualityComparer_1_get_Default_m2134906921_gshared
UFg:_InputField_get_caretPosition_m1005871812
osl:_wmemmove
p0h:_Dictionary_2__ctor_m3111963761_gshared
bV:__ZN11AudioModule26SetDefaultMicrophoneDriverEPv
BGd:__ZNK5physx15NpActorTemplateINS_15PxParticleFluidEE22getClientBehaviorFlagsEv
Mqk:_AesManaged_CreateEncryptor_m1729287824
Oxb:__ZNK14Texture2DArray26CanReuploadDataToGfxDeviceEv
$3a:__ZN17PrePassRenderLoop14RenderBasePassEP13RenderTextureRK14LightingLayersR13dynamic_arrayI16RenderObjectDataLj4EERbR10MinMaxAABB
Hjb:__ZN17GlobalGameManager23VirtualRedirectTransferER17RemapPPtrTransfer
oDe:_sfnt_stream_close
wBg:_GraphicRegistry_RegisterGraphicForCanvas_m2284226562
fwf:_Char_System_IConvertible_ToInt16_m2741348777_AdjustorThunk
Xul:__ZNKSt3__27num_getIwNS_19istreambuf_iteratorIwNS_11char_traitsIwEEEEE6do_getES4_S4_RNS_8ios_baseERjRPv
AJc:__ZN11ShapeModule8TransferI19StreamedBinaryWriteILb0EEEEvRT_
_vl:__ZNKSt3__220__time_get_c_storageIcE3__cEv
TAg:_FontData_get_verticalOverflow_m83665814
ahg:_ReadOnlyCollection_1_System_Collections_Generic_IListU3CTU3E_set_Item_m1547026160_gshared
Tci:__ZL61MarshalAsAttribute_t2900773360_CustomAttributesCacheGeneratorP21CustomAttributesCache
iha:__ZN7Texture13SetFilterModeEi
rNb:__Z33BuildSerializationCommandQueueForI19StreamedBinaryWriteILb0EEEvRK34BuildSerializationCommandQueueArgsR32SerializationCommandQueueBuilderRP20AllowNameConversionsbPK18TransferField_Info
Zwf:_Char_ToUpper_m109978609
cfl:__ZN6il2cpp8metadata13GenericMethod9GetMethodEPK19Il2CppGenericMethod
Lkb:__ZNSt3__26vectorIN4core12basic_stringIcNS1_20StringStorageDefaultIcEEEENS_9allocatorIS5_EEE7reserveEj
zIf:_Convert_ToUInt16_m2130758075
puh:_X509BasicConstraintsExtension_Encode_m3505127076
Y6j:__ZN21InterfaceFuncInvoker1Ii20TimeSpan_t3430258949E6InvokeEjP11Il2CppClassPvS0_
pxb:__ZN24GenerateTypeTreeTransfer8TransferI13dynamic_arrayI12SpriteVertexLj4EEEEvRT_PKc17TransferMetaFlags
Jya:__ZN13GfxDeviceGLES11SetViewportERK5RectTIiE
ZDg:_Image_get_pixelsPerUnit_m4104195799
zyj:_Toggle_InternalToggle_m2323729210
tMf:_Decimal_System_IConvertible_ToInt64_m2504363272
Pb:invoke_vifiiii
mrf:_Array_GetValue_m3182152438
oe:_emscripten_glDepthRange
kJh:_DESTransform_CipherFunct_m3559419566
Oij:__Z91RuntimeInvoker_Boolean_t3825574718_TouchScreenKeyboardTypeU26_t2194866306_Int32_t2071877448PK10MethodInfoPvPS2_
a0c:__ZN5physx2Gu24contactConvexHeightfieldERKNS0_13GeometryUnionES3_RKNS_11PxTransformES6_RKfRNS0_5CacheERNS0_13ContactBufferE
Nid:__ZN5physx6shdfnd5ArrayIPvNS0_19ReflectionAllocatorINS_2Cm5BlockIS2_Lj8EEEEEE15growAndPushBackERKS2_
Rtg:_StandaloneInputModule_get_repeatDelay_m3025279
UWj:_GUILayoutGroup_CalcWidth_m4107152934
NGh:_RuntimeFieldHandle_get_Value_m3963757144
pYb:__Z14resize_trimmedINSt3__26vectorIN9ShaderLab20SerializedSubProgram12UAVParameterENS0_9allocatorIS4_EEEEEvRT_j
NBh:_SerializationInfo_AddValue_m1781549036
uIk:__ZL25UnresolvedVirtualCall_214P12Il2CppObject18Color32_t874517518PK10MethodInfo
Qhh:_TlsServerKeyExchange_verifySignature_m3641534563
edg:_Collection_1_Clear_m445145071_gshared
Mwj:_Slider_FindSelectableOnLeft_m3136767885
R0i:__Z75RuntimeInvoker_Void_t1841601450_Il2CppObject_RuntimeFieldHandle_t2331729674PK10MethodInfoPvPS2_
kFa:__ZN4crndL20crnd_default_reallocEPvjPjbS0_
yef:_Array_BinarySearch_TisInt32_t2071877448_m51233948_gshared
hbc:__ZN7Texture11SetWrapModeEi
SAl:__ZNSt3__26locale5__imp7installINS_9money_putIwNS_19ostreambuf_iteratorIwNS_11char_traitsIwEEEEEEEEvPT_
Z6d:__ZN5physx24PxsComputeAABBLocalSpaceERKNS_18PxcAABBDataDynamicERNS_9PxBounds3E
ybc:__ZN16PackedQuatVector9PackQuatsEP11Quaternionfi
Dej:__Z115RuntimeInvoker_Void_t1841601450_Rect_t3681755626_Il2CppObject_Int32_t2071877448_Int32_t2071877448_Int32_t2071877448PK10MethodInfoPvPS2_
Nnc:__Z33Texture_CUSTOM_Internal_GetHeightP12Il2CppObject
lIg:_LayoutGroup_get_preferredHeight_m3901163825
YAe:_UNITY_FT_Init_Class_ft_bitmap_glyph_class
gv:__ZN7mecanim9animation18ClipMuscleConstant8TransferI24GenerateTypeTreeTransferEEvRT_
dmb:__ZN4PPtrI13RenderTextureE8TransferI18StreamedBinaryReadILb0EEEEvRT_
GVk:__ZN15dense_hashtableINSt3__24pairIK10KeyWrapperINS1_IPK9FieldInfoP11Il2CppClassEEEjEES9_17ReflectionMapHashIS8_EN14dense_hash_mapIS9_jSD_19ReflectionMapEqualsIS8_ENS0_9allocatorISB_EEE9SelectKeyESG_SI_E15insert_noresizeERKSB_
RFf:_DateTime_AbsoluteDays_m3061694073
rjj:__Z56RuntimeInvoker_Boolean_t3825574718_LabelData_t3712112744PK10MethodInfoPvPS2_
lKe:_UNITY_FT_Stream_GetChar
AVb:__Z18Transfer_BlittableI18StreamedBinaryReadILb1EELb1EdEvRK29SerializationCommandArgumentsR31RuntimeSerializationCommandInfo
tYh:_Enumerator_MoveNext_m435964161_AdjustorThunk
CYh:_Enumerator_System_Collections_IEnumerator_get_Current_m229223308_gshared
Uti:__ZL202U3CCreateWhereIteratorU3Ec__Iterator1D_1_t2523986802_CustomAttributesCacheGenerator_U3CCreateWhereIteratorU3Ec__Iterator1D_1_System_Collections_Generic_IEnumerableU3CTSourceU3E_GetEnumerator_m2392330777P21CustomAttributesCache
y$d:__ZN5physx6shdfnd8internal8HashBaseINS0_4PairIKNS_2Sq13PrunerPayloadEjEES5_NS0_4HashIS5_EENS1_11HashMapBaseIS5_jS9_NS0_9AllocatorEE6GetKeyESB_Lb1EE5eraseERS6_
Zze:__ZNK19TextRenderingModule8TMGenGetERK11UTF16StringPN13TextRendering4FontE10TextAnchor13TextAlignmentfffbb11ColorRGBA32fii
qje:__ZN5physx13GuMeshFactory16createConvexMeshERNS_13PxInputStreamE
Vqe:__ZN5physx6shdfnd8internal8HashBaseINS0_4PairIKPKcjEES5_NS0_4HashIS5_EENS1_11HashMapBaseIS5_jS9_NS_7profile26WrapperReflectionAllocatorIjEEE6GetKeyESD_Lb1EE6createERS6_Rb
Whi:__ZL55GCHandleType_t1970708122_CustomAttributesCacheGeneratorP21CustomAttributesCache
mRj:_Event_Init_m3901382626
KTj:_AnimationPlayableUtilities_SetInputsValidated_m2696856860
nhb:__ZN10FileSystem12MountHandlerEP17FileSystemHandler
Uyf:_FixedSizeArrayListWrapper_AddRange_m2071800418
mfa:__Z9InitInputv
qGa:__ZN4gles10SetTextureER15DeviceStateGLESj16TextureDimensionj19BuiltinSamplerState
jVf:_Enumerator_VerifyState_m2358705882_AdjustorThunk
tQb:__Z29Transfer_Blittable_ArrayFieldI24GenerateTypeTreeTransfer11ColorRGBA32EvRT_R9ArrayInfoRK23StaticTransferFieldInfo
oje:__ZNK5physx13GuMeshFactory15getConvexMeshesEPPNS_12PxConvexMeshEjj
_sj:_Selectable_Navigate_m915280351
uah:_AppDomain_getCurDomain_m591611373
fdb:__ZN16MemoryFileSystem6DeleteER13FileEntryDatab
eyk:_Vector3_get_normalized_m936072361
iua:__ZL21BlitScaleStbImageImplRK14ImageReferenceRS_NS_10ColorSpaceE
Qxd:__ZN5physx10NpMaterial17setStaticFrictionEf
Goh:_TlsStream_set_Position_m378064217
_Hk:__ZL25UnresolvedVirtualCall_192P12Il2CppObject26DateTimeOffset_t1362988906S1_PK10MethodInfo
CI:__ZN18StreamedBinaryReadILb0EE21TransferSTLStyleArrayI13dynamic_arrayIjLj4EEEEvRT_17TransferMetaFlags
MWc:__ZNSt3__26__sortIR31RayHitsByInverseDepthComparitorP12RaycastHit2DEEvT0_S5_T_
nSd:__ZNK5physx7NpScene19getFilterShaderDataEv
SLb:__Z29Transfer_Blittable_ArrayFieldI14SafeBinaryReadyEvRT_R9ArrayInfoRK23StaticTransferFieldInfo
BGk:__ZL25UnresolvedVirtualCall_113P12Il2CppObjectiiiPK10MethodInfo
nS:__ZN20SoundChannelInstance15setChannelGroupEPN4FMOD12ChannelGroupE
Ssd:__ZN5physx2Sc19ShapeInstancePairLL26onPoseChangedWhileSleepingEv
EKc:__ZN12LightsModule13AwakeFromLoadEP14ParticleSystemRK27ParticleSystemReadOnlyState
r1e:_Evidence_Equals_m2325859915
f1d:__ZN5physx22PxcSweepCapsuleCapsuleERKNS_11PxsCCDShapeES2_PKNS_12PxsRigidBodyES5_RKNS_11PxTransformES8_S8_S8_fRNS_6PxVec3ESA_RNS_10PxcNpCacheERNS_18PxcNpThreadContextEf
omi:__ZL93WindowsIdentity_t373339331_CustomAttributesCacheGenerator_WindowsIdentity_Dispose_m2649088337P21CustomAttributesCache
QLh:_Default__ctor_m172834064
Jc:invoke_vifffii
$Gb:__ZN20ArchiveStorageReader17MakeStorageUnusedEv
jjk:_Regex_IsMatch_m2159202025
dad:__ZNK5physx3Cct17CapsuleController21getHalfHeightInternalEv
DPa:__ZNK25MultiBlocksMemoryFileData5CloneEv
Cjl:_GC_add_ext_descriptor
o9c:__ZN5physx21PxQueryFilterCallbackD2Ev
pEg:_Image_CalculateLayoutInputHorizontal_m3275149860
fDh:_RemotingServices_GetMethodBaseFromName_m3271095947
o8i:__Z71RuntimeInvoker_TimeSpan_t3430258949_Double_t4078015681_Int64_t909078037PK10MethodInfoPvPS2_
IQa:__ZN17ArchiveFileSystem11CreateAsDirER13FileEntryData
sgd:__ZL30GeomOverlapCallback_CapsuleBoxRKN5physx10PxGeometryERKNS_11PxTransformES2_S5_PNS_2Gu12TriggerCacheE
kEl:dynCall_iiiiiiiiiiii
f7e:_ASCIIEncoding_GetBytes_m3617160053
O4j:_InternalEnumerator_1_MoveNext_m2289229080_AdjustorThunk
$_i:__Z72RuntimeInvoker_Boolean_t3825574718_Decimal_t724701077_Decimal_t724701077PK10MethodInfoPvPS2_
Tgh:_CipherSuiteCollection_System_Collections_IList_RemoveAt_m143866082
pdk:_Context_get_HasGlobalDynamicSinks_m3205328884
Vxa:__ZN22VertexDeclarationCacheD0Ev
wpa:__ZN6prcoreL17RemapGenericFloatI16TexFormatRGFloat17TexFormatRGBAHalfEEvPKNS_9InnerInfoE
Hhb:__ZNK21AssetBundleFileSystem8PositionERK13FileEntryData
OSj:_UnityEventBase_UnityEngine_ISerializationCallbackReceiver_OnBeforeSerialize_m1773826808
AXc:__ZN13dynamic_arrayI11Collision2DLj4EE9push_backERKS0_
w8:__ZN8Remapper23GetOrGenerateInstanceIDERK26SerializedObjectIdentifier
Lt:__ZN17AnimationCurveTplI8Vector3fEC2ERKS1_
RVg:_StreamWriter_Flush_m3426120024
OQa:__ZN17FileSystemHandler10AtomicMoveER13FileEntryDataS1_
bb:invoke_iiiiiifffiiifii
uTg:_MemoryStream__ctor_m1489366847
R1e:_SecurityElement_IsValidTag_m64902195
FYh:_Enumerator_System_Collections_IEnumerator_get_Current_m229223308_AdjustorThunk
QWh:_PropertyInfo_SetValue_m2961483868
EWj:_GUILayoutEntry_set_style_m70917293
e$f:_List_1_System_Collections_IList_Contains_m4193366963_gshared
Mzk:_UnityEvent_3_FindMethod_Impl_m1889846153_gshared
rgk:_DictionaryEnumerator_get_Value_m1915638953
nMh:_ConstructorInfo_Invoke_m2144827141
uwj:_Slider_set_onValueChanged_m1751815187
nxb:__ZN6Sprite8TransferI24GenerateTypeTreeTransferEEvRT_
eml:__ZThn4_N6il2cpp2vm13ComObjectBaseINS0_13ManagedObjectE18Il2CppIInspectableNS0_7details6ComNilES5_S5_S5_S5_S5_S5_E16GetManagedObjectEv
Toc:__Z48Register_UnityEngine_Transform_SetAsFirstSiblingv
Ajj:__Z56RuntimeInvoker_Boolean_t3825574718_UriScheme_t1876590943PK10MethodInfoPvPS2_
_zb:__ZN7SubMesh8TransferI24GenerateTypeTreeTransferEEvRT_
TVh:_MonoProperty_get_CanWrite_m2124922514
a$c:__ZN5physx3Cct10Controller6setPosERKNS_14PxExtendedVec3E
Tda:__ZN13RuntimeStaticI13RendererSceneE13StaticDestroyEPv
h1c:__ZN5physx2GuL14testFaceNormalERKNS0_13PolygonalDataES3_PNS0_12SupportLocalES5_RKNS_6shdfnd3aos15PsMatTransformVESA_RKNS7_6FloatVERSB_RjRNS7_5Vec3VENS0_13FeatureStatusERSI_
iij:__Z36RuntimeInvoker_Enumerator_t132208513PK10MethodInfoPvPS2_
Mjj:__Z112RuntimeInvoker_Int32_t2071877448_Il2CppObject_Int32_t2071877448_Int32_t2071877448_Int32_t2071877448_Il2CppObjectPK10MethodInfoPvPS2_
Nrl:_poll
gTg:_Stream_BeginRead_m1985960185
jCg:_Graphic_UnregisterDirtyVerticesCallback_m1526739224
O2g:__ZN16VirtFuncInvoker1IP21BigInteger_t925946152iE6InvokeEjPvi
Uv:__ZN7mecanim5human9HumanGoal8TransferI18StreamedBinaryReadILb0EEEEvRT_
uDi:__ZL88TweenRunner_1_t2584777480_CustomAttributesCacheGenerator_TweenRunner_1_Start_m2640577060P21CustomAttributesCache
geh:_MD4Managed_GG_m1462438360
zkc:__Z46Mesh_CUSTOM_PrintErrorCantAccessMeshForIndicesP12Il2CppObject
kbc:__ZN9Transform23SetSiblingIndexInternalEib
Tuj:_ScrollRect_get_minWidth_m3151814267
ygd:__ZL32GeomOverlapCallback_ConvexConvexRKN5physx10PxGeometryERKNS_11PxTransformES2_S5_PNS_2Gu12TriggerCacheE
yBg:_Graphic_get_canvasRenderer_m2902370808
vy:__ZN7mecanim5human12HumanPoseSubERNS0_9HumanPoseERKS1_S4_
Udh:_MD4_Create_m2582504069
KCk:_HashSet_1_System_Collections_IEnumerable_GetEnumerator_m2498631708_gshared
Q6k:__ZN6il2cpp8metadata15GenericMetadata15GetGenericClassEiPK17Il2CppGenericInst
Stf:_Boolean_System_IConvertible_ToInt16_m977801621
gKb:__Z18Transfer_BlittableI14SafeBinaryReadLb0E10Matrix4x4fEvRK29SerializationCommandArgumentsR31RuntimeSerializationCommandInfo
CSa:__Z24GetFixedBehaviourManagerv
SIf:_Convert_ToUInt64_m1691869628
kRk:__ZN6il2cpp2vm10ThreadPool4WaitEP17Il2CppAsyncResultPPv
Fpl:_vfprintf
PBh:_SerializationException__ctor_m1019897788
Ccj:__Z67RuntimeInvoker_Playable_t3667545548_GenericMixerPlayable_t788733994PK10MethodInfoPvPS2_
mCb:__ZNSt3__26__sortIRNS_6__lessINS_12basic_stringIcNS_11char_traitsIcEENS_9allocatorIcEEEES7_EEPS7_EEvT0_SB_T_
QJj:_Debug_get_logger_m4173808038
Bna:__ZL13SortTexByNameRKNSt3__24pairIN9ShaderLab16FastPropertyNameEN18UnityPropertySheet11UnityTexEnvEEES7_
N_a:__ZN20DynamicPropertySheetD0Ev
Qab:__ZN14SafeBinaryRead17RegisterConverterEPKcS1_PFbPvRS_E
v3:__ZN35RegisterRuntimeInitializeAndCleanup8RegisterEPFvPvES2_iS0_
SLd:__ZNK5physx19NpRigidBodyTemplateINS_14PxRigidDynamicEE17getRigidBodyFlagsEv
k2k:__ZNSt3__26vectorIN6il2cpp8metadata18GenericArrayMethodENS_9allocatorIS3_EEE7reserveEj
Is:__ZN7mecanim6memory16ChainedAllocator7ReserveEj
Hsf:_AsyncCallback__ctor_m3071689932
C2k:__ZNK15dense_hashtableINSt3__24pairIK10KeyWrapperIP11Il2CppClassES4_EES5_N6il2cpp8metadata16SZArrayClassHashEN14dense_hash_mapIS5_S4_SA_NS9_19SZArrayClassCompareENS0_9allocatorIS7_EEE9SelectKeyESC_SE_E13find_positionERS6_
Jmg:_ReadOnlyCollection_1_System_Collections_IList_Clear_m2600246370_gshared
$Uc:__ZN4PPtrI17PhysicsMaterial2DE8TransferI18StreamedBinaryReadILb0EEEEvRT_
mpb:__ZN20SphericalHarmonicsL215AddAmbientLightERK10ColorRGBAf
j1d:__ZN5physx25PxcSweepConvexHeightfieldERKNS_11PxsCCDShapeES2_PKNS_12PxsRigidBodyES5_RKNS_11PxTransformES8_S8_S8_fRNS_6PxVec3ESA_RNS_10PxcNpCacheERNS_18PxcNpThreadContextEf
nej:__Z41RuntimeInvoker_EventModifiers_t2690251474PK10MethodInfoPvPS2_
x4g:_DSAManaged_NormalizeArray_m2287089393
x5j:_InternalEnumerator_1_System_Collections_IEnumerator_get_Current_m2389982234_AdjustorThunk
HSa:__ZN8Material26ResetAllCachedMaterialDataEP6Shader
pvj:_Selectable_get_interactable_m1725029500
wKe:_UNITY_TT_Get_MM_Var
Z:invoke_diddi
Rrg:_ExecuteEvents__cctor_m288775360
PLe:__ZNK2UI6Canvas13GetRenderModeEv
VGf:_Double_TryParseStringConstant_m2585405703
yWk:__ZN15dense_hashtableINSt3__24pairIK10KeyWrapperIPK10Il2CppTypeEjEES6_N6il2cpp8metadata14Il2CppTypeHashEN14dense_hash_mapIS6_jSB_NSA_17Il2CppTypeCompareENS0_9allocatorIS8_EEE9SelectKeyESD_SF_E5clearEv
KUh:_MonoField_get_Attributes_m4138688533
$G:__Z32TransferEnumWithNameForceIntSizeI14SafeBinaryRead28TransitionInterruptionSourceEvRT_RT0_PKc17TransferMetaFlags
tKb:__Z18Transfer_BlittableI14SafeBinaryReadLb0EiEvRK29SerializationCommandArgumentsR31RuntimeSerializationCommandInfo
_Pk:__ZN6il2cpp2vm13MetadataCache30GetPropertyDefinitionFromIndexEi
rXe:_RijndaelTransform_Clear_m1652144089
WKd:__ZN5physx14NpRigidDynamic7releaseEv
_nf:_BaseInvokableCall_ThrowOnInvalidArg_TisIl2CppObject_m1349548392_gshared
BYi:__Z57RuntimeInvoker_Void_t1841601450_Il2CppObject_Il2CppObjectPK10MethodInfoPvPS2_
J_g:_NumberFormatter_get_IsZero_m1325357749
zZd:__ZN5physx6shdfnd8PoolBaseINS_21PxsBodyTransformVault13PxsBody2WorldENS0_19ReflectionAllocatorIS3_EEE15disposeElementsEv
sI:__ZN15SerializeTraitsI9OffsetPtrIN7mecanim9animation23BlendDirectDataConstantEEE8TransferI24GenerateTypeTreeTransferEEvRS4_RT_
jQf:_Enum_ToObject_m322320225
u$e:_X509Certificate__ctor_m3860837120
SBe:_gray_raster_reset
OLj:_GameObject_Internal_CreateGameObject_m3428198595
Xvl:__ZNKSt3__220__time_get_c_storageIcE7__weeksEv
TMj:_Camera_RaycastTry2D_m755036866
Emg:_ReadOnlyCollection_1_System_Collections_Generic_IListU3CTU3E_set_Item_m3663361643_gshared
j7c:__ZN5physx2Gu30computeCapsule_TriangleMeshMTDERKNS_22PxTriangleMeshGeometryERKNS_11PxTransformERNS0_8CapsuleVEffbRNS_10PxSweepHitE
_qg:_EventTrigger_OnScroll_m626934407
AGb:__ZN30RuntimeInitializeOnLoadManager8TransferI18StreamedBinaryReadILb0EEEEvRT_
N2h:_Dictionary_2__ctor_m1206668798_gshared
BCe:_UNITY_tt_face_load_pclt
EHb:__ZN21ArchiveStorageCreator14StoreDirectoryEv
Mec:__ZL34GetComponentsImplementationRecurseILb1ELi0ELi2EEbR10GameObjectbRK17CompareParametersRK39GetComponentsImplementation_ReturnValue
Lml:__ZN6il2cpp6icalls8mscorlib6System9Threading5Mutex20CreateMutex_internalEbP12Il2CppStringPb
q6i:__Z50RuntimeInvoker_Int16_t4041245914_Int16_t4041245914PK10MethodInfoPvPS2_
Ayf:_ArrayListWrapper_Remove_m1105489978
b_a:__ZNK6Camera18WorldToScreenPointERK8Vector3fPb
Qpk:_X509Extension_get_Oid_m3620527052
p7d:__ZN5physx2Cm12DelegateTaskINS_10PxsContextEXadL_ZNS2_28mergeCMDiscreteUpdateResultsEPNS_10PxBaseTaskEEEE11runInternalEv
qhh:_TlsClientSettings_set_TargetHost_m3421266913
coe:__ZN5physx19TriangleMeshBuilder10importMeshERKNS_18PxTriangleMeshDescERKNS_15PxCookingParamsEb
Hlc:__Z45Playable_CUSTOM_INTERNAL_CALL_IsValidInternalR9HPlayable
zCi:__ZL109PointerEventData_t1599784723_CustomAttributesCacheGenerator_PointerEventData_get_eligibleForClick_m2497780621P21CustomAttributesCache
$of:_Array_InternalArray__get_Item_TisILTokenInfo_t149559338_m2004750537_gshared
S0j:_InternalEnumerator_1_Dispose_m549215360_AdjustorThunk
nwf:_Convert_ToSByte_m2665932200
F7:__ZNSt3__227__insertion_sort_incompleteIRPFbRKN18AwakeFromLoadQueue4ItemES4_EPS2_EEbT0_S9_T_
eok:_PKCS12_Encrypt_m2154408631
Q2:__GLOBAL__sub_I_runtime_camera_culling_lump_cpp
W$h:_ValueCollection_System_Collections_ICollection_get_IsSynchronized_m45572582_gshared
gef:_Array_InternalArray__IEnumerable_GetEnumerator_TisContactPoint2D_t3659330976_m478005999_gshared
$qj:_Navigation_Equals_m4214630671_AdjustorThunk
mjg:_ReadOnlyCollection_1_System_Collections_Generic_IListU3CTU3E_set_Item_m257196015_gshared
XDd:__ZN5physx6shdfnd5ArrayINS_18PxClothFabricPhaseENS0_19ReflectionAllocatorIS2_EEE8recreateEj
Xsb:__ZN26EnlightenSystemInformation8TransferI14SafeBinaryReadEEvRT_
bKc:__ZN13InitialModule5ResetEv
Mof:_Array_InternalArray__get_Item_TisLink_t2723257478_m2281261655_gshared
yTd:__ZN5physx2Sq17SceneQueryManager11shiftOriginERKNS_6PxVec3E
n5c:__ZN5physx2Gu16sweepBoxTriangleERKNS_10PxTriangleERKNS_9PxBounds3ERKNS_6PxVec3ES9_RS7_SA_Rf
IR:__ZN4PPtrI15AudioMixerGroupE8TransferI18StreamedBinaryReadILb1EEEEvRT_
Kkk:_ExpressionAssertion_IsComplex_m783019628
gZh:_ShimEnumerator_MoveNext_m2943029388_gshared
sBf:_Hashtable__ctor_m2702360557
ai:_utime
Ooe:__ZN5physx10writeChunkEaaaaRNS_14PxOutputStreamE
xKg:_DateTimeFormatInfo_get_RawAbbreviatedDayNames_m3998113647
l5h:_DefaultComparer_GetHashCode_m2596628120_gshared
Njl:_GC_call_with_alloc_lock
K$e:__ZN16VirtFuncInvoker0IP8String_tE6InvokeEjPv
fWk:__ZN6il2cpp2gc19AppendOnlyGCHashMapIPK10Il2CppTypeP20Il2CppReflectionTypeNS_8metadata14Il2CppTypeHashENS7_17Il2CppTypeCompareEE3AddERKS4_S6_
Gch:_PrimalityTest_Invoke_m4058801829
VCh:_RemotingConfiguration_SetCustomErrorsMode_m1844153208
eo:FUNCTION_TABLE_viiiiii
Jud:__ZN5physx2Sc9RigidCore13onShapeChangeERNS0_9ShapeCoreENS_7PxFlagsINS0_21ShapeChangeNotifyFlag4EnumEjEENS4_INS_11PxShapeFlag4EnumEhEE
NSf:_CultureInfo_GetFormat_m3560116485
LA:__ZN7mecanim9animation22DestroyAvatarWorkspaceEPNS0_15AvatarWorkspaceERNS_6memory9AllocatorE
VWi:_ScriptableObject_CreateInstance_m3271154163
Jze:__ZNSt3__26vectorI8UnityStr13stl_allocatorIS1_L18MemLabelIdentifier34ELi16EEE12__move_rangeEPS1_S6_S6_
Oxh:_FactoryCache__ctor_m254400436
uId:__ZN5physx6shdfnd5ArrayIPvNS0_15InlineAllocatorILj256ENS0_19ReflectionAllocatorINS_2Sc19ParticlePacketShapeEEEEEE15growAndPushBackERKS2_
O3d:__ZN5physx17solveContactBlockEPKNS_23PxcSolverConstraintDescEjRNS_16PxcSolverContextE
Xoe:__ZN5physx6shdfnd10FoundationD2Ev
fgf:_Array_InternalArray__IndexOf_TisResourceCacheItem_t333236149_m761772858_gshared
Dqc:__ZNSt3__210__list_impIN10GUIManager12SortedScriptE11memory_poolIS2_EE5clearEv
dpi:__ZL76Convert_t2607082565_CustomAttributesCacheGenerator_Convert_ToInt64_m44696721P21CustomAttributesCache
qDh:_TrackingServices__cctor_m3639412334
Qka:__ZN9ShaderLab11shaderprops9GetVectorEPK19ShaderPropertySheetS3_NS_16FastPropertyNameERNS0_16PropertyLocationE
dtc:__Z32GUIStyle_Set_Custom_PropRichTextP12Il2CppObjecth
TE:__ZN7mecanim9animation29MotionOutputGetDeltaTransformEPKNS0_12MotionOutputE
ska:__ZNSt3__26__treeINS_12__value_typeI4PPtrI13RenderTextureEN19RenderBufferManager23RenderTextureParametersEEENS_19__map_value_compareIS4_S7_NS_4lessIS4_EELb1EEE11memory_poolIS7_EE5eraseENS_21__tree_const_iteratorIS7_PNS_11__tree_nodeIS7_PvEEiEE
b1e:_StrongNamePublicKeyBlob_Equals_m2407250401
g0h:_ValueCollection_System_Collections_IEnumerable_GetEnumerator_m1773104428_gshared
Fjb:__ZN17GlobalGameManager23VirtualRedirectTransferER19StreamedBinaryWriteILb0EE
sQc:__ZN24b2ChainAndCapsuleContact8EvaluateEP10b2ManifoldRK11b2TransformS4_
ZK:__ZN8Animator14OnAddComponentEPN5Unity9ComponentE
yOi:_Input_GetAxis_m2098048324
g6f:_List_1_CheckMatch_m1184924052_gshared
poc:__Z43Transform_CUSTOM_INTERNAL_get_localRotationP12Il2CppObjectP11Quaternionf
WZd:__ZN5physx2Sc10NPhaseCoreD2Ev
vid:__ZN5physx2Sc7BodySim18onConstraintDetachEv
Yvk:_Touch_get_fingerId_m4109475843_AdjustorThunk
RIl:_glGetShaderInfoLog__wrapper
Di:_emscripten_glGetTexParameteriv
tSd:__ZN5physx7NpScene8simulateEfPNS_10PxBaseTaskEPvjb
S_f:_List_1_ToArray_m3752387798_gshared
_Qd:__ZThn8_N5physx2Sc24ElementInteractionMarker10onActivateEj
cfh:_RSAManaged_ImportParameters_m3060955884
p8g:_DeriveBytes__ctor_m3089550878
s_g:_NotImplementedException__ctor_m1305569814
FYb:__ZN9ShaderLab20SerializedSubProgram14ConstantBufferaSERKS1_
Fbk:_ChannelData_CopyFrom_m4049054607
u2b:__Z13RegisterClassI4MeshEvv
UBi:__ZL94AxisEventData_t1524870173_CustomAttributesCacheGenerator_AxisEventData_get_moveDir_m3968662359P21CustomAttributesCache
gff:_Array_FindLastIndex_TisIl2CppObject_m869210470_gshared
Rpb:__ZN8PlayableD0Ev
sma:__ZNSt3__24pairIK8UnityStrS1_EC2ERKS3_
scj:__Z56RuntimeInvoker_Int32_t2071877448_PlayableU26_t3233213460PK10MethodInfoPvPS2_
eO:__ZN12AudioManager8TransferI19StreamedBinaryWriteILb0EEEEvRT_
EF:__ZN4PPtrI25RuntimeAnimatorControllerE8TransferI18StreamedBinaryReadILb1EEEEvRT_
NTg:_WriteDelegate_Invoke_m2103848735
R$f:_List_1_get_Capacity_m4262042666_gshared
$Bk:_GenericEqualityComparer_1_GetHashCode_m1950634276_gshared
XVb:__ZN18StreamedBinaryReadILb1EE21TransferSTLStyleArrayI13dynamic_arrayI11ColorRGBA32Lj4EEEEvRT_17TransferMetaFlags
CHb:__ZNSt3__26__treeINS_12__value_typeINS_12basic_stringIcNS_11char_traitsIcEENS_9allocatorIcEEEEjEENS_19__map_value_compareIS7_S8_NS_4lessIS7_EELb1EEE13stl_allocatorIS8_L18MemLabelIdentifier54ELi16EEE12__find_equalIS7_EERPNS_16__tree_node_baseIPvEESM_RKT_
Mbi:__ZL72Il2CppArray_CustomAttributesCacheGenerator_Array_LastIndexOf_m4096535198P21CustomAttributesCache
p_h:_Transform_1_EndInvoke_m687617772_gshared
Qlj:__Z66RuntimeInvoker_Void_t1841601450_Int32_t2071877448_Mark_t2724874473PK10MethodInfoPvPS2_
fqk:_Locale_GetText_m512920887
c6b:__ZNK32RendererMaterialAnimationBinding12GetPPtrValueERKN11UnityEngine9Animation10BoundCurveE
vSb:__Z18Transfer_BlittableI18StreamedBinaryReadILb0EELb0E8Vector2fEvRK29SerializationCommandArgumentsR31RuntimeSerializationCommandInfo
xrd:__ZN5physx18NpArticulationLink10clearForceENS_11PxForceMode4EnumE
DCh:_RemotingConfiguration_get_ProcessId_m3870172209
Z1c:__ZN5physx2Gu30distanceSegmentTriangleSquaredERKNS_6PxVec3ES3_S3_S3_S3_PfS4_S4_
tVc:__ZN16CircleCollider2D10SmartResetEv
zOe:__ZN2UI11CanvasGroup12CleanupClassEv
OWi:_SceneManager_LoadScene_m1386820036
ZLg:_SortKey_ToString_m2406913228
v1:__ZN22LocalFileSystemHandler9MakeLocalER13FileEntryDatab
ggl:__ZN6il2cpp2vm8Profiler10AllocationEP12Il2CppObjectP11Il2CppClass
aGf:_Convert_ToDateTime_m1020507389
Xxg:_ColorTween_AddOnChangedCallback_m3190875685
x4k:__ZN13dynamic_arrayIP12Il2CppObjectLj4EE10reallocateEPS1_j
LBb:__ZN14SpriteRenderer21ReleaseGeometryJobMemEP25DynamicVBOGeometryJobData
tze:__ZNSt3__23mapIN20TextRenderingPrivate7FontRefENS1_6OSFontENS_4lessIS2_EENS_9allocatorINS_4pairIKS2_S3_EEEEEixERS8_
ERg:_Path_IsPathRooted_m1347207448
GEh:_ObjectManager_RegisterObjectInternal_m879109503
Kaf:_Array_get_swapper_TisVector4_t2243707581_m97441823_gshared
ZBd:__ZNK5physx15NpActorTemplateINS_7PxClothEE12getAggregateEv
Pva:__ZNSt3__26__sortIRNS_4lessIiEEPiEEvT0_S5_T_
wwe:__ZN14SafeBinaryRead21TransferSTLStyleArrayI10vector_mapINSt3__24pairIttEEfN20TextRenderingPrivate8FontImpl14KerningCompareENS2_9allocatorINS3_IS4_fEEEEEEEvRT_17TransferMetaFlags
P2b:__Z13RegisterClassI15QualitySettingsEvv
Afl:__ZN6il2cpp2vm6String21InitializeEmptyStringEP11Il2CppClass
Q3a:__ZN25DeferredRenderLoopScratchD0Ev
ry:__ZN7mecanim9animation17EvaluateHumanPoseERKNS0_18ClipMuscleConstantERKNS0_15ClipMuscleInputEPKfRKNS0_12MotionOutputERNS_5human9HumanPoseE
eni:__ZL90UTF7Encoding_t741406939_CustomAttributesCacheGenerator_UTF7Encoding_GetHashCode_m359766848P21CustomAttributesCache
z$i:__Z52RuntimeInvoker_Decimal_t724701077_Single_t2076509932PK10MethodInfoPvPS2_
o0d:__ZNK5physx2Cm12DelegateTaskINS_13PxsCCDContextEXadL_ZNS2_14postCCDAdvanceEPNS_10PxBaseTaskEEEE7getNameEv
G1a:__ZL13RenderCastersiRK8Vector3fS1_RK13ShadowJobDataR17ShaderPassContextRKNSt3__26vectorI16ShadowCasterData13stl_allocatorIS9_L18MemLabelIdentifier2ELi16EEEERKNS8_I20ShadowCasterPartDataSA_ISG_LSB_2ELi16EEEERK15RenderNodeQueueb
Fti:__ZL62SecurityProtocolType_t155967584_CustomAttributesCacheGeneratorP21CustomAttributesCache
dZa:__ZNSt3__227__insertion_sort_incompleteIRPFbP10GUIElementS2_EPS2_EEbT0_S7_T_
ruh:_X509BasicConstraintsExtension_get_HasPathLengthConstraint_m3788532759
bla:__ZN22CreateGpuProgramOutputD2Ev
Jef:__ZN21InterfaceFuncInvoker1Ii38CustomAttributeNamedArgument_t94157543E6InvokeEjP11Il2CppClassPvS0_
dbd:__ZNK5physx3Cct15ObstacleContext14getNbObstaclesEv
LRb:__Z18Transfer_BlittableI19StreamedBinaryWriteILb0EELb1EsEvRK29SerializationCommandArgumentsR31RuntimeSerializationCommandInfo
pXk:__ZNK15dense_hashtableINSt3__24pairIK10KeyWrapperINS1_IPK10MethodInfoP11Il2CppClassEEEjEES9_17ReflectionMapHashIS8_EN14dense_hash_mapIS9_jSD_19ReflectionMapEqualsIS8_ENS0_9allocatorISB_EEE9SelectKeyESG_SI_E12test_deletedERK24dense_hashtable_iteratorISB_S9_SD_SK_SG_SI_E
TYe:_RSACryptoServiceProvider_EncryptValue_m802714447
J5k:__ZN6il2cpp6icalls8mscorlib6System2IO6MonoIO9SetLengthE12Il2CppIntPtrxPi
Ole:__ZN5physx6shdfnd8PoolBaseINS_11NpAggregateENS0_19ReflectionAllocatorIS2_EEE12allocateSlabEv
Coi:__ZL76Convert_t2607082565_CustomAttributesCacheGenerator_Convert_ToByte_m932798552P21CustomAttributesCache
FKd:__ZN5physx16NpParticleSystem23setParticleReadDataFlagENS_22PxParticleReadDataFlag4EnumEb
kH:__ZN7mecanim9animation23BlendDirectDataConstant8TransferI14SafeBinaryReadEEvRT_
KZc:__ZZN11Rigidbody2D15InitializeClassEvEN35FunctorImpl_200kAnimatorMoveBuiltin4CallEPviR11MessageData
aaj:__Z44RuntimeInvoker_HashAlgorithmType_t1654661965PK10MethodInfoPvPS2_
oJd:__ZN5physx7NpScene26removeFromParticleBaseListERNS_14PxParticleBaseE
cJg:_DateTimeFormatInfo_GetInstance_m3133223810
Wbh:_ModulusRing_BarrettReduction_m2802101099
c1i:__Z57RuntimeInvoker_ExtenderType_t1556892101_Int32_t2071877448PK10MethodInfoPvPS2_
FEd:__ZN5physx2Sc9ClothCore23setSelfCollisionIndicesEPKjj
BNa:__ZN12HandlerChain4OpenER13FileEntryData14FilePermission16FileAutoBehavior
ipj:__Z76RuntimeInvoker_Il2CppObject_UILineInfo_t3621277874_Il2CppObject_Il2CppObjectPK10MethodInfoPvPS2_
_Th:_MonoMethodInfo_GetParametersInfo_m3456861922
Fnj:__Z37RuntimeInvoker_UILineInfo_t3621277874PK10MethodInfoPvPS2_
rLk:__ZN15dense_hashtableINSt3__24pairIK10KeyWrapperIPK19Il2CppGenericMethodEPK26Il2CppGenericMethodIndicesEES6_N6il2cpp8metadata23Il2CppGenericMethodHashEN14dense_hash_mapIS6_SA_SE_NSD_26Il2CppGenericMethodCompareENS0_9allocatorISB_EEE9SelectKeyESG_SI_E15set_deleted_keyERKSB_
Tyf:_FixedSizeArrayListWrapper_Add_m1263586472
waa:__ZN14FileCacherReadD2Ev
nZe:_RSAPKCS1SignatureDeformatter_VerifySignature_m1825067195
Xhc:__Z50Register_UnityEngine_CullingGroup_FinalizerFailurev
CTf:_KeyValuePair_2_ToString_m2613351884_gshared
fra:__ZN27UnloadUnusedAssetsOperationD0Ev
umb:__ZN6Camera15ThreadedCleanupEv
q_:__ZN9JSONWrite8TransferI8UnityStrEEvRT_PKc17TransferMetaFlags
XA:__ZN26AnimatorControllerPlayable6MemoryD2Ev
rVe:__ZN13RuntimeStaticINSt3__26vectorIjNS0_9allocatorIjEEEEE13StaticDestroyEPv
SDi:__ZL69ColorBlock_t2652774230_CustomAttributesCacheGenerator_m_DisabledColorP21CustomAttributesCache
agh:_CipherSuite_get_Code_m3902213587
esj:_Scrollbar__ctor_m2244981801
F5k:__ZN6il2cpp6icalls8mscorlib6System2IO6MonoIO9GetLengthE12Il2CppIntPtrPi
YFh:_ObjectRecord_get_HasPendingFixups_m670959802
F1h:_Dictionary_2_Resize_m2807616086_gshared
O0d:__ZN5physx10PxsCCDPair12updateShapesEv
SZe:_SHA256Managed_HashCore_m4111458495
DSf:_CultureInfo_get_CompareInfo_m3085280862
WFh:_ObjectManager_RecordDelayedFixup_m1895730844
Lrf:_ArrayTypeMismatchException__ctor_m1898555879
c2f:_List_1_System_Collections_IList_get_IsFixedSize_m3522184224_gshared
cM:__ZN9AudioClip23VirtualRedirectTransferER18StreamedBinaryReadILb0EE
vih:_ClientSessionInfo_CheckDisposed_m1394638186
$Hh:_SByte_Parse_m2544167007
NSa:__ZNSt3__26vectorIPN9ShaderLab9SubShaderENS_9allocatorIS3_EEE21__push_back_slow_pathIKS3_EEvRT_
kOf:_StackFrame_GetILOffset_m115192054
Ifb:__ZN24GenerateTypeTreeTransfer8TransferIN11AssetBundle9AssetInfoEEEvRT_PKc17TransferMetaFlags
dFd:__ZN5physx2Sc9ClothCore22removeCollisionCapsuleEj
oHh:_RuntimeTypeHandle_GetHashCode_m3697629454_AdjustorThunk
I1g:_BigInteger__ctor_m2945783161
kzb:__Z14resize_trimmedINSt3__26vectorIh13stl_allocatorIhL18MemLabelIdentifier14ELi16EEEEEvRT_j
Lji:__ZL96ProxyAttribute_t4031752430_CustomAttributesCacheGenerator_ProxyAttribute_IsContextOK_m2391079277P21CustomAttributesCache
PMg:_IndexOutOfRangeException__ctor_m3497760912
Djd:__ZN5physx16PxsIslandManager25setArticulationLinkHandleEjPvRKNS_20PxsIslandManagerHookIjLj4294967295EEE
mlg:_ReadOnlyCollection_1_CopyTo_m1652036789_gshared
$j:_glCopyTexSubImage2D
tCh:_RealProxy_InternalGetTransparentProxy_m3415358600
l6b:__ZNK24RendererAnimationBinding13GetFloatValueERKN11UnityEngine9Animation10BoundCurveE
zed:__ZN5physx2Sc10NPhaseCore39pool_deleteParticleElementRbElementPairEPNS0_35ParticleElementRbElementInteractionEjj
ONl:_glActiveTexture__wrapper
R8f:_Collection_1_Insert_m3594407958_gshared
uUa:_UNITY_png_write_zTXt
o0:__ZN18ScreenManagerWebGL13SetShowCursorEb
jgl:__ZN6il2cpp6icalls8mscorlib6System7Convert24InternalFromBase64StringEP12Il2CppStringb
PRa:__ZZ23InitPlayerLoopCallbacksvEN37EarlyUpdateProcessMouseInWindowstruct7ForwardEv
Wxj:_Text_get_preferredWidth_m3352156860
nLh:_AssemblyCompanyAttribute__ctor_m1217508649
COe:__ZN2UI13CanvasManager14GetRenderOrderEPKNS_6CanvasE
std:__ZN5physx6shdfnd5ArrayIPNS_3Scb5ShapeENS0_15InlineAllocatorILj16ENS0_19ReflectionAllocatorIS4_EEEEE15growAndPushBackERKS4_
eKb:__Z18Transfer_BlittableI14SafeBinaryReadLb0E5RectTIfEEvRK29SerializationCommandArgumentsR31RuntimeSerializationCommandInfo
kBa:__ZN9GfxDevice18InsertCustomMarkerEi
Ukg:_ReadOnlyCollection_1_System_Collections_Generic_IListU3CTU3E_RemoveAt_m878653284_gshared
iJg:_DateTimeFormatInfo_GetFormat_m3676195179
DCa:__ZN14GfxContextGLES14GetFramebufferEv
aLl:_emscripten_glGenVertexArrays__wrapper
m2b:__ZN11GameManager7PRODUCEE18MemLabelIdentifier18ObjectCreationMode
icj:__Z36RuntimeInvoker_HideFlags_t1434274199PK10MethodInfoPvPS2_
loa:__ZN6prcoreL21CreateRemapAnyBlitterE13TextureFormatS0_
Col:__ZN6il2cpp2os5Event4WaitEjb
Gcc:__ZN17AnimationCurveTplIfE16StripInvalidKeysEv
ahf:_Array_InternalArray__ICollection_Add_TisKeyValuePair_2_t3716250094_m2381539361_gshared
$8g:_X509Extension_WriteLine_m2850991173
uNe:__ZNK2UI6Canvas17GetSortingLayerIDEv
Fai:__ZL40UIntPtr_t_CustomAttributesCacheGeneratorP21CustomAttributesCache
KWc:__ZN14Raycast2DQuery8RunQueryEb
M7b:__Z13RegisterClassI17GlobalGameManagerEvv
SHi:__ZL70GridLayoutGroup_t1515633077_CustomAttributesCacheGenerator_m_StartAxisP21CustomAttributesCache
F6k:__ZNK15dense_hashtableI10KeyWrapperIP18Il2CppGenericClassES3_N6il2cpp8metadata22Il2CppGenericClassHashEN14dense_hash_setIS3_S6_NS5_25Il2CppGenericClassCompareENSt3__29allocatorIS3_EEE8IdentityES8_SB_E3endEv
fcf:_Array_InternalArray__ICollection_Remove_TisInt64_t909078037_m2653583130_gshared
bAj:_Thread_get_ExecutionContext_m922067206
tY:__ZN11UnityEngine15CloudWebService13WWWRestClient18GetEditableHeadersEv
fih:_RecordProtocol_get_Context_m2688493529
jma:__ZN4PPtrI7TextureE8TransferI14SafeBinaryReadEEvRT_
jce:__ZN5physx2Sc8ClothSim16addCollisionMeshEPKNS0_8ShapeSimE
kek:_SynchronizedClientContextSink__ctor_m978504596
Ktj:_ScrollRect_get_viewport_m3177057249
Zn:FUNCTION_TABLE_iiiiiiiiiiiiii
mhe:__ZN5physx6shdfnd5ArrayIPKNS_10PxsCCDBodyENS0_19ReflectionAllocatorIS4_EEE8recreateEj
FKa:__ZN14DrawBufferGLESI12VertexBuffer27VertexBufferUsageMapperGLESED2Ev
mtd:__ZN5physx6shdfnd4sortINS_2Cm19PreallocatingRegionENS0_4LessIS3_EENS0_19ReflectionAllocatorIS3_EEEEvPT_jRKT0_RKT1_j
tTe:__ZN19UnityConnectService18OnPlayerQuitStaticEPS_
xhj:__Z35RuntimeInvoker_ScaleMode_t987318053PK10MethodInfoPvPS2_
rDe:_UNITY_tt_get_cmap_info
J7e:_DecoderExceptionFallback_GetHashCode_m2972426052
r8a:__ZN16ReflectionProbes8ScheduleEN18ReflectionProbeJob7JobTypeEP15ReflectionProbei
$mf:_Array_swap_TisCustomAttributeTypedArgument_t1498197914_m885124357_gshared
heg:_Collection_1_IsFixedSize_m3675221982_gshared
mpi:__ZL77Convert_t2607082565_CustomAttributesCacheGenerator_Convert_ToSByte_m883113940P21CustomAttributesCache
mWf:_Enumerator_MoveNext_m3293920409_AdjustorThunk
T3a:__ZN14qsort_internal31_FindAndMovePivotToLastPositionIP16RenderObjectDatai26RenderDeferredObjectSorterEEvT_S4_T0_T1_
OLd:__ZN5physx19NpRigidBodyTemplateINS_14PxRigidDynamicEE20setRigidDynamicFlagsENS_7PxFlagsINS_15PxRigidBodyFlag4EnumEhEE
zQh:_GenericTypeParameterBuilder_get_DeclaringType_m1652924692
M7j:_Comparer_1__cctor_m3112251759_gshared
EGi:__ZL73ScrollRect_t1199013257_CustomAttributesCacheGenerator_m_VerticalScrollbarP21CustomAttributesCache
Bth:_X509KeyUsageExtension_ToString_m1992050580
bze:_UNITY_FT_GlyphLoader_Done
Kjg:_ReadOnlyCollection_1_System_Collections_Generic_ICollectionU3CTU3E_Add_m2975080319_gshared
obk:_ConstructionCall__ctor_m1143766850
WNi:_GUIStyleState_Init_m2434147050
N7j:_Comparer_1_System_Collections_IComparer_Compare_m3203078743_gshared
xKd:__ZN5physx22NpParticleBaseTemplateINS_16PxParticleSystemENS_16NpParticleSystemEE20setMaxMotionDistanceEf
ljh:_Context_get_RandomSC_m1687420621
Pgb:__ZN5Cache10AddToCacheERKNSt3__212basic_stringIcNS0_11char_traitsIcEENS0_9allocatorIcEEEEi
Uyi:__ZL67GUISkin_t1436893342_CustomAttributesCacheGenerator_m_verticalSliderP21CustomAttributesCache
O8a:__Z18SkinGenericMathLibILi2ELb1ELb0EEvR12SkinMeshInfo
v4d:__ZN5physx18ComputeSortedListsEPNS_2Cm10BitMapBaseINS_6shdfnd9AllocatorEEEjjPKjPPNS_8SapBox1DES7_PjSB_jRKNS_2Gu4AxesESB_RjSB_SG_RbSH_
fEe:_tt_cmap14_char_var_index
JMj:_Camera_INTERNAL_CALL_ScreenPointToRay_m2752248646
p8i:__Z77RuntimeInvoker_TimeSpan_t3430258949_TimeSpan_t3430258949_TimeSpan_t3430258949PK10MethodInfoPvPS2_
EFe:_psh_globals_new
uKa:__ZN13dynamic_arrayIN16GeometryJobTasks15GeometryJobTaskELj4EE18resize_initializedEjRKS1_12ResizePolicy
Mtg:_StandaloneInputModule_set_allowActivationOnMobileDevice_m2631121618
lGf:_Decimal_stripStyles_m294582157
qNj:_Canvas_remove_willRenderCanvases_m1070419298
qbj:__Z73RuntimeInvoker_Single_t2076509932_Vector3_t2243707580_Vector3_t2243707580PK10MethodInfoPvPS2_
eya:__ZN9GfxDevice20SetMaxBufferedFramesEi
K$f:_List_1_RemoveAll_m4125997475_gshared
NTc:__ZN10Collider2D19WakeAllBodyContactsEv
WQ:__ZN24AudioScriptBufferManagerD2Ev
CEl:dynCall_vdd
b_k:__ZN14dense_hash_mapI10KeyWrapperINSt3__24pairIPK11Il2CppImageP11Il2CppClassEEEj17ReflectionMapHashIS8_E19ReflectionMapEqualsIS8_ENS1_9allocatorINS2_IKS9_jEEEEE13set_empty_keyERSF_
gxc:__ZN8JSONRead21TransferSTLStyleArrayINSt3__26vectorINS1_12basic_stringIcNS1_11char_traitsIcEE13stl_allocatorIcL18MemLabelIdentifier1ELi16EEEES6_IS9_LS7_1ELi16EEEEEEvRT_S7_17TransferMetaFlags
ZNe:__ZN2UIL17UnloadAllCanvasesEv
wbg:_Collection_1_System_Collections_IList_Insert_m3083278457_gshared
jcb:__Z23ConvertIntegerToTypePtrIsEbPvR14SafeBinaryRead
xcj:__Z71RuntimeInvoker_Boolean_t3825574718_Int32_t2071877448_Single_t2076509932PK10MethodInfoPvPS2_
HRc:__ZN12b2MouseJoint11ShiftOriginERK6b2Vec2
BFh:_ObjectReader_ReadObjectGraph_m1994105549
M7h:_EqualityComparer_1__ctor_m99476293_gshared
Bod:__ZNK5physx14NpArticulation17releaseDriveCacheERNS_24PxArticulationDriveCacheE
hch:_BigInteger_Incr2_m505983313
sLj:_PCMReaderCallback_BeginInvoke_m3119095492
wxf:_ArrayList_get_Count_m523955479
Wjj:__Z85RuntimeInvoker_Int32_t2071877448_Vector3_t2243707580_Vector3_t2243707580_Il2CppObjectPK10MethodInfoPvPS2_
Yyf:_FixedSizeArrayListWrapper_Remove_m1359458911
toa:__ZN6prcoreL29inner_stretch_rgb565_bilinearEPKNS_9InnerInfoE
GEd:__ZNK5physx2Sc9ClothCore25getSelfCollisionStiffnessEv
mqg:_EventSystem_get_current_m319019811
ixj:_Text_get_mainTexture_m813502234
E8i:__Z47RuntimeInvoker_SecurityProtocolType_t3099771628PK10MethodInfoPvPS2_
X2a:__ZNK14RenderSettings19GetFlatAmbientColorEv
m8a:__ZN6prcoreL10inner_flipILj4EEEvPhS1_j
_Db:__ZN18StreamedBinaryReadILb0EE21TransferSTLStyleArrayI10vector_mapIPKN5Unity4TypeE7Hash128NSt3__24lessIS6_EENS8_9allocatorINS8_4pairIS6_S7_EEEEEEEvRT_17TransferMetaFlags
LB:__ZNK27StateMachineBehaviourPlayer15IsSenderEnabledEv
JBb:__Z19CalculateVertexSizejRK20VertexChannelsLayoutPj
QDk:_fadeOut_Start_m4201808879
D8f:_Collection_1_System_Collections_ICollection_get_IsSynchronized_m1924133708_gshared
a6e:_String_Concat_m56707527
Ooc:__Z40Register_UnityEngine_Transform_SetParentv
zLj:_AudioConfigurationChangeHandler_Invoke_m635374412
enh:_SslClientStream_get_HaveRemoteValidation2Callback_m3555576758
Uxb:__ZN14Texture2DArray17UploadToGfxDeviceEv
okg:_ReadOnlyCollection_1_System_Collections_Generic_IListU3CTU3E_Insert_m4216310986_gshared
ygg:_ReadOnlyCollection_1_System_Collections_Generic_IListU3CTU3E_set_Item_m1532495847_gshared
DH:__ZN15SerializeTraitsINSt3__24pairI8StateKey10StateRangeEEE8TransferI18StreamedBinaryReadILb1EEEEvRS4_RT_
RP:__Z14FMODMemoryFreePvjPKc
KYj:_InternalEnumerator_1_System_Collections_IEnumerator_Reset_m3731327620_AdjustorThunk
uub:__ZThn28_N8RendererD0Ev
wDe:_tt_cmap0_validate
LCi:__ZL104PointerEventData_t1599784723_CustomAttributesCacheGenerator_PointerEventData_get_worldNormal_m1704987468P21CustomAttributesCache
czk:_YieldInstruction_t3462875981_marshal_pinvoke_cleanup
l1e:_Evidence_get_IsSynchronized_m1427392003
XGe:_cf2_glyphpath_moveTo
sXi:_SharedBetweenAnimatorsAttribute__ctor_m1221241062
qWd:__ZN5physx3Scb4Body9syncStateEv
sUe:__ZN13RuntimeStaticI19UnityConnectServiceE16StaticInitializeEPv
avg:_AnimationTriggers_set_disabledTrigger_m609579531
dfi:__ZL47File_t1930543328_CustomAttributesCacheGeneratorP21CustomAttributesCache
bLf:_DateTimeOffset__ctor_m1796624924
NJi:_GUILayoutUtility_get_spaceStyle_m1918520192
c7d:__ZN5physx20SingleAABBUpdateTaskD0Ev
g_k:__ZN15dense_hashtableINSt3__24pairIK10KeyWrapperINS1_IPK11Il2CppImageP11Il2CppClassEEEjEES9_17ReflectionMapHashIS8_EN14dense_hash_mapIS9_jSD_19ReflectionMapEqualsIS8_ENS0_9allocatorISB_EEE9SelectKeyESG_SI_EC2EjRKSD_RKSG_RKSK_
Lsd:__ZN5physx12PxsRigidBody23updatePoseDependenciesVERNS_10PxsContextE
jqg:_BaseRaycaster_OnDisable_m1716508791
Xbf:_Array_InternalArray__ICollection_Remove_TisKeyValuePair_2_t3716250094_m2566517826_gshared
fdh:_ASN1Convert_ToInt32_m2121135414
L2j:_InternalEnumerator_1_MoveNext_m1741571735_gshared
Ske:__ZN5physx2Gu12TriangleMesh4loadERNS_13PxInputStreamE
Rai:__ZL82Enum_t2459695545_CustomAttributesCacheGenerator_Enum_GetUnderlyingType_m3513899012P21CustomAttributesCache
Kjl:_GC_is_heap_ptr
ibg:_Collection_1_IsValidItem_m429993695_gshared
k3k:__GLOBAL__sub_I_Assembly_cpp
Nkh:_TlsServerSettings_set_CertificateRequest_m3419519893
Pqa:__Z21PlayerStartFirstSceneb
wE:__ZN7mecanim5human10RetargetToEPKNS0_5HumanEPKNS0_9HumanPoseES6_RKN4math4trsXEPS4_PNS_8skeleton13SkeletonPoseTIS8_EESF_
Uy:__ZN7mecanim9animation8SeekClipERKNS0_12StreamedClipERNS0_18StreamedClipMemoryEf
QEj:_Type_get_IsGenericParameter_m161434704
cRh:_MethodBuilder_get_Attributes_m3678061338
Hm:_emscripten_glIsTexture
eu:__ZN24CompressedAnimationCurveaSERKS_
Dyf:_ArrayListWrapper_CopyTo_m793444109
Api:__ZL79Convert_t2607082565_CustomAttributesCacheGenerator_Convert_ToUInt16_m3265369225P21CustomAttributesCache
ml:_emscripten_glHint
PFk:__ZL24UnresolvedVirtualCall_73P12Il2CppObjectPK10MethodInfo
jKe:_ft_var_readpackeddeltas
d8:__ZN6Object15ClassIDToStringEi
uKf:_DateTime_AddMilliseconds_m1813199744_AdjustorThunk
HHh:_SByte_System_IConvertible_ToSByte_m108774324_AdjustorThunk
gRh:_MethodBuilder_GetParameterCount_m467267889
rLj:_DelegatePInvokeWrapper_PCMReaderCallback_t3007145346
ySh:_TypeBuilder_IsValueTypeImpl_m1499671481
VAg:_FontData_get_lineSpacing_m4145828566
HBf:_Hashtable_get_IsSynchronized_m836780937
Wwh:_X509ChainStatus_t4278378721_marshal_pinvoke
Ueh:_RSAManaged__ctor_m1680944437
Km:_SDL_UpperBlit
Vge:__ZN5physx2Cm12DelegateTaskINS_2Sc5SceneEXadL_ZNS3_13ccdBroadPhaseEPNS_10PxBaseTaskEEEED0Ev
VMi:_GUIStyle_op_Implicit_m781448948
E3a:__Z35GetTextureDecodeValuesWithIntensity16TextureUsageMode17TextureColorSpace10ColorSpacef
zvf:_Byte_GetHashCode_m2885528842_AdjustorThunk
uAd:__ZNK5physx7NpShape16getContactOffsetEv
q6d:__ZN5physx14PxsAABBManager21processAggregatePairsEPKNS_19AggregateSortedDataE
W0h:_Dictionary_2_OnDeserialization_m2092139626_gshared
CRc:__ZNK12b2MouseJoint10GetAnchorAEv
$te:_PxCreateCooking
zwl:__ZNKSt3__28time_getIwNS_19istreambuf_iteratorIwNS_11char_traitsIwEEEEE16do_get_monthnameES4_S4_RNS_8ios_baseERjP2tm
xJb:__ZN14SafeBinaryRead20OverrideRootTypeNameEPKc
QCb:__ZN9InputAxis7SetNameERKNSt3__212basic_stringIcNS0_11char_traitsIcEENS0_9allocatorIcEEEE
Aaa:__ZN14FileCacherRead16UnlockCacheBlockEj
PHj:_UIntPtr_get_Size_m537421489
c8g:_X509Certificate_GetUnsignedBigInteger_m3491353542
Hvd:__ZNK5physx12NpBatchQuery23getFilterShaderDataSizeEv
mOb:__Z18Transfer_BlittableI17RemapPPtrTransferLb1E8Vector3fEvRK29SerializationCommandArgumentsR31RuntimeSerializationCommandInfo
$fi:__ZL57StackBehaviour_t1390406961_CustomAttributesCacheGeneratorP21CustomAttributesCache
id:_emscripten_glUniform1f
dse:__ZN5physx7profile11EventBufferINS_24PxDefaultContextProviderENS_6shdfnd6MutexTINS0_26WrapperReflectionAllocatorIhEEEENS0_14ScopedLockImplIS7_EENS_24PxProfileNullEventFilterEE10doAddEventINS0_17RelativeStopEventEEEvhtRKT_
yze:__Z20ParseImageParametersR11UTF16StringRiRN20TextRenderingPrivate16TextFormatChangeE
nd:_emscripten_glUniform1i
g1j:_InternalEnumerator_1_System_Collections_IEnumerator_Reset_m651165750_AdjustorThunk
qJb:__ZN13MonoBehaviour9CallAwakeEv
Wfe:__ZN5physx2Sc19ShapeInstancePairLL23postIslandGenSecondPassEv
tad:__ZN5physx3Cct26CharacterControllerManager16createControllerERKNS_16PxControllerDescE
G1i:__Z66RuntimeInvoker_Void_t1841601450_Int32_t2071877448_SByte_t454417549PK10MethodInfoPvPS2_
FZb:__ZN9ShaderLab16SerializedTagMapaSERKS0_
V1i:__Z75RuntimeInvoker_Void_t1841601450_Il2CppObject_Int32_t2071877448_Il2CppObjectPK10MethodInfoPvPS2_
fdf:_SetPropertyUtility_SetStruct_TisFillMethod_t1640962579_m1867757822_gshared
jte:__ZN5physx26PxPhysicsInsertionCallbackD2Ev
Cfc:__ZN8Material28ApplyMaterialPropertyDrawersEv
F$d:__ZN5physx2Sq16BucketPrunerCore12updateObjectERKNS_9PxBounds3ERKNS0_13PrunerPayloadE
hfe:__ZN5physx18PxsDynamicsContext23atomIntegrationParallelEfPKPNS_11PxsBodyCoreEPKPNS_12PxsRigidBodyEjPKNS_2Cm13SpatialVectorEPNS_13PxcSolverBodyEPNS_17PxcSolverBodyDataEPSA_RjSI_RNS_10PxBaseTaskE
xZj:_InternalEnumerator_1_System_Collections_IEnumerator_get_Current_m3680087284_gshared
lF:__ZN11UnityEngine9Animation27CreateAvatarBindingConstantER9TransformPKN7mecanim9animation14AvatarConstantERNS3_6memory9AllocatorE
VFb:__ZN14SafeBinaryRead21TransferSTLStyleArrayINSt3__26vectorIN30RuntimeInitializeOnLoadManager9ClassInfoE13stl_allocatorIS4_L18MemLabelIdentifier12ELi16EEEEEEvRT_17TransferMetaFlags
yIj:_UnitySerializationHolder_GetObjectData_m2280028722
ehk:_PatternCompiler_EmitFalse_m1188949782
_Gj:_UInt64_System_IConvertible_ToDateTime_m2412118561
pfc:__ZN9BlobWriteC2ER13dynamic_arrayIhLj16EE24TransferInstructionFlags19BuildTargetPlatform
HVk:__ZNK15dense_hashtableINSt3__24pairIK10KeyWrapperINS1_IPK9FieldInfoP11Il2CppClassEEEjEES9_17ReflectionMapHashIS8_EN14dense_hash_mapIS9_jSD_19ReflectionMapEqualsIS8_ENS0_9allocatorISB_EEE9SelectKeyESG_SI_E13find_positionERSA_
W8:__ZN14MessageHandler3GetEv
mLi:_GUISkin_set_verticalScrollbarThumb_m2647835739
Ad:_emscripten_glAttachShader
Dig:_ReadOnlyCollection_1__ctor_m1539890895_gshared
dya:__ZN9GfxDevice13SetActiveTierE12GraphicsTier
NUf:_Enumerator_System_Collections_IEnumerator_get_Current_m3079057684_AdjustorThunk
Ukc:__Z46Register_UnityEngine_Mesh_ExtractArrayFromListv
R4g:_KeyPairPersistence_get_UserPath_m3433052783
K8c:__ZN5physx2Gu19GetRaycastFuncTableEv
kag:_Collection_1_ClearItems_m1410275009_gshared
Y1k:__ZNK15dense_hashtableINSt3__24pairIK10KeyWrapperIP11Il2CppClassES4_EES5_N6il2cpp8metadata16SZArrayClassHashEN14dense_hash_mapIS5_S4_SA_NS9_19SZArrayClassCompareENS0_9allocatorIS7_EEE9SelectKeyESC_SE_E10test_emptyEj
dai:__ZL58Decimal_t724701077_CustomAttributesCacheGenerator_MinusOneP21CustomAttributesCache
jef:_Array_InternalArray__IEnumerable_GetEnumerator_TisKeyframe_t1449471340_m3949799719_gshared
fKb:__Z18Transfer_BlittableI14SafeBinaryReadLb0E11QuaternionfEvRK29SerializationCommandArgumentsR31RuntimeSerializationCommandInfo
G_:__ZNK13EmscriptenWWW6GetUrlEv
XTc:__ZN13BoxCollider2D16CheckConsistencyEv
Ofe:__ZN5physx17EdgeChangeManager23cleanupBrokenEdgeEventsEPKNS_4EdgeE
Rsd:__ZN5physx17PxsContactManager16resetCachedStateEv
DFg:_InputField_get_inputType_m2187991661
E$:_tlsf_walk_heap
B7g:_PKCS12_Decode_m731190390
vRk:__ZN6il2cpp2vm7Runtime6InvokeEPK10MethodInfoPvPS5_PP15Il2CppException
o2j:_InternalEnumerator_1_get_Current_m1550231132_gshared
Yjk:_Reference_get_IgnoreCase_m2810892634
WGg:_InputField_ForceLabelUpdate_m1432314039
tb:invoke_vif
dzb:__ZN14VertexDataInfo13UpdateStreamsEjjjRK19VertexStreamsLayoutRK20VertexChannelsLayout
ub:invoke_vid
Emi:__ZL67UnverifiableCodeAttribute_t765455733_CustomAttributesCacheGeneratorP21CustomAttributesCache
vb:invoke_vii
u_j:_InternalEnumerator_1_get_Current_m3444791149_gshared
Jui:__ZL86Component_t3819376471_CustomAttributesCacheGenerator_Component_SendMessage_m3615678587P21CustomAttributesCache
IUd:__ZN5physx13NpVolumeCacheD2Ev
HGi:__ZL82ScrollRect_t1199013257_CustomAttributesCacheGenerator_m_HorizontalScrollbarSpacingP21CustomAttributesCache
rNg:_Int16_System_IConvertible_ToUInt32_m883204517_AdjustorThunk
Tdb:__ZN12TLSAllocatorI14StackAllocatorE16ThreadInitializeEP13BaseAllocator
_xf:_ArrayList_Sort_m2778059513
gYc:__ZN17Physics2DSettings23VirtualRedirectTransferER18StreamedBinaryReadILb1EE
UNk:__ZN15dense_hashtableINSt3__24pairIK10KeyWrapperI13dynamic_arrayIPK10Il2CppTypeLj4EEEPFvvEEES8_N6il2cpp8metadata19Il2CppSignatureHashEN14dense_hash_mapIS8_SB_SF_NSE_22Il2CppSignatureCompareENS0_9allocatorISC_EEE9SelectKeyESH_SJ_E5clearEv
oAi:__ZL107StackTraceUtility_t1881293839_CustomAttributesCacheGenerator_StackTraceUtility_SetProjectFolder_m2154926761P21CustomAttributesCache
Jce:__ZThn8_N5physx2Sc35ParticleElementRbElementInteraction12onDeactivateEj
bDg:_LayoutGroup_SetChildAlongAxis_m2732017156
tPe:__Z41CanvasRenderer_CUSTOM_DisableRectClippingP12Il2CppObject
Kdh:_MD2_Create_m539024737
eDf:_SortedList_get_SyncRoot_m3299704254
Fpb:__ZNK14DirectorPlayer7GetTimeEv
A2d:__ZN5physx16PxsThreadContextC2EPNS_10PxsContextE
GDf:_Slot_t2267560602_marshal_pinvoke
O6i:__Z51RuntimeInvoker_UInt16_t986882611_Single_t2076509932PK10MethodInfoPvPS2_
gNh:_TypeBuilder_get_Module_m1668298460
SAh:_SoapAttribute_get_XmlNamespace_m1436066016
TPa:__ZN25SingleBlockMemoryFileDataD0Ev
wfb:__ZNSt3__26vectorI14ConstantStringNS_9allocatorIS1_EEE6assignINS_11__wrap_iterIPS1_EEEENS_9enable_ifIXaasr21__is_forward_iteratorIT_EE5valuesr16is_constructibleIS1_NS_15iterator_traitsISA_E9referenceEEE5valueEvE4typeESA_SA_
b$c:__ZN5physx3Cct10Controller4moveERNS0_11SweptVolumeERKNS_6PxVec3EffRKNS_19PxControllerFiltersEPKNS_17PxObstacleContextEb
$Ld:__ZN5physx14NpRigidDynamic17setAngularDampingEf
fNb:__ZNSt3__26vectorI8GUIStyle13stl_allocatorIS1_L18MemLabelIdentifier1ELi16EEE7reserveEj
g3k:__ZN6il2cpp6icalls8mscorlib6System9Threading6Thread27GetSerializedCurrentCultureEP12Il2CppThread
nPk:__ZN6il2cpp2vm13MetadataCache14AddPointerTypeEP11Il2CppClassS3_
ogf:_Array_InternalArray__IndexOf_TisUInt32_t2149682021_m3231515987_gshared
pHk:__ZL25UnresolvedVirtualCall_155P12Il2CppObject23RaycastResult_t21186376S1_PK10MethodInfo
ZAk:_ListPool_1__cctor_m709904475_gshared
xbj:__Z83RuntimeInvoker_Void_t1841601450_QuaternionU26_t4187826802_QuaternionU26_t4187826802PK10MethodInfoPvPS2_
I2b:__Z13RegisterClassI11TimeManagerEvv
HP:__ZN4FMOD8ChannelI11setPositionEjj
sX:__ZN11UnityEngine15CloudWebService16SessionContainer27GetDeleteErrorJsonDataBlockERK8UnityStrS4_RS2_
oVc:__ZN10Collider2D12SetPolygon2DEP9Polygon2D
pVf:_Enumerator_VerifyState_m4188527104_gshared
wHi:__ZL75ToggleGroup_t1030026315_CustomAttributesCacheGenerator_U3CU3Ef__amU24cache1P21CustomAttributesCache
jld:__ZN5physx6shdfnd8PoolBaseINS_2Sc12SimStateDataENS0_19ReflectionAllocatorIS3_EEE17releaseEmptySlabsEv
lea:__ZN17BaseObjectManager13StaticDestroyEPv
mcj:__Z70RuntimeInvoker_Void_t1841601450_Playable_t3667545548_Int32_t2071877448PK10MethodInfoPvPS2_
Tuk:_TextGenerationSettings_CompareVector2_m592645251
pAi:__ZL108StackTraceUtility_t1881293839_CustomAttributesCacheGenerator_StackTraceUtility_ExtractStackTrace_m1593581205P21CustomAttributesCache
C8b:__ZN18PlayableController18DoesPlayableExistsEPK8Playable
ELf:_DBNull_System_IConvertible_ToChar_m3344298044
S2c:__ZN5physx2Gu22closestPtPointTriangleEPNS_6shdfnd3aos5Vec3VES4_S4_Rj
Q8g:_X509Certificate_GetObjectData_m3888130484
rFb:__ZNSt3__26vectorIN15ResourceManager10DependencyE13stl_allocatorIS2_L18MemLabelIdentifier51ELi16EEEC2INS_11__wrap_iterIPS2_EEEET_SB_RKS5_PNS_9enable_ifIXaasr21__is_forward_iteratorISB_EE5valuesr16is_constructibleIS2_NS_15iterator_traitsISB_E9referenceEEE5valueEvE4typeE
jbj:__Z45RuntimeInvoker_IMECompositionMode_t1898275508PK10MethodInfoPvPS2_
evd:__ZN5physx2Cm8PtrTableC2Ev
AQj:_CustomYieldInstruction_Reset_m3409422382
tgk:_LinkStack_Push_m2660199875
BO:__ZN4FMOD6Reverb13setPropertiesEPK22FMOD_REVERB_PROPERTIES
UGd:__ZNK5physx22NpParticleBaseTemplateINS_15PxParticleFluidENS_15NpParticleFluidEE14getRestitutionEv
j$a:__ZN9DepthPass13PrepareSubsetEjRK10RenderNodeifRK17ShaderReplaceData
K5d:__ZN5physx16PxsBroadPhaseMBP6updateEjjRKNS_23PxcBroadPhaseUpdateDataEPNS_10PxBaseTaskE
Vyd:__ZN5physx9NpPhysics18createRigidDynamicERKNS_11PxTransformE
aKa:__Z17TransformVerticesPhRK10Matrix4x4fRK16VertexBufferDatajjj25GfxTransformVerticesFlags
Fnk:_X509CertificateCollection_Add_m4008705157
fAh:_MonoMethodMessage_set_Uri_m3218581120
ldc:__Z18ExtractTagThrowingR11ICallString
Zma:__ZN4PPtrI6ShaderE8TransferI19StreamedBinaryWriteILb0EEEEvRT_
Dag:_Collection_1_IsFixedSize_m1816795498_gshared
WRa:__ZZ23InitPlayerLoopCallbacksvEN40EarlyUpdatePlayerCleanupCachedDatastruct7ForwardEv
k6c:__ZN5physx2Gu17intersectRayAABB2ERKNS_6shdfnd3aos5Vec3VES5_S5_S5_RKNS2_6FloatVERS6_S9_
HPe:__Z34CanvasRenderer_Get_Custom_PropCullP12Il2CppObject
bAd:__ZNK5physx7NpShape17getSphereGeometryERNS_16PxSphereGeometryE
m8c:__ZL18intersectAnyVsMeshILi1EEbPKN5physx2Gu6SphereEPKNS1_7CapsuleEPKNS1_3BoxERKNS1_13RTreeMidphaseERKNS0_11PxTransformERKNS0_11PxMeshScaleEP14LimitedResults
YFb:__Z14resize_trimmedINSt3__26vectorIi13stl_allocatorIiL18MemLabelIdentifier12ELi16EEEEEvRT_j
wtg:_MouseButtonEventData_ReleasedThisFrame_m482758300
rjd:__ZN5physx6shdfnd5ArrayIPvNS0_15InlineAllocatorILj256ENS0_19ReflectionAllocatorINS_2Cm5BlockIhLj128EEEEEEEE15growAndPushBackERKS2_
bzf:_ReadOnlyArrayListWrapper_set_Item_m2199017141
b6a:__ZN6Camera6SetFarEf
Ank:_DeriveBytes_DeriveIV_m3343375195
P$e:_X509Certificate_ToString_m1582581274
kYe:_RNGCryptoServiceProvider_GetBytes_m167497991
_oa:__ZN6prcoreL12RemapGenericI17TexFormatABGR888817TexFormatARGB8888EEvPKNS_9InnerInfoE
qjb:__ZN11GameManager17MainThreadCleanupEv
tSk:__ZN6il2cpp6icalls8mscorlib6System18CollectTypeMethodsINS_5utils10functional6FilterINSt3__212basic_stringIcNS7_11char_traitsIcEENS7_9allocatorIcEEEENS4_11StringUtils23CaseInsensitiveComparerEEEEEvP11Il2CppClassPKSH_jRKT_RNS7_6vectorIPK10MethodInfoNSB_ISR_EEEERA65535_b
AOh:_TypeBuilder_get_Assembly_m492491492
ldg:_Collection_1_InsertItem_m1225429801_gshared
gUc:__ZN10Collider2D12AddToManagerEv
p_:__ZN11UnityEngine15CloudWebService17CloudServiceEvent12ToJsonStringER8UnityStrjPKc
FCd:__ZNK5physx7NpCloth24getParticleAccelerationsEPNS_6PxVec4E
YIe:_UNITY_tt_slot_init
QVe:_HMACSHA512__cctor_m1167457383
gzc:__ZL22Transfer_ManagedObjectI9JSONWriteLb1EEvRK29SerializationCommandArgumentsR31RuntimeSerializationCommandInfo
xza:__ZN9GfxDevice20DestroyRenderSurfaceER12ObjectHandleI17RenderSurface_TagP17RenderSurfaceBaseE
Ell:__ZNSt3__26__treeINS_12__value_typeINS_12basic_stringIcNS_11char_traitsIcEENS_9allocatorIcEEEEPFvvEEENS_19__map_value_compareIS7_SA_NS_4lessIS7_EELb1EEENS5_ISA_EEE25__emplace_unique_key_argsIS7_JRKNS_21piecewise_construct_tENS_5tupleIJOS7_EEENSL_IJEEEEEENS_4pairINS_15__tree_iteratorISA_PNS_11__tree_nodeISA_PvEEiEEbEERKT_DpOT0_
u4b:__ZL24PrepareSpriteRenderNodesILb1EEvR35RenderNodeQueuePrepareThreadContext
UMa:__ZN9GfxDevice22UpdateComputeResourcesEjPK9TextureIDPK16TextureDimensionPKijPKjjPK15ComputeBufferIDS7_PK20ComputeBufferCounterjSC_S2_S5_S9_SF_
qyb:__ZN12_GLOBAL__N_15qAsinEff
xnf:_Dictionary_2_Do_ICollectionCopyTo_TisKeyValuePair_2_t3749587448_m2536766696_gshared
Udb:__ZN12TLSAllocatorI14StackAllocatorE13ThreadCleanupEv
dU:__Z18GetAudioManagerPtrv
pwl:__ZNKSt3__28time_getIcNS_19istreambuf_iteratorIcNS_11char_traitsIcEEEEE10__get_yearERiRS4_S4_RjRKNS_5ctypeIcEE
G9i:__Z67RuntimeInvoker_Void_t1841601450_Int16_t4041245914_Int16_t4041245914PK10MethodInfoPvPS2_
azb:__ZN4Mesh27SwizzleVertexColorsIfNeededEb
Xeb:__Z27FindActiveTransformWithPathPKc
U1i:__Z63RuntimeInvoker_DSAParameters_t1872138834_BooleanU26_t3168250738PK10MethodInfoPvPS2_
yNj:_CanvasGroup_get_alpha_m1304564441
uQd:__ZN5physx16PxsIslandManager14setEdgeRigidCMERKNS_20PxsIslandManagerHookIjLj4294967295EEEPNS_17PxsContactManagerE
glb:__ZN12BaseRendererD0Ev
acb:__Z29StdTemplateConversionFunctionIbyEbPvR14SafeBinaryRead
C3h:_DefaultComparer__ctor_m899694595_gshared
j8i:__Z56RuntimeInvoker_TimeSpan_t3430258949_TimeSpan_t3430258949PK10MethodInfoPvPS2_
mod:__ZN5physx14NpArticulation25setStabilizationThresholdEf
RMf:_Decimal_Floor_m1662853963
jke:__ZN5physx2Gu11HeightField7releaseEv
D_b:__ZN24GenerateTypeTreeTransfer21TransferSTLStyleArrayINSt3__26vectorIN9ShaderLab20SerializedSubProgram14ConstantBufferENS1_9allocatorIS5_EEEEEEvRT_17TransferMetaFlags
SWa:__ZNK6Camera7GetNearEv
aEa:__ZN7ApiGLES11UnmapBufferEjN2gl12BufferTargetE
kOk:__ZN14dense_hash_mapI10KeyWrapperI13dynamic_arrayIPK10Il2CppTypeLj4EEEPFvvEN6il2cpp8metadata19Il2CppSignatureHashENSA_22Il2CppSignatureCompareENSt3__29allocatorINSD_4pairIKS6_S8_EEEEE13set_empty_keyERSG_
Grb:__Z25GetNextAllowedTextureSizeib13TextureFormat
s1:__ZN20LocalFileSystemWebGL4CopyER13FileEntryDataS1_
A1f:_List_1_CheckIndex_m4231572822_gshared
fZ:__ZN19CloudServiceHandler6RetainEv
Wnl:__ZN6il2cpp2os9Semaphore4WaitEb
gRc:__ZN15b2FrictionJointD0Ev
Y1e:_StrongName_Equals_m67226644
olb:__ZN12BaseRenderer20FlattenToRenderQueueER15RenderNodeQueueRK20DeprecatedSourceData
FPh:_FieldBuilder_get_Attributes_m2174064290
kce:__ZN5physx2Sc8ClothSim23addCollisionHeightfieldEPKNS0_8ShapeSimE
oDb:__ZN11TimeManager23VirtualRedirectTransferER18StreamedBinaryReadILb1EE
Jra:__Z34scripting_liveness_calculation_endPv
bel:__ZN6il2cpp2os6ThreadC2Ev
M2e:_SecurityFrame_InitFromRuntimeFrame_m45195821
yfi:__ZL53TextReader_t1561828458_CustomAttributesCacheGeneratorP21CustomAttributesCache
Gvh:_X509Chain_IsSignedWith_m292245392
acf:_Array_InternalArray__ICollection_Remove_TisDateTime_t693205669_m1275668216_gshared
n7b:__ZZN6Camera15InitializeClassEvEN31FunctorImpl_99kTransformChanged4CallEPviR11MessageData
Hig:_ReadOnlyCollection_1_System_Collections_Generic_ICollectionU3CTU3E_Remove_m3751131234_gshared
avc:__Z18Transfer_BlittableI8JSONReadLb0E8Vector3fEvRK29SerializationCommandArgumentsR31RuntimeSerializationCommandInfo
Dt:__ZN13AnimationClip12Vector3Curve8TransferI14SafeBinaryReadEEvRT_
Jbk:_ChannelServices__cctor_m3534779830
n$k:__ZN6il2cpp2vm6Thread6DetachEP12Il2CppThread
OEe:_Render_Single_Pass
iMb:__ZNSt3__26vectorINS_12basic_stringIcNS_11char_traitsIcEE13stl_allocatorIcL18MemLabelIdentifier1ELi16EEEES4_IS7_LS5_1ELi16EEE8__appendEj
oC:__ZN11UnityEngine9Animation31CreateControllerBindingConstantEPKN7mecanim9animation18ControllerConstantEPKNS2_12AnimationSetEPNS1_18ValueArrayConstantEjPKNS2_14AvatarConstantERNS1_6memory9AllocatorE
BFk:__ZL24UnresolvedVirtualCall_59P12Il2CppObjectS0_aPK10MethodInfo
pBk:_EqualityComparer_1__cctor_m2666196678_gshared
CTk:_il2cpp_class_get_name
QJi:_GUIStyle_Init_m3872198731
qF:__ZN7mecanim8skeleton30SkeletonBuildReverseIndexArrayEPiPKiPKNS0_8SkeletonES6_
Xbl:__ZN6il2cpp2os10ThreadImpl5SleepEjb
Y4d:__ZN5physx14SapPairManager12shrinkMemoryEv
Zpk:_X509ExtensionCollection_System_Collections_IEnumerable_GetEnumerator_m2600902401
Xdg:_Collection_1_InsertItem_m1073626529_gshared
uHb:__ZN15FileSystemEntry4MoveERS_23FileSystemCopyMoveFlags
gG:__ZN18AnimatorController23VirtualRedirectTransferER24GenerateTypeTreeTransfer
k2h:_Dictionary_2_System_Collections_Generic_IEnumerableU3CSystem_Collections_Generic_KeyValuePairU3CTKeyU2CTValueU3EU3E_GetEnumerator_m3968773920_gshared
tph:_ListDictionary_FindEntry_m432748847
BKl:_glBindSampler__wrapper
Atk:_UnityAction_1_Invoke_m3523417209_gshared
hg:_emscripten_set_mouseup_callback
XXb:__Z14resize_trimmedINSt3__26vectorIN9ShaderLab14SerializedPassENS0_9allocatorIS3_EEEEEvRT_j
HMa:__ZN9GfxDevice27SetRandomWriteTargetTextureEi9TextureID
xUj:_CustomAnimationPlayable_get_time_m2832957799
v6i:__Z48RuntimeInvoker_Int64_t909078037_SByte_t454417549PK10MethodInfoPvPS2_
q6g:_PrivateKeyInfo_Normalize_m3959595934
gTd:__ZN5physx7NpScene22removeBroadPhaseRegionEj
rgd:__ZL34GeomOverlapCallback_CapsuleCapsuleRKN5physx10PxGeometryERKNS_11PxTransformES2_S5_PNS_2Gu12TriggerCacheE
z0:__ZNK18ScreenManagerWebGL8GetWidthEv
oSd:__ZNK5physx7NpScene23getFilterShaderDataSizeEv
lBg:_Graphic_get_rectTransform_m2697395074
WPk:__ZN6il2cpp2vm13MetadataCache33GetFieldDefaultValueDataFromIndexEi
KCg:_GridLayoutGroup_set_startAxis_m1635162426
IL:__ZN10SampleClipD2Ev
pek:_SynchronizationAttribute_EnterContext_m2984912761
abi:__ZL73Enum_t2459695545_CustomAttributesCacheGenerator_Enum_ToObject_m2601523252P21CustomAttributesCache
PSf:_CultureInfo_construct_internal_locale_from_name_m971766383
Rek:__ZN16VirtFuncInvoker0IP21WaitHandle_t677569169E6InvokeEjPv
Wbl:__ZN6il2cpp2os10ThreadImpl13SetWaitObjectEPNS0_5posix15PosixWaitObjectE
Bvf:_Byte_Equals_m368616327_AdjustorThunk
Rhf:_Array_InternalArray__ICollection_Add_TisUIVertex_t1204258818_m3869382594_gshared
sIe:_cff_cmap_unicode_init
_Pf:_Enum_ToObject_m2460371738
F2g:_PrimalityTests_Test_m1088386156
Daa:__ZN14FileCacherRead13GetFileLengthEv
Trc:__Z36Event_CUSTOM_Internal_SetNativeEvent13Il2Cpp_IntPtr
wrl:_readlink
Rik:_ExpressionAssertion__ctor_m2408911632
Xlf:_Array_Resize_TisVector3_t2243707580_m893658391_gshared
F_j:_InternalEnumerator_1_System_Collections_IEnumerator_get_Current_m4259662004_AdjustorThunk
spf:_Array_InternalArray__get_Item_TisKeyframe_t1449471340_m1003508933_gshared
Tml:__ZN6il2cpp8metadata14Il2CppTypeHash4HashEPK10Il2CppType
v7g:_StrongName_get_PublicKeyToken_m1968460885
Cwb:__ZNK6Sprite9GetBoundsE8Vector2fbb
$cj:__Z87RuntimeInvoker_Boolean_t3825574718_Ray_t2469606224_Single_t2076509932_Int32_t2071877448PK10MethodInfoPvPS2_
aH:__ZN7mecanim12statemachine13StateConstant8TransferI14SafeBinaryReadEEvRT_
FCa:__ZN11ContextGLES6CreateEi
M7c:__ZN5physx6shdfnd5ArrayINS_10PxTriangleENS0_19ReflectionAllocatorIS2_EEE15growAndPushBackERKS2_
NQg:_BinaryReader_Dispose_m4249456877
Ppk:_X509CrlEntry_get_Extensions_m1330698752
iGf:_Double_ToString_m1085043609
ODk:_explode_explodeNow_m1749323129
VTb:__Z19TransferField_ArrayI18StreamedBinaryReadILb0EE27Converter_SimpleNativeClassI17AnimationCurveTplIfEEEvRK23StaticTransferFieldInfoR31RuntimeSerializationCommandInfoRT0_
ngh:_CipherSuite_createEncryptionCipher_m1926075645
dhc:__Z48Camera_CUSTOM_INTERNAL_CALL_ViewportToWorldPointP12Il2CppObjectRK8Vector3fRS1_
Fdb:__ZN14StackAllocator16FrameMaintenanceEb
c3c:__ZL11SweepBoxBoxPKN5physx3Cct9SweepTestEPKNS0_11SweptVolumeEPKNS0_11TouchedGeomERKNS_14PxExtendedVec3ERKNS_6PxVec3ERNS0_12SweptContactE
$Mk:__ZNK15dense_hashtableI10KeyWrapperIPK19Il2CppGenericMethodES4_N6il2cpp8metadata23Il2CppGenericMethodHashEN14dense_hash_setIS4_S7_NS6_26Il2CppGenericMethodCompareENSt3__29allocatorIS4_EEE8IdentityES9_SC_E5beginEv
j5:__ZNK10GameObject20QueryComponentByTypeEPKN5Unity4TypeE
bWf:_Enumerator_MoveNext_m1367380970_AdjustorThunk
XRh:_OpCode_GetHashCode_m2974727122
unb:__ZN16GraphicsSettings8TransferI18StreamedBinaryReadILb1EEEEvRT_
ogh:_CipherSuite_createDecryptionCipher_m1118350455
EV:__Z49Register_UnityEngine_AudioSource_set_spatialBlendv
Fye:__ZN20TextRenderingPrivate12GetFontPathsERNSt3__26vectorINS0_12basic_stringIcNS0_11char_traitsIcEENS0_9allocatorIcEEEENS5_IS7_EEEE
yhk:_PatternCompiler_EmitReference_m1381860071
TOf:_Double_System_IConvertible_ToInt16_m4200640326
gjc:__Z53Register_UnityEngine_GameObject_get_activeInHierarchyv
HQh:_GenericTypeParameterBuilder_get_IsGenericType_m1883522222
Ibj:__Z90RuntimeInvoker_Single_t2076509932_Single_t2076509932_Single_t2076509932_Single_t2076509932PK10MethodInfoPvPS2_
H6:__ZL30InitializeCoreScriptingClassesv
Scj:__Z49RuntimeInvoker_Void_t1841601450_Scene_t1684909666PK10MethodInfoPvPS2_
feg:_Collection_1_CheckWritable_m3938993573_gshared
dh:_glBlitFramebuffer
SQa:__ZN17ArchiveFileSystem5TouchER13FileEntryData
lYd:__ZNK5physx2Sc5Scene17prefetchForRemoveERKNS0_10StaticCoreE
Xkh:_SecurityParameters_set_Cipher_m3888132335
N2g:_BigInteger_GeneratePseudoPrime_m2606361440
HKg:_DateTimeFormatInfo_get_ShortTimePattern_m20923983
HKb:__Z35Transfer_Blittable_SingleValueFieldI14SafeBinaryReadhEvRT_R17GeneralMonoObjectRK23StaticTransferFieldInfo
OFi:__ZL140U3CMouseDragOutsideRectU3Ec__Iterator1_t2599668326_CustomAttributesCacheGenerator_U3CMouseDragOutsideRectU3Ec__Iterator1_Dispose_m2134284531P21CustomAttributesCache
Wmj:__Z57RuntimeInvoker_ContactPoint_t1376425630_Int32_t2071877448PK10MethodInfoPvPS2_
JGd:__ZN5physx22NpParticleBaseTemplateINS_15PxParticleFluidENS_15NpParticleFluidEE13setVelocitiesEjRKNS_16PxStrideIteratorIKjEERKNS4_IKNS_6PxVec3EEE
w2i:__Z129RuntimeInvoker_Int32_t2071877448_Il2CppObject_Int32_t2071877448_Int32_t2071877448_Il2CppObject_Int32_t2071877448_SByte_t454417549PK10MethodInfoPvPS2_
h6g:_EncryptedPrivateKeyInfo_get_Algorithm_m2779196942
NAh:_RemotingServices_GetRealProxy_m620317996
D4a:__ZN13dynamic_arrayI11CulledLightLj4EE6insertEPS0_PKS0_S4_
KHk:__ZL25UnresolvedVirtualCall_176P12Il2CppObject22UICharInfo_t3056636800S1_PK10MethodInfo
mYj:_ArrayReadOnlyList_1_RemoveAt_m2270349795_gshared
Hrk:_Predicate_1_Invoke_m2060780095_gshared
okb:__ZN10TagManager23VirtualRedirectTransferER18StreamedBinaryReadILb1EE
SPk:__ZN6il2cpp2vm13MetadataCache23GetInterfaceOffsetIndexEi
zo:FUNCTION_TABLE_vif
Ao:FUNCTION_TABLE_vid
Bo:FUNCTION_TABLE_vii
rTa:_UNITY_png_create_write_struct
rOc:__ZN13InitialModuleD2Ev
u1i:__Z149RuntimeInvoker_Boolean_t3825574718_Int32_t2071877448_Il2CppObject_Int32_t2071877448_Int32_t2071877448_Il2CppObject_Int32_t2071877448_SByte_t454417549PK10MethodInfoPvPS2_
jka:__ZN7Texture23VirtualRedirectTransferER24GenerateTypeTreeTransfer
gye:_UNITY_FT_Set_Transform
b6b:__ZNK32RendererMaterialAnimationBinding12SetPPtrValueERKN11UnityEngine9Animation10BoundCurveEi
d7k:__ZN6il2cpp8metadata15GenericMetadata20RegisterGenericClassEP18Il2CppGenericClass
gKl:_glDeleteFramebuffers__wrapper
CDg:_Image_get_overrideSprite_m706080347
vic:__Z36Register_UnityEngine_RectOffset_Initv
Jbh:_BigInteger_ModInverse_m1881894572
tRk:__ZN6il2cpp2vm7Runtime17GetDelegateInvokeEP11Il2CppClass
kLd:__ZNK5physx15NpActorTemplateINS_14PxRigidDynamicEE14getOwnerClientEv
bHi:__ZL59Slider_t297367283_CustomAttributesCacheGenerator_m_FillRectP21CustomAttributesCache
Zsb:__ZN28EnlightenRendererInformation8TransferI14SafeBinaryReadEEvRT_
_3a:__ZN14qsort_internal6_QSortIP16RenderObjectDatai25RenderPrePassObjectSorterEEvT_S4_T0_T1_
Dhi:__ZL69DefaultDependencyAttribute_t3858269114_CustomAttributesCacheGeneratorP21CustomAttributesCache
Kvd:__ZN5physx12NpBatchQuery13getUserMemoryEv
Ct:__Z14resize_trimmedINSt3__26vectorIN13AnimationClip12Vector3CurveE13stl_allocatorIS3_L18MemLabelIdentifier25ELi16EEEEEvRT_j
wOa:__ZNK15Lz4Decompressor16DecompressMemoryEPKvPjPvS2_
iDe:_UNITY_tt_face_build_cmaps
Aia:__ZN29SerializeTraitsForStringTypesINSt3__212basic_stringIcNS0_11char_traitsIcEE13stl_allocatorIcL18MemLabelIdentifier1ELi16EEEEE19ResizeSTLStyleArrayERS7_iS5_
KTi:_Ray_ToString_m2019179238
KYc:__ZN11Rigidbody2D8TransferI24GenerateTypeTreeTransferEEvRT_
hna:__Z35UnityPropertySheet_MakeSortedColorsRKNSt3__23mapIN9ShaderLab16FastPropertyNameE10ColorRGBAfNS_4lessIS2_EENS_9allocatorINS_4pairIKS2_S3_EEEEEER10vector_mapIS2_S3_S5_NS6_INS7_IS2_S3_EEEEE
no:FUNCTION_TABLE_iiiiiiffiiiiiiiiiffffiii
QFg:_InputField_get_caretPositionInternal_m3011712053
vCe:_UNITY_tt_face_load_os2
dae:__ZN5physx2GuL34fullContactsGenerationSphereConvexERKNS0_8CapsuleVERKNS0_11ConvexHullVERKNS_6shdfnd3aos12PsTransformVESB_PNS0_17PersistentContactERjRNS0_13ContactBufferEbRNS0_25PersistentContactManifoldERNS8_5Vec3VERKNS8_6FloatVEb
PLd:__ZN5physx19NpRigidBodyTemplateINS_14PxRigidDynamicEE16setRigidBodyFlagENS_15PxRigidBodyFlag4EnumEb
Cdh:_HMAC_get_Key_m2528863640
Ueg:_Collection_1_IsSynchronized_m1366278230_gshared
Xmi:__ZL93StringBuilder_t1221177846_CustomAttributesCacheGenerator_StringBuilder_AppendLine_m1686706871P21CustomAttributesCache
fjd:__ZN5physx6shdfnd8PoolBaseINS_2Sc19ConstraintGroupNodeENS0_19ReflectionAllocatorIS3_EEE17releaseEmptySlabsEv
VMb:__Z29Transfer_Blittable_ArrayFieldI14SafeBinaryRead8Vector4fEvRT_R9ArrayInfoRK23StaticTransferFieldInfo
yaf:_Array_get_swapper_TisInt32_t2071877448_m2837069166_gshared
W1:__ZN15FileSystemEntry11CreateAsDirEv
Nsg:_PointerEventData_IsScrolling_m1971908975
btg:__ZN16VirtFuncInvoker1IP22MouseState_t3572864619iE6InvokeEjPvi
dcl:__GLOBAL__sub_I_RCW_cpp
c$c:__ZN5physx3Cct8SweptBoxD2Ev
oyi:__ZL53UILineInfo_t3621277874_CustomAttributesCacheGeneratorP21CustomAttributesCache
A0d:__ZN5physx2Cm12DelegateTaskINS_13PxsCCDContextEXadL_ZNS2_12postCCDSweepEPNS_10PxBaseTaskEEEED0Ev
pMf:_Decimal_System_IConvertible_ToInt16_m3159038792
yEd:__ZN5physx2Sc9ClothCore16setContactOffsetEf
my:__ZN7mecanim9animation12EvaluateClipEPKNS0_4ClipEPKNS0_9ClipInputEPNS0_10ClipMemoryEPNS0_10ClipOutputE
XJh:_HashAlgorithm_get_CanReuseTransform_m160024219
obd:__ZN5physx3Cct9SweepTest15onObstacleAddedEjPKNS_17PxObstacleContextERKNS_6PxVec3ES7_f
Rgd:__ZN5physx2Gu10SupportMapD2Ev
ttb:__ZN4PPtrI11LightProbesE8TransferI18StreamedBinaryReadILb0EEEEvRT_
kak:_ComVisibleAttribute__ctor_m1789587486
_qd:__ZNK5physx15NpActorTemplateINS_18PxArticulationLinkEE22getClientBehaviorFlagsEv
jVh:_MonoMethodInfo_GetReturnType_m2864247130
QUc:__ZN16Physics2DManager25DestroyColliderCollisionsEP10Collider2D
si:_JS_WebRequest_Release
$Rg:_DirectoryNotFoundException__ctor_m2242202556
$qd:__ZNK5physx15NpActorTemplateINS_18PxArticulationLinkEE12getAggregateEv
iab:__ZNSt3__26__treeINS_12__value_typeINS_12basic_stringIcNS_11char_traitsIcEENS_9allocatorIcEEEE17MessageIdentifierEENS_19__map_value_compareIS7_S9_NS_4lessIS7_EELb1EEENS5_IS9_EEE7destroyEPNS_11__tree_nodeIS9_PvEE
M6e:_String_CreateString_m2448464375
lxh:_X509SubjectKeyIdentifierExtension__ctor_m2959112706
XSh:_FieldInfo_get_IsNotSerialized_m2322769148
dKc:__ZN14EmissionModule5ResetEv
RSd:__ZNK5physx7NpScene18getStaticStructureEv
Lqi:__ZL68Math_t2022911894_CustomAttributesCacheGenerator_Math_Max_m2671311541P21CustomAttributesCache
D0d:__ZN5physx13PxsCCDContext12postCCDSweepEPNS_10PxBaseTaskE
$6k:__ZN6il2cpp8metadata15GenericMetadata7InflateEPK19Il2CppGenericMethodPK20Il2CppGenericContext
cVh:_MonoGenericCMethod_get_ReflectedType_m2689239043
M2a:__ZN22PerThreadPageAllocatorC2Ev
Veg:_Collection_1_IsFixedSize_m499196375_gshared
Jxg:_ColorTween_set_startColor_m3546206870_AdjustorThunk
dpe:__ZN5physx6shdfnd10Foundation19AlignCheckAllocator28deregisterAllocationListenerERNS_20PxAllocationListenerE
Aqd:__ZN5physx2Sc21ArticulationJointCore12setChildPoseERKNS_11PxTransformE
s1j:_InternalEnumerator_1_get_Current_m4083613828_gshared
W4f:_List_1_System_Collections_IList_get_IsReadOnly_m1745992999_gshared
h_k:__ZN13Il2CppHashMapINSt3__24pairIPK9EventInfoP11Il2CppClassEEj17ReflectionMapHashIS7_E19ReflectionMapEqualsIS7_ENS0_9allocatorINS1_IK10KeyWrapperIS7_EjEEEEEC2EjRKS9_RKSB_
Lqc:__ZN8GUIState8EndOnGUIEv
$9e:_UnicodeEncoding_GetString_m542738941
Hsc:__Z32GUIStyle_Set_Custom_PropWordWrapP12Il2CppObjecth
dJe:_UNITY_TT_Get_VMetrics
ARg:_Path_InsecureGetFullPath_m2635272425
YDf:_Enumerator_Clone_m1124749523
$Jf:_DateTime_System_IConvertible_ToUInt32_m1363211018
R2d:__ZN5physx33solveContactCoulombBlockWriteBackEPKNS_23PxcSolverConstraintDescEjRNS_16PxcSolverContextEPNS_25PxcThresholdStreamElementEjPi
VGh:_RuntimeMethodHandle__ctor_m1162528746
h4f:_List_1_AsReadOnly_m4108578222_gshared
Eae:__ZN5physx9PxTaskMgr17submitUnnamedTaskERNS_6PxTaskENS_10PxTaskType4EnumE
pJh:_DSA__ctor_m613430209
Eaf:_Array_get_swapper_TisPlayable_t3667545548_m4216505466_gshared
$cf:_SetPropertyUtility_SetStruct_TisSingle_t2076509932_m3849235084_gshared
YEa:__ZN7Texture21GetMasterTextureLimitEv
O_k:__ZN6il2cpp2vm10Reflection12HasAttributeEP12Il2CppObjectP11Il2CppClass
PUa:_UNITY_png_write_sRGB
uxc:__ZN8JSONRead21TransferSTLStyleArrayI13dynamic_arrayI4AABBLj4EEEEvRT_18MemLabelIdentifier17TransferMetaFlags
$sk:_InvokableCall_1__ctor_m121193486_gshared
x5:__ZN9ShaderLabL25StaticInitializeShaderLabEPv
H2h:_Dictionary_2_ContainsKeyValuePair_m3818021458_gshared
w_d:__ZNK5physx2Sq12BucketPruner5sweepERKNS0_9ShapeDataERKNS_6PxVec3ERfRNS0_14PrunerCallbackE
T:Math_max
dfg:_Collection_1_System_Collections_IList_Insert_m1511106741_gshared
gGk:__ZL24UnresolvedVirtualCall_92P12Il2CppObjectPK10MethodInfo
BTk:_il2cpp_class_get_methods
DRg:_Path_CanonicalizePath_m383914732
Oc:invoke_viiiiiffii
M8j:_Enumerator_System_Collections_IEnumerator_get_Current_m1631145297_gshared
eyf:_ArrayList_Synchronized_m2395071980
hel:__ZN6il2cpp2os6Thread16GetCurrentThreadEv
rUi:_Rect_get_min_m2549872833
due:__ZN5physx6shdfnd8internal8HashBaseINS0_4PairIKPKNS0_14NamedAllocatorEPKcEES6_NS0_4HashIS6_EENS1_11HashMapBaseIS6_S9_SC_NS0_20NonTrackingAllocatorEE6GetKeyESE_Lb1EE15reserveInternalEj
iXg:_UnexceptionalStreamWriter_Write_m3206913035
CBb:__ZThn28_N14SpriteRendererD1Ev
$kb:__ZN10TagManager8TransferI19StreamedBinaryWriteILb0EEEEvRT_
vWb:__ZN11PreloadData23VirtualRedirectTransferER18StreamedBinaryReadILb0EE
vkl:__ZN6il2cpp6icalls8mscorlib6System10ReflectionL40il2cpp_class_get_generic_type_definitionEP11Il2CppClass
nJh:_DESTransform_ProcessBlock_m2826669227
n9i:__Z115RuntimeInvoker_Void_t1841601450_Il2CppObject_Int32_t2071877448_Int32_t2071877448_SByte_t454417549_Int32_t2071877448PK10MethodInfoPvPS2_
uNg:_Int16_CompareTo_m3493496879
mhj:__Z36RuntimeInvoker_Direction_t1525323322PK10MethodInfoPvPS2_
cwi:__ZL56RenderTexture_t2666733923_CustomAttributesCacheGeneratorP21CustomAttributesCache
aAi:__ZL56ColorWriteMask_t926634530_CustomAttributesCacheGeneratorP21CustomAttributesCache
Vwb:__ZN6Sprite17MainThreadCleanupEv
Fsi:__ZL56OidCollection_t3790243618_CustomAttributesCacheGeneratorP21CustomAttributesCache
Vli:__ZL61SignatureDescription_t89145500_CustomAttributesCacheGeneratorP21CustomAttributesCache
U0j:_InternalEnumerator_1_MoveNext_m3389738333_AdjustorThunk
ZQ:__ZN10AudioMixer14UpdateMuteSoloEv
hMb:__ZNSt3__26vectorINS_12basic_stringIcNS_11char_traitsIcEE13stl_allocatorIcL18MemLabelIdentifier1ELi16EEEES4_IS7_LS5_1ELi16EEE6assignINS_11__wrap_iterIPS7_EEEENS_9enable_ifIXaasr21__is_forward_iteratorIT_EE5valuesr16is_constructibleIS7_NS_15iterator_traitsISF_E9referenceEEE5valueEvE4typeESF_SF_
qVa:__Z17GetMonoManagerPtrv
tPj:_Component_GetComponents_m637589504
nyd:__ZN5physx6shdfnd5ArrayINS_3Scb13MaterialEventENS0_19ReflectionAllocatorIS3_EEE15growAndPushBackERKS3_
N6f:_Stack_1_System_Collections_ICollection_get_SyncRoot_m3151629354_gshared
Fqj:_MaskableGraphic_UnityEngine_UI_IClippable_get_gameObject_m954171032
Xka:__ZN9ShaderLab10SubProgram7CompileEv
hEa:__ZN7ApiGLES16SetPatchVerticesEi
pAa:__ZN9GfxDevice12PresentFrameEPK14ChannelAssigns
Wkd:__ZN5physx2Sc5Scene11onBodySleepEPNS0_7BodySimE
kq:__ZN6Object12SetHideFlagsEi
hPa:__ZN10MemoryFileC2E18MemLabelIdentifierP14MemoryFileData14FilePermission
VBh:_TrackingServices_NotifyUnmarshaledObject_m1794048369
tJk:__ZN6il2cpp2vm5Class20FromGenericParameterEPK22Il2CppGenericParameter
bki:__ZL59RemotingServices_t2399536837_CustomAttributesCacheGeneratorP21CustomAttributesCache
M$c:__ZL28GeomMTDCallback_PlaneCapsuleRN5physx6PxVec3ERfRKNS_10PxGeometryERKNS_11PxTransformES5_S8_
Lda:__ZN15GlobalCallbacksC2Ev
mfb:__ZN11AssetBundle8TransferI14SafeBinaryReadEEvRT_
vcj:__Z97RuntimeInvoker_Void_t1841601450_PlayableU26_t3233213460_Int32_t2071877448_PlayableU26_t3233213460PK10MethodInfoPvPS2_
wkf:_Array_InternalArray__set_Item_TisLabelFixup_t4090909514_m565370771_gshared
RVc:__ZN7b2World10CreateBodyEPK9b2BodyDef
nLk:__ZN15dense_hashtableINSt3__24pairIK10KeyWrapperIPK19Il2CppGenericMethodEPK26Il2CppGenericMethodIndicesEES6_N6il2cpp8metadata23Il2CppGenericMethodHashEN14dense_hash_mapIS6_SA_SE_NSD_26Il2CppGenericMethodCompareENS0_9allocatorISB_EEE9SelectKeyESG_SI_ED2Ev
Eze:_UNITY_FT_New_Memory_Face
Pxd:__ZNK5physx10NpMaterial18getDynamicFrictionEv
tti:__ZL74X509Crl_t1699034837_CustomAttributesCacheGenerator_U3CU3Ef__switchU24map13P21CustomAttributesCache
fGh:_SerializationEntry__ctor_m1619256036_AdjustorThunk
iSa:__ZZ23InitPlayerLoopCallbacksvEN43PostLateUpdatePlayerSendFrameCompletestruct7ForwardEv
P1e:__Z15CastclassSealedP12Il2CppObjectP11Il2CppClass
P1b:__ZN15ApplicationInfo14GetSandboxTypeEv
Kyd:__ZN5physx9NpPhysics16createConvexMeshERNS_13PxInputStreamE
WUj:_Playable_IsValid_m2102916683_AdjustorThunk
BOb:__Z18Transfer_BlittableI17RemapPPtrTransferLb1EhEvRK29SerializationCommandArgumentsR31RuntimeSerializationCommandInfo
Ofl:__ZNSt3__26vectorIjNS_9allocatorIjEEE26__swap_out_circular_bufferERNS_14__split_bufferIjRS2_EE
p5a:__ZN16ReflectionProbes40UpdateRealtimeReflectionProbesTimeslicedEv
K_k:__ZN15dense_hashtableINSt3__24pairIK10KeyWrapperINS1_IPK14Il2CppAssemblyP11Il2CppClassEEEjEES9_17ReflectionMapHashIS8_EN14dense_hash_mapIS9_jSD_19ReflectionMapEqualsIS8_ENS0_9allocatorISB_EEE9SelectKeyESG_SI_E14squash_deletedEv
LAk:_ListPool_1_Get_m529219189_gshared
t8k:__ZNSt3__26__treeINS_12__value_typeIP24Il2CppReflectionAssemblyPvEENS_19__map_value_compareIS3_S5_NS_4lessIS3_EELb1EEENS_9allocatorIS5_EEE16__insert_node_atEPNS_16__tree_node_baseIS4_EERSF_SF_
Ija:__ZN13RenderManager16SetCurrentCameraEP6Camera
eRh:_MethodBuilder_GetBaseDefinition_m774166361
aMk:__ZNK15dense_hashtableI10KeyWrapperIPK17Il2CppGenericInstES4_N6il2cpp8metadata21Il2CppGenericInstHashEN14dense_hash_setIS4_S7_NS6_24Il2CppGenericInstCompareENSt3__29allocatorIS4_EEE8IdentityES9_SC_E10test_emptyERK30dense_hashtable_const_iteratorIS4_S4_S7_SE_S9_SC_E
hkd:__ZN5physx2Sq17SceneQueryManager8addShapeERKNS_7NpShapeERKNS_12PxRigidActorEbPNS_9PxBounds3E
e_b:__ZN18StreamedBinaryReadILb1EE21TransferSTLStyleArrayI13dynamic_arrayIN9ShaderLab21SerializedBindChannelELj4EEEEvRT_17TransferMetaFlags
jll:__ZN6il2cpp5utils5MatchENSt3__212basic_stringIcNS1_11char_traitsIcEENS1_9allocatorIcEEEEjRKS7_j
wAe:_UNITY_FT_Destroy_Class_psnames_module_class
LSc:__ZNK12b2WheelJoint17GetReactionTorqueEf
ahk:_MRUList_Evict_m2430323183
jjg:_ReadOnlyCollection_1_System_Collections_Generic_ICollectionU3CTU3E_Remove_m1060547576_gshared
s7k:__ZN6il2cpp2vm5Image9GetCorlibEv
jwb:__ZN2UI13RectTransform8TransferI18StreamedBinaryReadILb1EEEEvRT_
nBe:_ft_bitmap_glyph_bbox
k9k:__ZN6il2cpp2vm11MethodStack17GetStackFramesRawEv
WBd:__ZNK5physx15NpActorTemplateINS_7PxClothEE14getOwnerClientEv
dPj:_Component_GetComponent_m4225719715
y2d:__ZNK5physx2Gu29EPASupportMapPairRelativeImplINS0_8CapsuleVES2_E9doSupportERKNS_6shdfnd3aos5Vec3VERS6_S9_S9_
Tmf:_Array_Sort_TisVector4_t2243707581_m474199742_gshared
ooe:__ZN5physx10SubSortSAH5sort4EPjjRNS_6shdfnd5ArrayINS_11RTreeNodeNQENS2_19ReflectionAllocatorIS4_EEEERjjPS4_
ILi:_GUIStyle_InitCopy_m3676786505
SWg:_TextWriter_Write_m576684782
myk:_Vector3_Max_m2105825185
ok:_glIsVertexArray
gPa:__ZN25SingleBlockMemoryFileDataC2E18MemLabelIdentifierPvjb
emb:__ZN5Unity9Component8TransferI18StreamedBinaryReadILb0EEEEvRT_
YQg:__ZN16VirtFuncInvoker0IhE6InvokeEjPv
da:invoke_fff
Axj:_Text_get_fontSize_m3105730761
kHl:b14
Wkh:_TlsServerHello_Update_m1740270635
mte:__ZN5physx2Sc7PhysicsC2ERKNS_17PxTolerancesScaleERKNS_14PxvOffsetTableE
xLe:__ZN2UI6Canvas17MainThreadCleanupEv
euj:_ScrollRect_Rebuild_m3423824761
l4f:_List_1_Find_m3862454845_gshared
Lri:__ZL85Locale_t4255929015_CustomAttributesCacheGenerator_Locale_GetText_m1445803604____args1P21CustomAttributesCache
Rgk:_MatchCollection_get_Item_m2609281578
eLa:__ZN7ApiGLES13CreateProgramEv
ubj:__Z74RuntimeInvoker_Boolean_t3825574718_Vector3_t2243707580_Vector3_t2243707580PK10MethodInfoPvPS2_
tzj:_UTF8Encoding__ctor_m100325490
jFa:__ZN4crnd12crn_unpackerD2Ev
dxj:_StencilMaterial_ClearAll_m1372779118
Dk:_emscripten_glTexImage2D
Uhj:__Z52RuntimeInvoker_Void_t1841601450_UIVertex_t1204258818PK10MethodInfoPvPS2_
lAh:_ObjRefSurrogate_SetObjectData_m1873902916
QIe:_tt_driver_class_pic_init
A6:__ZN18ScriptingArguments9AddStringEPKc
d2k:__ZN15dense_hashtableINSt3__24pairIK10KeyWrapperIP11Il2CppClassES4_EES5_N6il2cpp8metadata16SZArrayClassHashEN14dense_hash_mapIS5_S4_SA_NS9_19SZArrayClassCompareENS0_9allocatorIS7_EEE9SelectKeyESC_SE_E13set_empty_keyERKS7_
ohg:_ReadOnlyCollection_1_System_Collections_IList_get_IsReadOnly_m1367736517_gshared
Bui:__ZL116Component_t3819376471_CustomAttributesCacheGenerator_Component_GetComponentsInParent_m1920178904____includeInactive1P21CustomAttributesCache
uDl:runPostSets
x2d:__ZNK5physx2Gu29EPASupportMapPairRelativeImplINS0_8CapsuleVES2_E18doWarmStartSupportEiiRNS_6shdfnd3aos5Vec3VES7_S7_
VBi:__ZL93AxisEventData_t1524870173_CustomAttributesCacheGenerator_AxisEventData_set_moveDir_m254243794P21CustomAttributesCache
nua:__ZL23stbir__resize_arbitraryPvPKviiiS_iiiffffPfiij14stbir_datatype12stbir_filterS4_10stbir_edgeS5_16stbir_colorspace
RBc:__ZN23ParticleSystemParticles13array_reserveEj
g$f:_List_1_System_Collections_IList_Insert_m848656350_gshared
KPb:__Z18Transfer_BlittableI24GenerateTypeTreeTransferLb1E8Vector4fEvRK29SerializationCommandArgumentsR31RuntimeSerializationCommandInfo
UNg:_Int16_ToString_m3971652088_AdjustorThunk
_Fc:__ZNK24OptimizedPolynomialCurve26FindMinMaxDoubleIntegratedEv
Nk:_pthread_detach
wQk:__ZN6il2cpp2vm19SocketPollingThread7RunLoopEv
vTf:_KeyValuePair_2__ctor_m1640124561_AdjustorThunk
agk:_MethodDictionary_AllocInternalProperties_m3261295876
t7i:__Z197RuntimeInvoker_Boolean_t3825574718_Il2CppObject_Il2CppObject_Il2CppObject_Int32_t2071877448_DateTimeU26_t3448131235_SByte_t454417549_BooleanU26_t3168250738_SByte_t454417549_ExceptionU26_t1467204777PK10MethodInfoPvPS2_
GZd:__ZN5physx11EdgeManager6resizeEj
Qrh:_IPv6Address_set_ScopeId_m1442934355
__g:_NumberFormatter_NumberToString_m3855209845
hAe:__ZN13TextRendering4Font7PRODUCEE18MemLabelIdentifier18ObjectCreationMode
Gti:__ZL77U3CPrivateImplementationDetailsU3E_t1486305139_CustomAttributesCacheGeneratorP21CustomAttributesCache
M_b:__ZN9ShaderLab25SerializedTextureProperty8TransferI24GenerateTypeTreeTransferEEvRT_
jog:_Comparison_1_Invoke_m2645957248_gshared
dPl:_emscripten_glIsShader__wrapper
eEe:_tt_cmap14_char_next
Bgi:__ZL69AssemblyTrademarkAttribute_t3740556705_CustomAttributesCacheGeneratorP21CustomAttributesCache
gBa:__ZN13GfxDeviceGLES28GetNativeVertexBufferPointerEP9GfxBuffer
yMd:__ZN5physx2Sc5Scene12removeStaticERNS0_10StaticCoreERNS_6shdfnd11InlineArrayIPKNS0_9ShapeCoreELj64ENS4_19ReflectionAllocatorIS8_EEEEb
lWk:__ZN15dense_hashtableINSt3__24pairIK10KeyWrapperIPK10Il2CppTypeEjEES6_N6il2cpp8metadata14Il2CppTypeHashEN14dense_hash_mapIS6_jSB_NSA_17Il2CppTypeCompareENS0_9allocatorIS8_EEE9SelectKeyESD_SF_E15insert_noresizeERKS8_
jja:__ZN11NamedObject8TransferI18StreamedBinaryReadILb0EEEEvRT_
ZJa:__ZNK17GPUSkinPoseBuffer12GetBoneCountEv
_sc:__Z32GUIStyle_Get_Custom_PropFontSizeP12Il2CppObject
aGh:_DelegatePInvokeWrapper_CallbackHandler_t362827733
eri:__ZL59ResolveEventArgs_t1859808873_CustomAttributesCacheGeneratorP21CustomAttributesCache
Jtk:_UnityAction_1_BeginInvoke_m3462722079_gshared
PSh:_EventInfo_get_MemberType_m3337516651
Kwc:__Z18Transfer_BlittableI8JSONReadLb1EyEvRK29SerializationCommandArgumentsR31RuntimeSerializationCommandInfo
il:_emscripten_glMatrixMode
_w:__ZN8Animator23VirtualRedirectTransferER18StreamedBinaryReadILb0EE
egi:__ZL93TypeBuilder_t3308873219_CustomAttributesCacheGenerator_TypeBuilder_GetConstructors_m774120094P21CustomAttributesCache
s9a:__Z22CalculateTransformPathRK9TransformPS0_
eke:__ZN5physx13GuMeshFactory17createHeightFieldERNS_13PxInputStreamE
HPd:__ZN5physx2Sc10NPhaseCore25createShapeInstancePairLLERNS0_8ShapeSimES3_NS_7PxFlagsINS_10PxPairFlag4EnumEtEE
Xzh:_MethodReturnDictionary__ctor_m756139344
aX:__ZN11UnityEngine15CloudWebService14DataDispatcher16PrepareDataBlockERNS0_16SessionContainerE
JUj:_CustomAnimationPlayable_AddInput_m3120035390
MQd:__ZThn8_N5physx2Sc19ShapeInstancePairLL12onDeactivateEj
OZj:_InternalEnumerator_1__ctor_m967618647_gshared
qkl:__ZN6il2cpp6icalls8mscorlib6System9Threading7Monitor4ExitEP12Il2CppObject
Omj:__Z62RuntimeInvoker_ParameterModifier_t1820634920_Int32_t2071877448PK10MethodInfoPvPS2_
GSb:__ZL26Transfer_SimpleNativeClassI18StreamedBinaryReadILb0EE10RectOffsetLb0EEvRK29SerializationCommandArgumentsR31RuntimeSerializationCommandInfo
tAe:_UNITY_ft_destroy_default_module_classes
d7g:_SymmetricTransform_FinalDecrypt_m3674669784
KYf:_List_1_CheckMatch_m1772343151_gshared
Z_a:__ZL12DepthPassJobPN21GfxDeviceAsyncCommand10ArgScratchEPKNS_3ArgE
RYb:__ZNSt3__26vectorIN9ShaderLab20SerializedSubProgram16TextureParameterENS_9allocatorIS3_EEE6assignINS_11__wrap_iterIPS3_EEEENS_9enable_ifIXaasr21__is_forward_iteratorIT_EE5valuesr16is_constructibleIS3_NS_15iterator_traitsISC_E9referenceEEE5valueEvE4typeESC_SC_
lQg:_IntPtr_Equals_m1214967011_AdjustorThunk
jpe:__ZN9Rigidbody16ApplyConstraintsEv
d3f:_List_1_Add_m3591975577_gshared
pPe:__Z55Register_UnityEngine_CanvasGroup_get_ignoreParentGroupsv
zMg:_Guid_Equals_m2389236871
$Bi:__ZL100PointerEventData_t1599784723_CustomAttributesCacheGenerator_U3CpointerPressRaycastU3Ek__BackingFieldP21CustomAttributesCache
Qyk:_Vector4_ToString_m2340321043
sn:FUNCTION_TABLE_iiiiiiiiiiii
YDc:__ZNK14ParticleSystem27CalculateMaxActiveParticlesEv
ofa:__Z24InitializeIl2CppFromMainRKNSt3__212basic_stringIcNS_11char_traitsIcEENS_9allocatorIcEEEES7_iPPKc
oId:__ZN5physx2Sc17ParticleSystemSim8setFlagsEj
Wmb:__ZN16GraphicsSettingsD0Ev
Hbb:__Z29StdTemplateConversionFunctionIshEbPvR14SafeBinaryRead
mXa:__ZN15LODGroupManager21CalculateLODDataArrayERK13LODParametersPK6Cameraf
m:cttz_i8
JGe:_UNITY_FT_GlyphLoader_Add
Iql:_uselocale
TZj:_InternalEnumerator_1_System_Collections_IEnumerator_get_Current_m1004764375_AdjustorThunk
gne:__ZN5physx2Gu15EdgeListBuilder18CreateEdgesToFacesEjPKjPKt
x7c:__ZN5physx11PxMeshQuery5sweepERKNS_6PxVec3EfRKNS_10PxGeometryERKNS_11PxTransformEjPKNS_10PxTriangleERNS_10PxSweepHitENS_7PxFlagsINS_9PxHitFlag4EnumEtEEPKjfb
eKa:__Z26TransformVerticesInnerLoopILb0ELb0ELb0EEvPhRK10Matrix4x4fRK10Matrix3x3fjPKhiiiS8_ii25GfxTransformVerticesFlags
yPk:__ZNK15dense_hashtableINSt3__24pairIK10KeyWrapperIPK19Il2CppGenericMethodEPK26Il2CppGenericMethodIndicesEES6_N6il2cpp8metadata23Il2CppGenericMethodHashEN14dense_hash_mapIS6_SA_SE_NSD_26Il2CppGenericMethodCompareENS0_9allocatorISB_EEE9SelectKeyESG_SI_E12test_deletedERK24dense_hashtable_iteratorISB_S6_SE_SK_SG_SI_E
Bqi:__ZL47Guid_t2533601593_CustomAttributesCacheGeneratorP21CustomAttributesCache
Hxi:__ZL108Physics2D_t2540166467_CustomAttributesCacheGenerator_Physics2D_GetRayIntersectionAll_m253330691____distance1P21CustomAttributesCache
Zgk:_MRUList__ctor_m2726533367
LKg:_DateTimeFormatInfo_get_FullDateTimePattern_m2607507656
ulh:_HttpsClientStream_RaiseServerCertificateValidation_m3356770426
jci:__ZL73Il2CppArray_CustomAttributesCacheGenerator_Array_BinarySearch_m3052238307P21CustomAttributesCache
VNf:_DelegateSerializationHolder__ctor_m3915060553
lnf:_Array_swap_TisUIVertex_t1204258818_TisUIVertex_t1204258818_m1163375424_gshared
em:_emscripten_glViewport
Rfl:__ZN6il2cpp6icalls8mscorlib6System15MonoCustomAttrs17IsDefinedInternalEP12Il2CppObjectP20Il2CppReflectionType
Jyb:__ZN4Mesh21UnswizzleVertexColorsEb
Su:__ZN18StreamedBinaryReadILb1EE21TransferSTLStyleArrayI13dynamic_arrayI11KeyframeTplI8Vector3fELj4EEEEvRT_17TransferMetaFlags
Lkh:_TlsServerSettings_set_CertificateTypes_m264196087
c$j:_InternalEnumerator_1__ctor_m4150855019_gshared
UKf:_DateTime_ToString_m2276663647_AdjustorThunk
NIe:_cff_parse_font_bbox
fgc:__Z35Application_Get_Custom_PropIsEditorv
L8c:__Z14raycast_sphereRKN5physx10PxGeometryERKNS_11PxTransformERKNS_6PxVec3ES8_fNS_7PxFlagsINS_9PxHitFlag4EnumEtEEjPNS_12PxRaycastHitEbPFbRSD_PvESG_
jEb:__ZN14PlayerSettings23VirtualRedirectTransferER18StreamedBinaryReadILb0EE
z8:__ZN13MonoBehaviour19RebuildMonoInstanceEP11Il2CppClassP12Il2CppObjectP10MonoScript
Baf:_Array_get_swapper_TisCustomAttributeTypedArgument_t1498197914_m2780757375_gshared
TSf:_KeyValuePair_2__ctor_m3201181706_AdjustorThunk
Aol:__ZN6il2cpp2os5Event5ResetEv
f3a:__Z26CombineDepthNormalsTextureRK17RenderLoopContextR13dynamic_arrayI16RenderObjectDataLj4EE
Gqk:_AesManaged__ctor_m2322442838
M6k:__ZN6il2cpp8metadata15GenericMetadata17InflateParametersEPK13ParameterInfohPK20Il2CppGenericContextb
xPg:_Int64_System_IConvertible_ToUInt32_m850395426_AdjustorThunk
z7:__ZN18AwakeFromLoadQueue28InvokePersistentManagerAwakeEPNS_4ItemEj17AwakeFromLoadMode
qPh:_TypeBuilder_GetMethodsByName_m229541072
DX:__ZNSt3__215basic_stringbufIcNS_11char_traitsIcEENS_9allocatorIcEEE7seekposENS_4fposI11__mbstate_tEEj
NVe:_HMACSHA512__ctor_m2390736870
Sfe:__ZNK5physx2Cm12DelegateTaskINS_2Sc5SceneEXadL_ZNS3_23postIslandGenSecondPassEPNS_10PxBaseTaskEEEE7getNameEv
yml:__ZNSt3__26__treeINS_12__value_typeIPvxEENS_19__map_value_compareIS2_S3_NS_4lessIS2_EELb1EEENS_9allocatorIS3_EEE16__insert_node_atEPNS_16__tree_node_baseIS2_EERSD_SD_
YBb:__ZN4PPtrI6SpriteE8TransferI18StreamedBinaryReadILb0EEEEvRT_
MWa:__ZNK6Camera23CalculateShadowDistanceEv
mPh:_TypeBuilder_GetInterfaces_m1818658502
$mh:_TlsException_get_Alert_m4022765752
xbh:_BigInteger_op_Equality_m2683055762
Lfa:__Z25SetNeedToPerformRenderingb
NIc:__ZN12LightsModule8TransferI17RemapPPtrTransferEEvRT_
xVh:_MonoMethod_GetPseudoCustomAttributes_m466965107
$0a:__ZNSt3__227__insertion_sort_incompleteIR23CompareReflectionProbesP31RuntimeReflectionProbeBlendInfoEEbT0_S5_T_
SEc:__ZN29InitialModulePropertyBindings13GetFloatValueERK14ParticleSystemi
oei:__ZL53SortedList_t3004938869_CustomAttributesCacheGeneratorP21CustomAttributesCache
CWi:_ResourceRequest_t2560315377_marshal_pinvoke
pYh:_Enumerator_System_Collections_IDictionaryEnumerator_get_Value_m3005608231_gshared
WEk:__ZL24UnresolvedVirtualCall_26P12Il2CppObjectS0_iiPK10MethodInfo
Xpj:_MaskUtilities_NotifyStencilStateChanged_m1527407683
A1d:__ZN5physxL27PxcSweepAnyShapeHeightfieldERKNS_11PxsCCDShapeES2_PKNS_12PxsRigidBodyES5_RKNS_11PxTransformES8_fRNS_6PxVec3ESA_RNS_10PxcNpCacheERNS_18PxcNpThreadContextE
r4g:_DSAManaged_GenerateKeyPair_m2711647034
bRk:__ZNSt3__214__split_bufferI6pollfdRNS_9allocatorIS1_EEED2Ev
thf:_Array_InternalArray__ICollection_Add_TisResourceCacheItem_t333236149_m1151081240_gshared
GYd:__ZN5physx3Scb5SceneD2Ev
tHf:_Convert_ToInt32_m2209788057
bz:__ZN17AnimationPlayable11DerivesFromEP11Il2CppClass
eLb:__ZN6HelperI14SafeBinaryRead23TransferArrayField_InfoE24SerializationFunctionForERKS1_R23StaticTransferFieldInfoPb
uDh:_SoapServices_GetXmlTypeForInteropType_m3821579913
vDa:__ZN7ApiGLES13CreateTextureEj16TextureDimensionN2gl9TexFormatEiiiii
UMl:_emscripten_glTexParameterfv__wrapper
ikk:_CaptureAssertion_IsComplex_m1433259302
rUk:_il2cpp_method_get_param_count
MYc:__ZN11Rigidbody2D8TransferI19StreamedBinaryWriteILb0EEEEvRT_
npe:__Z16GetDynamicsScenev
SPd:__ZThn8_N5physx2Sc18TriggerInteraction7destroyEv
jwk:_TouchScreenKeyboard_get_active_m1442597648
Psi:__ZL68Uri_t19570940_CustomAttributesCacheGenerator_U3CU3Ef__switchU24map15P21CustomAttributesCache
dFe:_ps_dimension_done
nvg:_LayoutRebuilder_MarkLayoutForRebuild_m640589351
nLe:__Z46Register_UnityEngine_TextGenerator_Dispose_cppv
Psg:_PointerEventData_get_pressEventCamera_m724559964
W0e:_String_IndexOfUnchecked_m3356721554
Fsb:__ZN16LightmapSettings8TransferI14SafeBinaryReadEEvRT_
DGa:__ZN17BufferManagerGLES13ReleaseBufferEP14DataBufferGLES
nhd:__ZN5physx6shdfnd5ArrayIPvNS0_19ReflectionAllocatorINS_16NpConnectorArrayEEEE15growAndPushBackERKS2_
QQi:_Mesh_CheckCanAccessSubmesh_m1826512193
I8:__Z64scripting_unity_engine_object_new_and_invoke_default_constructorP11Il2CppClassP6ObjectPP15Il2CppException
POd:__ZN5physx2Sc5Scene15prepareSimulateEv
Iwc:__Z18Transfer_BlittableI8JSONReadLb1EjEvRK29SerializationCommandArgumentsR31RuntimeSerializationCommandInfo
Tid:__ZN5physx6shdfnd5ArrayIPNS_2Sc11InteractionENS0_19ReflectionAllocatorIS4_EEE8recreateEj
zGi:__ZL63ScrollRect_t1199013257_CustomAttributesCacheGenerator_m_InertiaP21CustomAttributesCache
unk:_PKCS12_Decrypt_m1557069392
Sxj:_VertexHelper_AddUIVertexQuad_m280792808
Gsh:_WebHeaderCollection_ToString_m1246460752
goj:__Z37RuntimeInvoker_Enumerator_t2983962278PK10MethodInfoPvPS2_
GVj:_Font_get_fontSize_m1732593415
bq:stackSave
$sl:__ZNSt3__213basic_istreamIcNS_11char_traitsIcEEED1Ev
zFe:_ps_dimension_end
Kkc:__Z41Register_UnityEngine_Mesh_Internal_Createv
odb:__ZN16MemoryFileSystem5TouchER13FileEntryData
wBb:__ZN14SpriteRenderer23VirtualRedirectTransferER24GenerateTypeTreeTransfer
TXe:_RIPEMD160Managed_JJ_m2933451431
$ve:__Z63Register_UnityEngine_Physics_INTERNAL_CALL_Internal_RaycastTestv
rWe:_MACTripleDES_Initialize_m1318099802
oeh:_MD5SHA1_VerifySignature_m507888141
Ouf:_Byte_System_IConvertible_ToChar_m4188836679
tKg:_NumberFormatter_InitDecHexDigits_m2036076025
UYh:_Enumerator_get_CurrentKey_m3839846791_AdjustorThunk
exc:__ZN8JSONRead21TransferSTLStyleArrayI13dynamic_arrayIaLj1EEEEvRT_18MemLabelIdentifier17TransferMetaFlags
h6a:__ZN6Camera9SetAspectEf
Sxg:_ColorTween_get_ignoreTimeScale_m641454126_AdjustorThunk
ya:invoke_viiffiii
UUk:__ZN15dense_hashtableINSt3__24pairIK10KeyWrapperINS1_IPK14Il2CppAssemblyP11Il2CppClassEEEjEES9_17ReflectionMapHashIS8_EN14dense_hash_mapIS9_jSD_19ReflectionMapEqualsIS8_ENS0_9allocatorISB_EEE9SelectKeyESG_SI_E4findERSA_
$Ic:__ZN8UVModule8TransferI18StreamedBinaryReadILb0EEEEvRT_
Pgg:_ReadOnlyCollection_1_Contains_m1800950533_gshared
Tqb:__ZN12CubemapArray8TransferI18StreamedBinaryReadILb1EEEEvRT_
mDi:__ZL79TouchInputModule_t2561058385_CustomAttributesCacheGenerator_m_ForceModuleActiveP21CustomAttributesCache
uOl:_emscripten_glBindVertexArray__wrapper
Sdh:_MD4__ctor_m2366413460
SQj:_Display__ctor_m563295973
q2h:_Dictionary_2_InitArrays_m435313205_gshared
FL:__ZN10ObjectPoolIN4FMOD3DSPENS0_4DSPIEE7GetFreeEi
a7a:__ZN9Transform37InitializeTransformHierarchyRecursiveER18TransformHierarchyRii
nai:__ZL80Decimal_t724701077_CustomAttributesCacheGenerator_Decimal_op_Implicit_m233687092P21CustomAttributesCache
iBg:_Graphic_get_useLegacyMeshGeneration_m1366444625
rsh:_ServicePointManager_get_CheckCertificateRevocationList_m4009410230
iFi:__ZL65InputField_t1631627530_CustomAttributesCacheGenerator_m_InputTypeP21CustomAttributesCache
UFk:__ZL24UnresolvedVirtualCall_78P12Il2CppObjectPK10MethodInfo
C2g:_ModulusRing_Pow_m1137250399
grl:_fscanf
U5j:_InternalEnumerator_1_MoveNext_m2410670600_AdjustorThunk
ynh:_SslStreamBase_resetBuffer_m3028042362
HYa:__ZN17MeshRenderingData4InitEP4MeshS1_iP15SharedGfxBufferS3_
Zfh:_CipherSuite_get_HashAlgorithmType_m3902365773
stk:_InvokableCall_2_Find_m1763382885_gshared
Wig:_ReadOnlyCollection_1_System_Collections_ICollection_get_SyncRoot_m2779904122_gshared
FVk:__ZN15dense_hashtableINSt3__24pairIK10KeyWrapperINS1_IPK9FieldInfoP11Il2CppClassEEEjEES9_17ReflectionMapHashIS8_EN14dense_hash_mapIS9_jSD_19ReflectionMapEqualsIS8_ENS0_9allocatorISB_EEE9SelectKeyESG_SI_E12resize_deltaEjj
uka:__ZN19ShaderPropertySheet38CopyTextureWithAuxiliaryPropertiesFromERKN9ShaderLab16FastPropertyNameERKS_
Swh:_X509ChainStatus__ctor_m3628359961_AdjustorThunk
spb:__ZN14DirectorPlayer23VirtualRedirectTransferER19StreamedBinaryWriteILb0EE
JIi:__ZL77LayoutUtility_t4076838048_CustomAttributesCacheGenerator_U3CU3Ef__amU24cache4P21CustomAttributesCache
n1e:_Evidence_get_HostEvidenceList_m2095478124
Goc:__Z57Register_UnityEngine_Transform_INTERNAL_set_localPositionv
uhh:_Context_Clear_m4000337070
tBa:__ZN13GfxDeviceGLES26SetRandomWriteTargetBufferEi15ComputeBufferID
Fzh:_IntervalCollection_Normalize_m538796191
Utd:__ZN5physx6shdfnd4sortIPvNS0_4LessIS2_EENS0_19ReflectionAllocatorINS_2Cm5BlockIhLj256EEEEEEEvPT_jRKT0_RKT1_j
owk:_TrackedReference_op_Equality_m3491334086
$Ag:_FontUpdateTracker_UntrackText_m3827316510
ggb:__ZN18AssetBundleManager19RegisterAssetBundleEP11AssetBundle
Vke:__ZN5physx20InternalTriangleMesh7releaseEv
f0d:__ZN5physx6shdfnd5ArrayINS_16PxsCCDBlockArrayINS_13PxsCCDOverlapELi128EE9BlockInfoENS0_19ReflectionAllocatorIS5_EEE15growAndPushBackERKS5_
gkd:__ZNK5physx7NpShape8getFlagsEv
Tac:__ZNK11ICallString6ToUTF8Ev
JLj:_AudioSource_PlayClipAtPoint_m1469997862
gkk:_CaptureAssertion_get_Alternate_m2729005740
Tgl:_GC_number_stack_black_listed
Fwl:__ZNKSt3__220__time_get_c_storageIwE3__cEv
YLh:_Default_SelectMethod_m3081239996
nma:__ZN18UnityPropertySheet11UnityTexEnvC2Ev
HDd:__ZNK5physx7NpCloth16getContactOffsetEv
tfc:__ZNSt3__214__split_bufferIPN9BlobWrite11TypeContextENS_9allocatorIS3_EEE10push_frontERKS3_
Kaa:__ZN12FileAccessor4ReadEyyPvPy
Uka:__ZN13dynamic_arrayI16ShaderKeywordSetLj4EE6insertEPS0_PKS0_S4_
cUb:__Z29Transfer_Blittable_ArrayFieldI18StreamedBinaryReadILb0EE11QuaternionfEvRT_R9ArrayInfoRK23StaticTransferFieldInfo
bgk:_MethodDictionary_IsOverridenKey_m3922224650
QCf:_SyncHashtable_Contains_m3042906549
IVc:__ZN14dense_hash_mapINSt3__24pairIPK10Collider2DS4_EE11Collision2DNS2_23ColliderPairHashFunctorENS0_8equal_toIS5_EE13stl_allocatorINS1_IKS5_S6_EEL18MemLabelIdentifier65ELi16EEE4findERSB_
qdc:__Z21GetSceneHierarchyPathPK6Object
V5f:_List_1_System_Collections_IList_set_Item_m4016273526_gshared
kxh:_X509KeyUsageExtension_CopyFrom_m931530012
yjg:_ReadOnlyCollection_1_System_Collections_ICollection_get_SyncRoot_m1577944046_gshared
F5a:__ZN13RenderTexture9SetHeightEi
wqj:__ZN21InterfaceFuncInvoker0IP25RectTransform_t3349966182E6InvokeEjP11Il2CppClassPv
Mtl:__ZNKSt3__27collateIcE7do_hashEPKcS3_
vvh:_X509Chain_get_CertificateAuthorities_m3325663784
xob:__ZN16LevelGameManager8TransferI24GenerateTypeTreeTransferEEvRT_
Xaj:__Z53RuntimeInvoker_Void_t1841601450_BoundsU26_t1084128289PK10MethodInfoPvPS2_
_Oj:_Color32__ctor_m1932627809_AdjustorThunk
loh:_SslStreamBase_Read_m1036897444
U6k:__ZN15dense_hashtableI10KeyWrapperIP18Il2CppGenericClassES3_N6il2cpp8metadata22Il2CppGenericClassHashEN14dense_hash_setIS3_S6_NS5_25Il2CppGenericClassCompareENSt3__29allocatorIS3_EEE8IdentityES8_SB_E12resize_deltaEjj
iTe:__ZNSt3__24pairIKN4core12basic_stringIcNS1_20StringStorageDefaultIcEEEEN11UnityEngine7Connect19RemoteSettingsValueEEC2ERKSA_
$9k:__ZNK15dense_hashtableINSt3__24pairIK10KeyWrapperIP12Il2CppObjectEN6il2cpp2gc9CachedCCWEEES5_NS7_5utils11PointerHashIS3_EEN14dense_hash_mapIS5_S9_SD_NS0_8equal_toIS5_EENS0_9allocatorISA_EEE9SelectKeyESG_SI_E12test_deletedERK24dense_hashtable_iteratorISA_S5_SD_SK_SG_SI_E
Krj:_RectMask2D_PerformClipping_m1232012832
B5k:__ZN6il2cpp6icalls8mscorlib6System2IO6MonoIO17GetFileAttributesEP12Il2CppStringPi
BZh:_Transform_1_Invoke_m4020530914_gshared
LDe:_tt_cmap8_char_index
TWj:_GUILayoutGroup_ResetCursor_m3160916532
WLb:__Z29Transfer_Blittable_ArrayFieldI14SafeBinaryReadjEvRT_R9ArrayInfoRK23StaticTransferFieldInfo
QMj:_Camera_FireOnPostRender_m94860165
eHb:__ZN23PreloadManagerOperationD0Ev
Fe:_emscripten_set_keydown_callback
lCf:_Enumerator_get_Value_m3684748062
blb:__ZN19StreamedBinaryWriteILb0EE21TransferSTLStyleArrayINSt3__26vectorI17SortingLayerEntryNS2_9allocatorIS4_EEEEEEvRT_17TransferMetaFlags
OGc:__ZN18ColorBySpeedModule8TransferI14SafeBinaryReadEEvRT_
Saa:__ZN12FileAccessorC2Ev
Zok:_X509CertificateCollection_Compare_m1014334435
U6a:__ZN9Transform35SetLocalPositionWithoutNotificationERKN4math7_float3E
Lod:__ZN5physx2Sc15ArticulationSim12applyImpulseERNS0_8BodyCoreERKNS_9PxcFsDataERKNS_6PxVec3ES9_
QKd:__ZNK5physx22NpParticleBaseTemplateINS_16PxParticleSystemENS_16NpParticleSystemEE7getTypeEv
kVj:_Playable_get_duration_m4155589845_AdjustorThunk
Uhk:_PatternLinkStack_GetCurrent_m2994645935
mRc:__ZNK11b2GearJoint16GetReactionForceEf
Ing:_Comparison_1__ctor_m2929820459_gshared
vXe:__ZN16VirtFuncInvoker5IiP22ByteU5BU5D_t3397334013iiS1_iE6InvokeEjPvS1_iiS1_i
n2:__ZN14StackAllocator10ReallocateEPvji
EI:__ZN4PPtrI13MonoBehaviourE8TransferI18StreamedBinaryReadILb0EEEEvRT_
dgk:_MethodDictionary_set_Item_m3475146889
eod:__ZNK5physx14NpArticulation26getInternalDriveIterationsEv
dlj:__Z54RuntimeInvoker_Void_t1841601450_LabelFixup_t4090909514PK10MethodInfoPvPS2_
hki:__ZL62WellKnownObjectMode_t2630225581_CustomAttributesCacheGeneratorP21CustomAttributesCache
gyj:_Toggle_PlayEffect_m3950629415
pYg:_MonoCustomAttrs_GetCustomAttribute_m100274015
BGc:__ZN14VelocityModule8TransferI14SafeBinaryReadEEvRT_
Qsa:__ZN13RenderManager18UpdateAllRenderersEv
xI:__ZN18AnimatorController19TransferRuntimeDataI18StreamedBinaryReadILb0EEEEvRT_
Rpe:__ZThn24_N14PhysicsManagerD1Ev
cRe:__ZN22BaseUnityConnectClient30OnEnteringStatePausedOrStoppedEv
Jdg:_Collection_1_System_Collections_ICollection_get_SyncRoot_m2157752542_gshared
hOk:__ZN13dynamic_arrayIPK10Il2CppTypeLj4EE6assignEPKS2_S5_
My:__ZN7mecanim5human12HumanPoseAddERNS0_9HumanPoseERKS1_S4_
Htk:_UnityAction_1__ctor_m2836997866_gshared
ZJj:_Animator_ResetTrigger_m865269317
Rt:__Z14resize_trimmedINSt3__26vectorI24CompressedAnimationCurve13stl_allocatorIS2_L18MemLabelIdentifier25ELi16EEEEEvRT_j
roi:__ZL64AssemblyLoadEventArgs_t4233815743_CustomAttributesCacheGeneratorP21CustomAttributesCache
Mcg:_Collection_1_IsFixedSize_m218241296_gshared
Uvk:_Time_get_timeScale_m3151482970
Tti:__ZL181U3CCreateWhereIteratorU3Ec__Iterator1D_1_t2523986802_CustomAttributesCacheGenerator_U3CCreateWhereIteratorU3Ec__Iterator1D_1_System_Collections_IEnumerable_GetEnumerator_m3687475306P21CustomAttributesCache
Pea:__ZN15dense_hashtableINSt3__24pairIKNS0_12basic_stringIcNS0_11char_traitsIcEE13stl_allocatorIcL18MemLabelIdentifier54ELi16EEEEP11AssetBundleEES8_11djb2_hash_tIS8_EN14dense_hash_mapIS8_SB_SE_NS0_8equal_toIS8_EENS0_9allocatorISC_EEE9SelectKeyESH_SJ_EC2ERKSM_j
K6a:__Z24MergeTransformComponentsR9TransformS0_b
Ljd:__ZThn24_N5physx2Sc20ArticulationJointSimD0Ev
BLj:_DelegatePInvokeWrapper_AudioConfigurationChangeHandler_t3743753033
DUg:_MonoIO_get_PathSeparator_m2635828107
GDh:_TypeInfo_get_TypeName_m1722081275
EQc:__ZN15b2CircleContactD0Ev
UZg:_MonoType_get_Name_m865859211
oSf:_CultureInfo__cctor_m2290268677
LXj:_ArrayReadOnlyList_1_System_Collections_IEnumerable_GetEnumerator_m3039869667_gshared
e5e:_String_Trim_m3982520224
Rdd:__ZN5physx14PxsAABBManager12createBPElemEv
BCh:_RemotingConfiguration__cctor_m2129988840
pag:_Collection_1_Insert_m44548038_gshared
HAd:__ZThn12_N5physx7NpShape14onRefCountZeroEv
Z$c:__ZL26GeomMTDCallback_ConvexMeshRN5physx6PxVec3ERfRKNS_10PxGeometryERKNS_11PxTransformES5_S8_
dbi:__ZL42Il2CppArray_CustomAttributesCacheGeneratorP21CustomAttributesCache
XIb:__ZNK13MonoBehaviour25GetNeedsPerObjectTypeTreeEv
kud:__ZN5physx15NpActorTemplateINS_18PxArticulationLinkEE22setClientBehaviorFlagsENS_7PxFlagsINS_25PxActorClientBehaviorFlag4EnumEhEE
mk:_emscripten_glVertexAttribPointer
Vqa:__ZN14PreloadManager26UpdatePreloadingSingleStepENS_21UpdatePreloadingFlagsEi
CPi:_Material__ctor_m1440882780
p_e:_SHA512Managed_Initialize_m891287980
ige:__ZN18ScBeforeSolverTask11runInternalEv
Mwa:__Z19InitializeGfxDevicej
E1e:_SecurityException__ctor_m1484114982
hck:_SinkProviderData_get_Children_m100594762
Epk:_X509Crl_GetHashName_m183504634
Arf:_Array_GetValue_m1507415734
Imc:__Z57Register_UnityEngine_RectTransform_INTERNAL_set_anchorMinv
hJg:_Object_MemberwiseClone_m2655589444
tgd:__ZL33GeomOverlapCallback_CapsuleConvexRKN5physx10PxGeometryERKNS_11PxTransformES2_S5_PNS_2Gu12TriggerCacheE
Thg:_ReadOnlyCollection_1_System_Collections_IList_get_Item_m375043207_gshared
soa:__ZN6prcoreL25inner_stretch_i8_bilinearEPKNS_9InnerInfoE
rY:__ZN11UnityEngine15CloudWebService13WWWRestClient17GetResponseStatusEv
_Rg:_DirectoryInfo_ToString_m4208086799
jOj:_Collision_get_transform_m4132935520
GVh:_MonoMethod_get_IsGenericMethod_m4276550811
OZh:_Transform_1_BeginInvoke_m3826027984_gshared
JJj:_AnimationEvent_set_time_m2162176572
vGf:_Decimal_op_Implicit_m2149927308
Dzk:_UnityEvent_1_RemoveListener_m4000386396_gshared
ale:__ZN5physx20InternalTriangleMesh9loadRTreeERNS_13PxInputStreamEj
NMd:__ZN5physx19NpRigidBodyTemplateINS_14PxRigidDynamicEE25setCMassLocalPoseInternalERKNS_11PxTransformE
$Yf:_List_1_set_Capacity_m895816763_gshared
BNd:__ZNK5physx15NpActorTemplateINS_13PxRigidStaticEE14getOwnerClientEv
iCl:__ZNSt3__212basic_stringIwNS_11char_traitsIwEENS_9allocatorIwEEE9__grow_byEjjjjjj
pbl:__ZN6il2cpp6icalls8mscorlib6System9AppDomain22InternalGetProcessGuidEP12Il2CppString
qG:__ZNK25RuntimeAnimatorController30GetAnimationClipOverrideVectorEv
WId:__ZN5physx2Sc18ParticleSystemCore16releaseParticlesEv
P4g:_KeyPairPersistence_get_UseMachineKeyStore_m560802076
z1d:__ZNK5physx2Gu29EPASupportMapPairRelativeImplINS0_8CapsuleVENS0_4BoxVEE6getDirEv
p7f:_Collection_1_CopyTo_m1840908033_gshared
z8c:__ZN5physx2Gu20intersectTriangleBoxERKNS_6shdfnd3aos5Vec3VES5_S5_S5_S5_
U8j:_Enumerator_System_Collections_IDictionaryEnumerator_get_Entry_m345330700_AdjustorThunk
hSk:__ZNSt3__214__split_bufferIP9FieldInfoRNS_9allocatorIS2_EEEC2EjjS5_
Wog:_AbstractEventData__ctor_m3586111519
$Pb:__Z18Transfer_BlittableI24GenerateTypeTreeTransferLb1EjEvRK29SerializationCommandArgumentsR31RuntimeSerializationCommandInfo
Ndh:_MD2Managed_Padding_m410163267
Cyj:_Toggle_UnityEngine_UI_ICanvasElement_get_transform_m4177274032
Mnb:__ZN11ColorRGBA328TransferI14SafeBinaryReadEEvRT_
Jse:__ZN5physx6shdfnd5ArrayIPvNS0_19ReflectionAllocatorINS_24NpPtrTableStorageManager8PtrBlockILi4EEEEEE15growAndPushBackERKS2_
UHb:__ZN24RingBufferMemoryFileData4LockEPPv
A5f:_List_1_set_Capacity_m1734764639_gshared
b7j:_DefaultComparer__ctor_m76117625_gshared
jua:__Z11IsHDRFormat13TextureFormat
WLj:_Bounds__ctor_m1202659404_AdjustorThunk
jg:_emscripten_glClearDepth
Vpb:__ZN8Playable12SetPlayStateE9PlayState
eoj:__Z70RuntimeInvoker_Boolean_t3825574718_Il2CppObject_BooleanU26_t3168250738PK10MethodInfoPvPS2_
ovb:__ZN14SafeBinaryRead21TransferSTLStyleArrayINSt3__26vectorIN15QualitySettings14QualitySettingENS1_9allocatorIS4_EEEEEEvRT_17TransferMetaFlags
onf:_Array_swap_TisVector2_t2243707579_m3359959735_gshared
oSg:_File_OpenText_m4058508963
rOj:_Collision_get_frictionForceSum_m3438602686
t9i:__Z54RuntimeInvoker_Double_t4078015681_Interval_t2354235237PK10MethodInfoPvPS2_
SDb:__ZNSt3__26vectorINS_4pairIPKN5Unity4TypeE7Hash128EENS_9allocatorIS7_EEE8__appendEj
HDh:_WellKnownClientTypeEntry__ctor_m670594074
vEi:__ZL61FontData_t2614388407_CustomAttributesCacheGenerator_m_MinSizeP21CustomAttributesCache
Lu:__ZN18StreamedBinaryReadILb1EE8TransferIN7mecanim13ValueConstantEEEvRT_PKc17TransferMetaFlags
QJf:_DateTime_System_IConvertible_ToSingle_m3927769066_AdjustorThunk
yph:_ListDictionary_get_SyncRoot_m1212356752
ZHe:_cff_font_load
gxk:_Enumerator_Reset_m950879083
Clh:_RecordProtocol_SendRecord_m2977889250
V3d:__ZN5physx35solveContactPreBlock_ConcludeStaticEPKNS_23PxcSolverConstraintDescEjRNS_16PxcSolverContextE
tua:__ZL22stbir__encode_scanlineP11stbir__infoiPvPfiii
D9i:__Z84RuntimeInvoker_Void_t1841601450_Int32_t2071877448_Int32_t2071877448_SByte_t454417549PK10MethodInfoPvPS2_
ewe:__ZN20QuadTreeNodeRenderer13StaticDestroyEPv
CT:__ZN14AudioBehaviourD2Ev
T3b:__ZN9Transform12CleanupClassEv
bll:__ZN6il2cpp6icalls8mscorlib6System9Threading16NativeEventCalls19CloseEvent_internalE12Il2CppIntPtr
shh:_ClientContext_set_ClientHelloProtocol_m2246603449
Hid:__ZN5physx6shdfnd5ArrayIPvNS0_15InlineAllocatorILj256ENS0_19ReflectionAllocatorINS_2Cm5BlockIS2_Lj32EEEEEEEE15growAndPushBackERKS2_
ife:__ZN5physx18PxsSolverStartTask13setupDescTaskEv
Ize:_UNITY_FT_Set_Pixel_Sizes
AHg:_U3CMouseDragOutsideRectU3Ec__Iterator1_MoveNext_m2845491958
HZb:__ZNSt3__26vectorIN9ShaderLab19SerializedSubShaderENS_9allocatorIS2_EEE26__swap_out_circular_bufferERNS_14__split_bufferIS2_RS4_EE
YWk:__ZNK15dense_hashtableINSt3__24pairIK10KeyWrapperINS1_IPK10MethodInfoP11Il2CppClassEEEjEES9_17ReflectionMapHashIS8_EN14dense_hash_mapIS9_jSD_19ReflectionMapEqualsIS8_ENS0_9allocatorISB_EEE9SelectKeyESG_SI_E10test_emptyEj
cv:__ZN11UnityEngine9Animation28AnimationClipBindingConstant8TransferI24GenerateTypeTreeTransferEEvRT_
Rii:__ZL59IChannelReceiver_t2788889625_CustomAttributesCacheGeneratorP21CustomAttributesCache
aug:_StandaloneInputModule_IsModuleSupported_m623598506
z_c:__ZN5physx3Cct13BoxController6resizeEf
_1i:__Z31RuntimeInvoker_Byte_t3683104436PK10MethodInfoPvPS2_
zXh:_ResourceReader_Close_m3256966401
eIh:_SByte_ToString_m4105923225_AdjustorThunk
Kib:_LZ4_compress_generic
cGh:_StreamingContext_t1417235061_marshal_pinvoke_cleanup
sSf:_CultureInfo_ConstructCurrentUICulture_m3363349599
sui:__ZL87Component_t3819376471_CustomAttributesCacheGenerator_Component_GetComponent_m3720754210P21CustomAttributesCache
utf:__ZN21InterfaceFuncInvoker1IxP12Il2CppObjectE6InvokeEjP11Il2CppClassPvS1_
mZg:_MonoType_GetEvent_m4160342003
urj:_RawImage_set_texture_m2400157626
Oge:__ZN5physx6shdfnd5ArrayINS_2Cm12DelegateTaskINS_2Sc5SceneEXadL_ZNS5_19updateCCDSinglePassEPNS_10PxBaseTaskEEEEENS0_19ReflectionAllocatorIS8_EEE8recreateEj
DCk:_PrimeHelper_ToPrime_m1606935350_gshared
UJe:_Dual_Project
_6h:_EqualityComparer_1__ctor_m81618677_gshared
I4a:__ZNSt3__27__sort4IRNS_6__lessI11CulledLightS2_EEPS2_EEjT0_S6_S6_S6_T_
Y$k:__ZN6il2cpp2vm14TypeNameParser26ParseArrayModifierOptionalEv
Y$g:_MSCompatUnicodeTable_Level3_m260824928
$Hg:_LayoutElement_OnEnable_m3478706401
jNh:_ConstructorBuilder_get_CallingConvention_m443074051
q3k:__ZN6il2cpp6icalls8mscorlib6System10Reflection8Assembly13get_code_baseEP24Il2CppReflectionAssemblyb
Iud:__ZN5physx34NpShapeGetScRigidObjectFromScbSLOWERKNS_3Scb5ShapeE
qNi:_GUIStyle_CalcMinMaxWidth_m2027503105
tdj:__Z135RuntimeInvoker_RaycastHit2D_t4063908774_Vector2_t2243707579_Vector2_t2243707579_Single_t2076509932_Int32_t2071877448_Single_t2076509932PK10MethodInfoPvPS2_
v0e:_X509Certificate_Reset_m1676863543
a5g:_KeyPairPersistence_Load_m1355205585
Stj:_ScrollRect_get_horizontalScrollbarVisibility_m4152068235
QOg:_Int32_ToString_m2960866144_AdjustorThunk
JOk:__ZN15dense_hashtableI10KeyWrapperIPK19Il2CppGenericMethodES4_N6il2cpp8metadata23Il2CppGenericMethodHashEN14dense_hash_setIS4_S7_NS6_26Il2CppGenericMethodCompareENSt3__29allocatorIS4_EEE8IdentityES9_SC_E12maybe_shrinkEv
Xrk:_Predicate_1_Invoke_m3539717340_gshared
Aji:__ZL83MethodDictionary_t1742974787_CustomAttributesCacheGenerator_U3CU3Ef__switchU24map21P21CustomAttributesCache
zmd:__ZNK5physx21PxsBodyTransformVault12getTransformERKNS_11PxsBodyCoreE
Lkj:__Z57RuntimeInvoker_Int32_t2071877448_RaycastHit2D_t4063908774PK10MethodInfoPvPS2_
Udl:__ZN6il2cpp6icalls8mscorlib6System11Environment15internalGetHomeEv
RXb:__ZN9ShaderLab26SerializedShaderDependencyC2ERKS0_
Znk:_PKCS12_get_Keys_m288413492
fOk:__ZN13dynamic_arrayIPK10Il2CppTypeLj4EE4backEv
Qjb:__ZNK5Unity9Component7GetNameEv
Imj:__Z49RuntimeInvoker_Slot_t2267560602_Int32_t2071877448PK10MethodInfoPvPS2_
MSk:__ZNSt3__214__split_bufferIN6il2cpp6icalls8mscorlib6System12PropertyPairERNS_9allocatorIS5_EEEC2EjjS8_
Dxa:__ZN13RenderTexture9SetActiveEPS_i11CubemapFaceij
Hpi:__ZL79Convert_t2607082565_CustomAttributesCacheGenerator_Convert_ToUInt16_m2130758075P21CustomAttributesCache
u0c:__ZN44ConvexVsHeightfieldContactGenerationCallback7onEventEjPj
Xzg:__ZN18VirtActionInvoker1IP22GameObject_t1756533147E6InvokeEjPvS1_
Dqi:__ZL58IFormatProvider_t2849799027_CustomAttributesCacheGeneratorP21CustomAttributesCache
mBk:_ObjectPool_1_Get_m3724675538_gshared
I5:__Z27LogRepeatingStringWithFlagsRKNSt3__212basic_stringIcNS_11char_traitsIcEENS_9allocatorIcEEEE15LogMessageFlagsi
P9a:__ZN13ScreenManagerD0Ev
cVa:_UNITY_png_set_error_fn
Ko:FUNCTION_TABLE_diiii
fzl:__ZNKSt3__27codecvtIwc11__mbstate_tE5do_inERS1_PKcS5_RS5_PwS7_RS7_
qSc:__ZNK11b2RopeJoint16GetReactionForceEf
jE:__ZN7mecanim8skeleton26SkeletonPoseComputeGlobalQEPKNS0_8SkeletonEPKNS0_13SkeletonPoseTIN4math4trsXEEEPS7_ii
lCg:_Graphic_UnregisterDirtyMaterialCallback_m819829270
Qwc:__ZN8JSONRead21TransferSTLStyleArrayI13dynamic_arrayIfLj4EEEEvRT_18MemLabelIdentifier17TransferMetaFlags
$1d:__ZN5physx2Gu19_gjkRelativeRayCastINS0_9TriangleVENS0_8CapsuleVEEEbRT_RT0_RKNS_6shdfnd3aos15PsMatTransformVERKNS9_6FloatVERKNS9_5Vec3VESI_RSD_RSG_SK_f
Brc:__ZN11IMGUIModule18MonoBehaviourDoGUIEiR14ObjectGUIStateN13MonoBehaviour13GUILayoutTypeEi21ScriptingMethodIl2Cpp4PPtrIS2_E
D$f:_List_1_GetEnumerator_m2672519407_gshared
QJc:__ZN13TriggerModule8TransferI19StreamedBinaryWriteILb0EEEEvRT_
ID:__ZN9BlobWrite8TransferI22OffsetPtrArrayTransferIiEEEvRT_PKc17TransferMetaFlags
J$g:_ContractionComparer_Compare_m314873025
d9f:_Collection_1_IsFixedSize_m1690655146_gshared
FOb:__Z18Transfer_BlittableI17RemapPPtrTransferLb1EjEvRK29SerializationCommandArgumentsR31RuntimeSerializationCommandInfo
iOi:_GUIUtility_EndGUIFromException_m2091524531
ind:__ZN5physx6shdfnd5ArrayIPvNS0_15InlineAllocatorILj256ENS0_19ReflectionAllocatorINS_11NpAggregateEEEEEE15growAndPushBackERKS2_
gPg:_Int64_System_IConvertible_ToDouble_m638786774
cMd:__ZNK5physx14NpRigidDynamic21getMaxAngularVelocityEv
fQ:__ZN4FMOD6System7releaseEv
$Zd:__ZN5physx6shdfnd8PoolBaseINS_2Sc18TriggerInteractionENS0_19ReflectionAllocatorIS3_EEE15disposeElementsEv
pCf:_HashKeys_get_IsSynchronized_m4207641174
ERb:__Z18Transfer_BlittableI19StreamedBinaryWriteILb0EELb1E8BitFieldEvRK29SerializationCommandArgumentsR31RuntimeSerializationCommandInfo
OTf:_Enumerator_MoveNext_m3078170540_AdjustorThunk
Ote:__ZN5physx28PxcContactCapsuleHeightFieldERKNS_2Gu13GeometryUnionES3_RKNS_11PxTransformES6_RKfRNS_10PxcNpCacheERNS0_13ContactBufferE
T_e:_SymmetricAlgorithm_get_Padding_m718051685
l4:__ZN26RecursivePlayableTraverser8TraverseER9FrameDataP8PlayableS3_P14DirectorPlayeriPvf
Hfg:_Collection_1_IsFixedSize_m1280898648_gshared
Kpb:__ZN15DirectorManager18ScheduleForRemovalEP18PlayableController
p0c:__ZL31PointInConvexPolygon2D_OutCodesPKfjffffRh
nKd:__ZN5physx22NpParticleBaseTemplateINS_16PxParticleSystemENS_16NpParticleSystemEE18setDynamicFrictionEf
Ekc:__Z22Mesh_CUSTOM_HasChannelP12Il2CppObject30InternalScriptingShaderChannel
NDc:__ZL15AccumulateNoiseILb1ELi1EEN4math8floatNx2ERKNS0_8floatNx3ERKfiS6_S6_
Gpa:__ZN6prcoreL17RemapGenericFloatI18TexFormatRGBAFloat17TexFormatRGBFloatEEvPKNS_9InnerInfoE
Tpb:__ZN8Playable11SetDurationEd
vqd:__ZN5physx2Sc21ArticulationJointCore21setInternalComplianceEf
zOc:__ZZN14ParticleSystem15InitializeClassEvEN32FunctorImpl_241kTransformChanged4CallEPviR11MessageData
Eoi:__ZL76Convert_t2607082565_CustomAttributesCacheGenerator_Convert_ToChar_m541258017P21CustomAttributesCache
Soe:__ZNK5physx6shdfnd10Foundation13getErrorLevelEv
hO:__ZN11AudioSource31UpdateEffectVirtualizationStateEb
TMi:_GUIUtility_Internal_GetHotControl_m2510727642
gO:__ZN12AudioManager29ShutdownReinitializeAndReloadEv
enk:_NetscapeCertTypeExtension_Decode_m2210025005
iri:__ZL59StringComparison_t2376310518_CustomAttributesCacheGeneratorP21CustomAttributesCache
Yhe:__ZN5physx2Cm12DelegateTaskINS_2Sc5SceneEXadL_ZNS3_15postNarrowPhaseEPNS_10PxBaseTaskEEEE11runInternalEv
Hue:__Z20ConvertContactToMonoP9Collision
NMc:__ZN17RemapPPtrTransfer8TransferI22ParticleSystemRendererEEvRT_PKc17TransferMetaFlags
PVi:_RectTransform_GetLocalCorners_m1836626405
QDh:_BaseFixupRecord_DoFixup_m1821597450
tSg:_FileLoadException__ctor_m1356374414
ygh:_TlsStream_Reset_m1504601050
B4j:_InternalEnumerator_1_System_Collections_IEnumerator_get_Current_m1810411564_AdjustorThunk
yfc:__Z29GetGlobalAllowNameConversionsv
o0c:__ZL17transformVerticesRfS_S_S_PfjPKN5physx6PxVec3EPKhRKNS1_7PxMat33E
Tte:__ZNK5physx2Gu15HeightFieldUtil31getFaceIndexAtShapePointNoTest2Ejff
cU:__ZN9AudioClip27IsFormatSupportedByPlatformERKNSt3__212basic_stringIcNS0_11char_traitsIcEENS0_9allocatorIcEEEE
tbe:__ZN5physx6shdfnd5ArrayIPNS_14PxLightCpuTaskENS0_13TempAllocatorEE6resizeEjRKS3_
QTh:_Module_GetCustomAttributes_m3581287913
yci:__ZL67Type_t_CustomAttributesCacheGenerator_Type_IsSubclassOf_m2450899481P21CustomAttributesCache
aS:__ZN11AudioSource23VirtualRedirectTransferER18StreamedBinaryReadILb0EE
Od:___syscall91
E4k:__ZN13dynamic_arrayIP12Il2CppObjectLj4EE20resize_uninitializedEjb
a$d:__ZNK5physx2Sq10AABBPruner5sweepERKNS0_9ShapeDataERKNS_6PxVec3ERfRNS0_14PrunerCallbackE
jRb:__ZN10RectOffset8TransferI19StreamedBinaryWriteILb0EEEEvRT_
Y6:__ZL41AssemblyNameMatchesWithOrWithoutExtensionPKcS0_
uib:__ZN21ArchiveStorageCreatorC2Ev
_Vd:__ZN5physx2Sc5Scene21fireCallBacksPostSyncEv
LKj:_AssemblyIsEditorAssembly__ctor_m2639706522
cIa:__ZN14GfxContextGLES43AddRenderSurfaceToDeferredFBOInvalidateListEPK17RenderSurfaceGLES
OMk:__ZN15dense_hashtableINSt3__24pairIK10KeyWrapperINS0_12basic_stringIcNS0_11char_traitsIcEENS0_9allocatorIcEEEEEP11Il2CppClassEES9_N6il2cpp5utils11StringUtils12StringHasherIS8_EEN14dense_hash_mapIS9_SC_SI_NS0_8equal_toIS9_EENS6_ISD_EEE9SelectKeyESL_SM_EC2EjRKSI_RKSL_RKSO_
G0d:__ZN5physx17PxsCCDAdvanceTask11runInternalEv
cka:__ZN11NamedObject23VirtualRedirectTransferER14SafeBinaryRead
FOk:__ZN15dense_hashtableI10KeyWrapperIPK19Il2CppGenericMethodES4_N6il2cpp8metadata23Il2CppGenericMethodHashEN14dense_hash_setIS4_S7_NS6_26Il2CppGenericMethodCompareENSt3__29allocatorIS4_EEE8IdentityES9_SC_E15insert_noresizeERKS4_
vze:__ZNSt3__26vectorIN20TextRenderingPrivate8FontImpl13CharacterInfoE13stl_allocatorIS3_L18MemLabelIdentifier1ELi16EEE6insertENS_11__wrap_iterIPKS3_EERS9_
gra:__ZN23PreloadManagerOperation6IsDoneEv
Ofb:__ZN15SerializeTraitsINSt3__24pairI8UnityStrN11AssetBundle9AssetInfoEEEE8TransferI19StreamedBinaryWriteILb0EEEEvRS5_RT_
K8g:_X509Certificate_get_RawData_m3000055075
bKk:__ZNSt3__26vectorIPK10Il2CppTypeNS_9allocatorIS3_EEE21__push_back_slow_pathIRKS3_EEvOT_
w9b:__Z33GetHasChangedDeprecatedSystemMaskv
Jal:__ZN6il2cpp5utils11StringUtils11Utf16ToUtf8ERKNSt3__212basic_stringIDsNS2_11char_traitsIDsEENS2_9allocatorIDsEEEE
GRg:_MonoIO_GetException_m2577367044
Had:__ZN5physx3Cct26CharacterControllerManagerD2Ev
$Xh:_Enumerator_VerifyState_m1165543189_AdjustorThunk
wKf:_DateTime_AddSeconds_m722082155_AdjustorThunk
Ezf:_SynchronizedArrayListWrapper_CopyTo_m956887031
p7j:_Comparer_1__ctor_m1202126643_gshared
eva:__ZN21LightProbeProxyVolume18HasHardwareSupportEv
y0a:__ZN26LightProbeProxyVolumeCacheC2ER13BatchRendererR15RenderLoopStats
noa:__ZN6prcoreL31inner_stretch_argb8888_bilinearEPKNS_9InnerInfoE
mVb:__Z18Transfer_BlittableI18StreamedBinaryReadILb1EELb1E8BitFieldEvRK29SerializationCommandArgumentsR31RuntimeSerializationCommandInfo
$Be:_UNITY_FT_Outline_Decompose
EEk:__ZL23UnresolvedVirtualCall_8P12Il2CppObjectS0_S0_PK10MethodInfo
Gjh:_TlsClientCertificate_get_ClientCertificate_m3062440489
d1e:_StrongNamePublicKeyBlob_ToString_m3721281223
KAi:__ZL80UnityEvent_t408735097_CustomAttributesCacheGenerator_UnityEvent__ctor_m588741179P21CustomAttributesCache
J_j:_InternalEnumerator_1_get_Current_m198513457_AdjustorThunk
h0d:__ZN5physx6shdfnd8internal8HashBaseINS0_4PairIKNS3_IPKNS_12PxsRigidCoreEPKNS_12PxsShapeCoreEEEPNS_11PxsCCDShapeEEESA_NS0_4HashISA_EENS1_11HashMapBaseISA_SD_SG_NS0_9AllocatorEE6GetKeyESI_Lb1EE15reserveInternalEj
F2j:_InternalEnumerator_1__ctor_m1240086835_AdjustorThunk
fY:__ZN11UnityEngine15CloudWebService10RestClientINS0_16WWWRestHeaderMapEED2Ev
cic:__Z31Display_CUSTOM_GetSystemExtImpl13Il2Cpp_IntPtrPiS0_
opc:__Z58Register_UnityEngine_Object_Internal_CloneSingleWithParentv
iMg:_TextInfo_ToUpper_m299550697
hZh:_ShimEnumerator_get_Entry_m2332479818_gshared
QWd:__ZN5physx2Sc5Scene21setDominanceGroupPairEhhRKNS_20PxDominanceGroupPairE
mng:_ReadOnlyCollection_1_System_Collections_IList_Contains_m4073811941_gshared
O2a:__ZN18ShadowMapJobHeaderD0Ev
oBg:_Graphic_OnRectTransformDimensionsChange_m1610753363
sIf:_Convert_ToUInt16_m3265369225
O:Math_exp
OYg:_MonoEnumInfo_get_Cache_m3551569711
Cp:FUNCTION_TABLE_iiifi
ybl:__ZN6il2cpp2os5posix13PosixAutoLockD2Ev
Mbf:_Array_InternalArray__ICollection_Contains_TisVector3_t2243707580_m3625701788_gshared
jxa:__ZNSt3__26vectorINS_4pairIyP17VertexDeclarationEENS_9allocatorIS4_EEE6insertENS_11__wrap_iterIPKS4_EERS9_
vUk:_il2cpp_object_get_virtual_method
hGe:_cff_get_advances
eYa:__ZNK17MeshRenderingData30ExtractMeshBuffersAndDrawRangeEjiR11MeshBuffersR16DrawBuffersRangeb
HBe:_UNITY_FT_Create_Class_sfnt_module_class
Txj:_Text_CalculateLayoutInputHorizontal_m1578553982
nwi:__ZL87Object_t1021602117_CustomAttributesCacheGenerator_Object_DestroyObject_m282495858____t1P21CustomAttributesCache
Acl:__ZNSt3__218uninitialized_copyIPNS_4pairIK10KeyWrapperIP14Il2CppIUnknownEjEES8_EET0_T_SA_S9_
oOd:__ZN5physx7NpScene12loadFromDescERKNS_11PxSceneDescE
QMf:_Decimal_IsZero_m3557909184_AdjustorThunk
bxf:_Char_ToString_m1401375624
BWe:_MD5CryptoServiceProvider__cctor_m3309191799
X1:__ZNK10FileSystem16LastErrorMessageEv
i3f:__ZN21InterfaceFuncInvoker0I20UIVertex_t1204258818E6InvokeEjP11Il2CppClassPv
bzh:_InterpreterFactory_get_NamesMapping_m3186583301
yck:_ConfigHandler_ReadCustomProviderData_m784203316
ncc:__ZN11TimeManager16HasFixedTimeStepEv
zVf:_Enumerator_System_Collections_IEnumerator_Reset_m3052395060_gshared
eVe:__ZN22UnityWebRequestManager10InitializeEv
dgb:__ZN17PersistentManager24GetTypeFromPathAndFileIDERKNSt3__212basic_stringIcNS0_11char_traitsIcEENS0_9allocatorIcEEEEx
Sbh:_Kernel_DwordDivMod_m3728402123
SIb:__ZN13MonoBehaviour13AwakeFromLoadE17AwakeFromLoadMode
BVc:__ZN16CircleCollider2D14CreateInternalEP11Rigidbody2D
xOb:__ZL26Transfer_SimpleNativeClassI17RemapPPtrTransfer8GradientLb1EEvRK29SerializationCommandArgumentsR31RuntimeSerializationCommandInfo
K9b:__ZN12CachedWriter9InitWriteER15CacheWriterBase
Lpc:__Z21UnsignedInt64ToStringy
mzj:_UTF7Decoder__ctor_m549434986
OWd:__ZN5physx14PxsAABBManager15createAggregateEPvb
h5j:_InternalEnumerator_1_get_Current_m1025321669_AdjustorThunk
oSi:_Object_t1021602117_marshal_pinvoke
alc:__Z36MonoBehaviour_CUSTOM_InvokeRepeatingP12Il2CppObjectP12Il2CppStringff
_yk:_WaitForSecondsRealtime_get_keepWaiting_m741039114
Roc:__Z66Register_UnityEngine_Transform_INTERNAL_CALL_InverseTransformPointv
f0j:_InternalEnumerator_1_MoveNext_m2720582493_gshared
KZf:_List_1_IndexOf_m1434084853_gshared
fb:invoke_iiiiifiiiif
Qel:__ZN15dense_hashtableINSt3__24pairIK10KeyWrapperIPK19Il2CppGenericMethodEP10MethodInfoEES6_N6il2cpp8metadata23Il2CppGenericMethodHashEN14dense_hash_mapIS6_S9_SD_NSC_26Il2CppGenericMethodCompareENS0_9allocatorISA_EEE9SelectKeyESF_SH_E5clearEv
Xxh:_Group__ctor_m4103922028
nVa:__ZN6Camera26ClearIntermediateRenderersEj
$Qk:__ZNSt3__214__split_bufferI6pollfdRNS_9allocatorIS1_EEEC2EjjS4_
FUa:_UNITY_png_write_pCAL
dOl:_glLinkProgram__wrapper
Uoa:__ZN6prcoreL12RemapGenericI17TexFormatARGB888815TexFormatBGR888EEvPKNS_9InnerInfoE
HWe:_MD5CryptoServiceProvider_ProcessFinalBlock_m1052610785
Uzf:_BitArray_Set_m2878881714
hIk:__ZL25UnresolvedVirtualCall_201P12Il2CppObjectPK10MethodInfo
aeg:_Collection_1_get_Item_m4215988522_gshared
CAd:__ZN5physx7NpShape8requiresERNS_23PxProcessPxBaseCallbackE
s4k:__ZN6il2cpp6icalls8mscorlib6System13Globalization11CultureInfo35construct_internal_locale_from_nameEP17Il2CppCultureInfoP12Il2CppString
A_i:__Z58RuntimeInvoker_Il2CppObject_Int32_t2071877448_Il2CppObjectPK10MethodInfoPvPS2_
j9f:__ZN18VirtActionInvoker2Ii40CustomAttributeTypedArgument_t1498197914E6InvokeEjPviS0_
EPb:__ZL22Transfer_ManagedObjectI24GenerateTypeTreeTransferLb1EEvRK29SerializationCommandArgumentsR31RuntimeSerializationCommandInfo
kHk:__ZL25UnresolvedVirtualCall_150P12Il2CppObject38CustomAttributeNamedArgument_t94157543PK10MethodInfo
Lhi:__ZL55COMException_t1790481504_CustomAttributesCacheGeneratorP21CustomAttributesCache
w3g:_ASN1_get_Count_m404940548
Tdk:_ContextAttribute_Equals_m53324298
EGg:_InputField_MoveLeft_m688575903
xk:_emscripten_set_main_loop_timing
dic:__Z34Display_CUSTOM_GetRenderingExtImpl13Il2Cpp_IntPtrPiS0_
ENk:__ZN15dense_hashtableINSt3__24pairIK10KeyWrapperI13dynamic_arrayIPK10Il2CppTypeLj4EEEPFvvEEES8_N6il2cpp8metadata19Il2CppSignatureHashEN14dense_hash_mapIS8_SB_SF_NSE_22Il2CppSignatureCompareENS0_9allocatorISC_EEE9SelectKeyESH_SJ_E12resize_deltaEjj
fJj:_WeakReference_AllocateHandle_m1783929473
sqd:__ZN5physx2Sc21ArticulationJointCore22setTangentialStiffnessEf
d7d:__ZNK5physx20SingleAABBUpdateTask7getNameEv
i8a:__ZN14ImageReference10FlipImageYEv
OQj:_DebugLogHandler_LogFormat_m177245518
CIc:__ZN21InheritVelocityModule8TransferI17RemapPPtrTransferEEvRT_
Qlb:__Z32TransferEnumWithNameForceIntSizeI14SafeBinaryRead13TargetEyeMaskEvRT_RT0_PKc17TransferMetaFlags
urc:__Z14GetDefaultSkini
uSf:_CultureInfo_get_Name_m3316229893
mKf:_DateTime_get_Ticks_m310281298_AdjustorThunk
CL:__ZN4FMOD3DSP9setBypassEb
jfg:_Collection_1_System_Collections_IList_get_Item_m287847793_gshared
Geb:__Z19NormalizeWheelInputf
Jxh:_CaptureCollection_CopyTo_m1982767892
Ibb:__Z29StdTemplateConversionFunctionIsaEbPvR14SafeBinaryRead
Ubf:_Array_InternalArray__ICollection_Remove_TisLink_t865133271_m1984184141_gshared
bxc:__Z29Transfer_Blittable_ArrayFieldI8JSONReadhEvRT_R9ArrayInfoRK23StaticTransferFieldInfo
IIg:_LayoutRebuilder_IsDestroyed_m3442208294
pdc:__ZN11MonoManager25GetImageFromAssemblyIndexEi
bFd:__ZN5physx2Sc9ClothCore17addCollisionPlaneERKNS_21PxClothCollisionPlaneE
nLf:_DateTimeOffset_Equals_m3467127074
mSa:__ZZ23InitPlayerLoopCallbacksvEN43PostLateUpdateClearImmediateRenderersstruct7ForwardEv
Czc:__Z18Transfer_BlittableI9JSONWriteLb1EtEvRK29SerializationCommandArgumentsR31RuntimeSerializationCommandInfo
uSg:_FileLoadException__ctor_m918124939
Pk:___syscall85
nke:__ZNK5physx13PxHeightField8isKindOfEPKc
pxf:__ZN18VirtActionInvoker1IP12Il2CppObjectE6InvokeEjPvS1_
aZa:__ZNSt3__26__sortIRPFbP10GUIElementS2_EPS2_EEvT0_S7_T_
Ach:_SequentialSearchPrimeGeneratorBase_GenerateSearchBase_m2930465198
zze:__Z14ValidateFormatR13dynamic_arrayIN20TextRenderingPrivate16TextFormatChangeELj4EE
_R:__ZNK11AudioSource26GetTypeInfoVirtualInternalEv
gph:__ZN23InterfaceActionInvoker2IP12Il2CppObjectS1_E6InvokeEjP11Il2CppClassPvS1_S1_
SJk:__ZN6il2cpp2vmL21SetupInterfacesLockedEP11Il2CppClassRKNS_2os12FastAutoLockE
CGd:__ZNK5physx15NpActorTemplateINS_15PxParticleFluidEE12getAggregateEv
Qhe:__ZNK5physx2Sc18ParticleSystemCore16getInternalFlagsEv
xxh:_Capture__ctor_m885749277
qMi:_GUIStyle_set_clipOffset_m3871613343
CEg:_SubmitEvent__ctor_m222860306
m9c:__ZN16ControllerFilter9preFilterERKN5physx12PxFilterDataEPKNS0_7PxShapeEPKNS0_12PxRigidActorERNS0_7PxFlagsINS0_9PxHitFlag4EnumEtEE
tX:__ZN11UnityEngine15CloudWebService14DataDispatcher15SetupWebRequestEv
o5i:__Z94RuntimeInvoker_Int32_t2071877448_Il2CppObject_Int32_t2071877448_Il2CppObject_Int32_t2071877448PK10MethodInfoPvPS2_
JWg:_TextWriter__cctor_m4047845042
$lh:_ReceiveRecordAsyncResult_get_Record_m1336421357
aSe:__ZN11UnityEngine15PlatformWrapper13GetShaderCapsEv
nff:__ZN16VirtFuncInvoker2IbP12Il2CppObjectS1_E6InvokeEjPvS1_S1_
$5d:__ZN16MBPOS_TmpBuffers16allocateSleepingEjj
Boi:__ZL76Convert_t2607082565_CustomAttributesCacheGenerator_Convert_ToByte_m509311047P21CustomAttributesCache
WEg:_InputField_CaretBlink_m3960486606
Ak:_emscripten_glGetProgramiv
DPb:__Z65EmitSerializationCommandsForLinearCollectionOfManagedObjectsFieldI24GenerateTypeTreeTransferEvRK23TransferArrayField_InfoR20SerializationCommandR32SerializationCommandQueueBuilderRP20AllowNameConversions
odk:__ZN23InterfaceActionInvoker3IP12Il2CppObjectbbE6InvokeEjP11Il2CppClassPvS1_bb
A5g:_SmallXmlParser_ReadCharacters_m1966365555
Jnh:_InternalAsyncResult_get_CompletedWithError_m3993955322
F7b:__ZN21FixedBehaviourManager6UpdateEv
lbc:__ZN9Transform9SetParentEPS_NS_15SetParentOptionE
kig:_ReadOnlyCollection_1_System_Collections_IList_Add_m527174473_gshared
jJc:__ZN15CollisionModule8TransferI18StreamedBinaryReadILb0EEEEvRT_
Dye:__ZNK20TextRenderingPrivate7FontRefltERKS0_
vsa:__ZN19RuntimeSceneManager24BeginIntegrateMainThreadEP10UnityScene
Baj:__Z42RuntimeInvoker_RuntimePlatform_t1869584967PK10MethodInfoPvPS2_
fod:__ZN5physx14NpArticulation26setExternalDriveIterationsEj
S0c:__ZN16RayRTreeCallbackILi0ELb0EED0Ev
caj:__Z80RuntimeInvoker_Void_t1841601450_Il2CppObject_Int32_t2071877448_Int16_t4041245914PK10MethodInfoPvPS2_
xbe:__ZN5physx20PxsParticleSystemSim23scheduleCollisionUpdateERNS_10PxBaseTaskE
Zfl:__ZNSt3__2plIcNS_11char_traitsIcEENS_9allocatorIcEEEENS_12basic_stringIT_T0_T1_EERKS9_S6_
I3i:__Z53RuntimeInvoker_MonoEventInfo_t2190036573_Il2CppObjectPK10MethodInfoPvPS2_
AXg:_LocalDataStoreSlot__cctor_m1192669356
lZb:__ZN9ShaderLab20SerializedSubProgramaSERKS0_
PDl:_roundf
O6e:_String_CreateString_m2556700934
_kb:__ZN18StreamedBinaryReadILb0EE21TransferSTLStyleArrayINSt3__26vectorI17SortingLayerEntryNS2_9allocatorIS4_EEEEEEvRT_17TransferMetaFlags
uxi:__ZL80Physics_t634932869_CustomAttributesCacheGenerator_Physics_RaycastAll_m3650851272P21CustomAttributesCache
ccd:__ZN5physx15PxBoxControllerD0Ev
lx:__ZN8Animator15SetPrepareStageEv
Ewj:_Slider_get_axis_m162140813
GUh:_MonoEventInfo_t2190036573_marshal_pinvoke
TJk:__ZN6il2cpp2vmL24SetupTypeHierarchyLockedEP11Il2CppClassRKNS_2os12FastAutoLockE
gWk:__ZN15dense_hashtableINSt3__24pairIK10KeyWrapperIPK10Il2CppTypeEjEES6_N6il2cpp8metadata14Il2CppTypeHashEN14dense_hash_mapIS6_jSB_NSA_17Il2CppTypeCompareENS0_9allocatorIS8_EEE9SelectKeyESD_SF_E4findERS7_
M0a:__Z20CalculateLightMatrixRK15SharedLightDataP10Matrix4x4f
_uj:_ScrollRect_SetLayoutHorizontal_m3486408020
Zye:_destroy_face
lCk:_GenericEqualityComparer_1_GetHashCode_m116190842_gshared
wfi:__ZL55StreamWriter_t3858580635_CustomAttributesCacheGeneratorP21CustomAttributesCache
Acd:__ZN5physx19PxAllocatorCallbackD2Ev
Bkl:__ZN6il2cpp6icalls8mscorlib6System8Security12Cryptography24RNGCryptoServiceProvider13RngInitializeEP11Il2CppArray
W3f:_List_1_System_Collections_ICollection_get_IsSynchronized_m227393674_gshared
XNc:__ZN21RotationBySpeedModuleD0Ev
wrh:_IPAddress__cctor_m3624830012
PJd:__ZNK5physx15NpActorTemplateINS_16PxParticleSystemEE17getDominanceGroupEv
US:__ZN20SoundChannelInstance7setMuteEb
wwj:_Slider_Rebuild_m3442875945
fpb:__ZN4PPtrI5LightE8TransferI19StreamedBinaryWriteILb0EEEEvRT_
Aad:__ZN5physx3Cct26CharacterControllerManager21createObstacleContextEv
_xi:__ZL115AnimatorStateInfo_t2577870592_CustomAttributesCacheGenerator_AnimatorStateInfo_t2577870592____nameHash_PropertyInfoP21CustomAttributesCache
qth:_AsnEncodedData_EnhancedKeyUsageExtension_m1452131166
ixl:__ZNSt3__210moneypunctIcLb0EED2Ev
lGi:__ZL69Scrollbar_t3248359358_CustomAttributesCacheGenerator_m_OnValueChangedP21CustomAttributesCache
TVb:__Z19TransferField_ArrayI18StreamedBinaryReadILb1EE27Converter_SimpleNativeClassI17AnimationCurveTplIfEEEvRK23StaticTransferFieldInfoR31RuntimeSerializationCommandInfoRT0_
SSf:_KeyValuePair_2__ctor_m3201181706_gshared
YYc:__ZN7b2World18SetContactListenerEP17b2ContactListener
iJd:__ZN5physx15NpActorTemplateINS_15PxParticleFluidEE7releaseEv
cyh:_GroupCollection_get_IsSynchronized_m1100663675
kEa:__ZN18GfxFramebufferGLES22MakeCurrentFramebufferENS_7BuiltinE
xkl:__ZN6il2cpp2vm12MarshalAlloc4FreeEPv
Dyh:_Interpreter_Close_m1500459069
AQd:__ZN5physx6shdfnd5ArrayIPNS_2Sc19ShapeInstancePairLLENS0_19ReflectionAllocatorIS4_EEE15growAndPushBackERKS4_
h0f:_List_1_System_Collections_ICollection_get_SyncRoot_m690028787_gshared
QFb:__ZN30RuntimeInitializeOnLoadManager23VirtualRedirectTransferER18StreamedBinaryReadILb1EE
nja:__ZN12CachedReader4ReadEPvj
k5d:__ZN5physx21MBPPostUpdateWorkTaskD0Ev
Tdd:__ZN5physx14PxsAABBManager19createAggregateElemEv
tsd:__ZN5physx2Sc8BodyCore24clearSpatialAccelerationEbb
Txi:__ZL105AudioSource_t1135106623_CustomAttributesCacheGenerator_AudioSource_PlayClipAtPoint_m1469997862____volume2P21CustomAttributesCache
FZe:_SHA1Internal_HashFinal_m3188468925
wyk:_Vector3_op_Inequality_m799191452
_1k:__ZN30dense_hashtable_const_iteratorINSt3__24pairIK10KeyWrapperIP11Il2CppClassES4_EES5_N6il2cpp8metadata16SZArrayClassHashEN14dense_hash_mapIS5_S4_SA_NS9_19SZArrayClassCompareENS0_9allocatorIS7_EEE9SelectKeyESC_SE_E30advance_past_empty_and_deletedEv
P0a:__Z24CalculateLightShadowFadeRK6CamerafffR8Vector4f
c7:__ZN19RuntimeSceneManagerD2Ev
Ari:__ZL55HeaderHandler_t324204131_CustomAttributesCacheGeneratorP21CustomAttributesCache
Ebk:_ChannelData_get_CustomProperties_m1470957369
nWk:__ZNK15dense_hashtableINSt3__24pairIK10KeyWrapperIPK10Il2CppTypeEjEES6_N6il2cpp8metadata14Il2CppTypeHashEN14dense_hash_mapIS6_jSB_NSA_17Il2CppTypeCompareENS0_9allocatorIS8_EEE9SelectKeyESD_SF_E12test_deletedEj
moa:__ZN6prcore17GetIntegerBlitterE13TextureFormatS0_N14ImageReference8BlitModeE
tQd:__ZN5physx10PxsContext20createContactManagerERKNS_24PxvManagerDescRigidRigidEPNS_18PxsMaterialManagerE
VTc:__ZN13BoxCollider2DD0Ev
yYh:_Enumerator_VerifyState_m3173176371_AdjustorThunk
GOd:__ZN5physx2Cm12DelegateTaskINS_7NpSceneEXadL_ZNS2_12executeSolveEPNS_10PxBaseTaskEEEED0Ev
z1c:__ZN5physx2GuL18gPCMHullPrefetchCBEjPKNS_6PxVec3E
oid:__ZN5physx2Sc5Scene31removeActiveBreakableConstraintEPNS0_13ConstraintSimE
VPg:_Int64_ToString_m1275187741
zqh:_TypeConverterAttribute__cctor_m506796812
D8e:_Encoding_get_IsReadOnly_m3729101432
xfc:__ZN9BlobWrite14ReduceCopyImplERK14ReduceCopyDataj
IIj:_ValueType_t3507792607_marshal_pinvoke_back
v7j:_Comparer_1_System_Collections_IComparer_Compare_m1790257529_gshared
Foj:__Z37RuntimeInvoker_Enumerator_t3220004478PK10MethodInfoPvPS2_
JTh:_MethodInfo_get_ContainsGenericParameters_m572340060
ISc:__ZNK12b2WheelJoint10GetAnchorAEv
RUd:__ZN5physx6shdfnd5ArrayINS_12PxActorShapeENS0_19ReflectionAllocatorIS2_EEE15growAndPushBackERKS2_
EPa:__ZN25MultiBlocksMemoryFileData17AdjustBlocksCountEj
Ega:__ZNK22BuiltinResourceManager11GetResourceEPKN5Unity4TypeERKNSt3__212basic_stringIcNS4_11char_traitsIcEENS4_9allocatorIcEEEE
jDb:__ZNK11TimeManager26GetTypeInfoVirtualInternalEv
zhh:_TlsClientHello__ctor_m1699671541
axe:__ZN13TextRendering4Font8TransferI24GenerateTypeTreeTransferEEvRT_
Oda:__ZN17CommonStringTableC2Ev
mdk:_Context_NotifyGlobalDynamicSinks_m2916447645
Uhc:__Z27CullingGroup_CUSTOM_DisposeP12Il2CppObject
BTi:_Random_Range_m2884721203
b4k:__ZN6il2cpp6icalls8mscorlib6SystemL23CheckWideningConversionEjjj
jlj:__Z48RuntimeInvoker_Void_t1841601450_Mark_t2724874473PK10MethodInfoPvPS2_
LWj:_GUILayoutEntry_ApplyStyleSettings_m371609721
cxd:__ZN5physx2Sc14ConstraintCore8setFlagsENS_7PxFlagsINS_16PxConstraintFlag4EnumEtEE
Bcg:_Collection_1_Remove_m1798559666_gshared
Zm:_glStencilMask
Zbl:__ZN6il2cpp2os10ThreadImpl16GetCurrentThreadEv
hje:__ZNK5physx2Sc15ClothFabricCore20getNbParticleIndicesEv
Ieb:__ZN15GUIEventManager10QueueEventERK10InputEvent
dYh:_Enumerator_System_Collections_IEnumerator_get_Current_m2010873149_gshared
ezg:_Resources_t2975512894_marshal_pinvoke_cleanup
KJj:_AnimationEvent_get_messageOptions_m3547411650
sYf:_List_1_System_Collections_ICollection_get_IsSynchronized_m42432439_gshared
jHi:__ZL74SpriteState_t1353336012_CustomAttributesCacheGenerator_m_HighlightedSpriteP21CustomAttributesCache
gCh:_RealProxy__ctor_m2505535530
eil:_GC_push_conditional_with_exclusions
yGj:_UInt32_System_IConvertible_ToUInt16_m2798641702_AdjustorThunk
nEh:_BinaryFormatter_get_DefaultSurrogateSelector_m219714691
_y:__ZN21AnimationPosePlayableD0Ev
ZX:__ZN11UnityEngine15CloudWebService10RestClientINS0_16WWWRestHeaderMapEE6SetUrlERK8UnityStr
j$d:__ZN5physx2Sq8AABBTree11shiftOriginERKNS_6PxVec3E
NNh:_ILGenerator_label_fixup_m1325994348
$dh:_MD4Managed_Encode_m2097839378
hfg:_Collection_1_System_Collections_IList_get_IsFixedSize_m3252091801_gshared
sjj:__Z57RuntimeInvoker_Boolean_t3825574718_LabelFixup_t4090909514PK10MethodInfoPvPS2_
myg:_FloatTween_get_ignoreTimeScale_m4161298485_AdjustorThunk
kWh:_MonoProperty_GetOptionalCustomModifiers_m3827844355
mXh:__ZN16VirtFuncInvoker0IP18Stream_t3255436806E6InvokeEjPv
bkg:_ReadOnlyCollection_1_System_Collections_IList_get_IsFixedSize_m993752291_gshared
Ghd:__ZN5physx2Sc7BodySim6wakeUpEv
cK:__ZN11UnityEngine9Animation28GenericAnimationBindingCache25RegisterIAnimationBindingE11ClassIDTypeiP17IAnimationBinding
zCg:__ZN21InterfaceFuncInvoker1IP19Graphic_t2426225576iE6InvokeEjP11Il2CppClassPvi
E0g:_SimpleCollator_GetSortKey_m2188419329
jQd:__ZN5physx6shdfnd8PoolBaseINS_2Gu30LargePersistentContactManifoldENS0_19ReflectionAllocatorIS3_EEE17releaseEmptySlabsEv
bid:__ZN5physx2Sc21ConstraintInteraction7destroyEv
bIi:__ZL56LayoutElement_t2808691390_CustomAttributesCacheGeneratorP21CustomAttributesCache
qsj:_Scrollbar_Set_m244028386
tmc:__Z33Register_UnityEngine_Random_Rangev
ipc:__Z27Object_CUSTOM_DestroyObjectP12Il2CppObjectf
H2d:__ZN5physx13PxsSolverCoreD2Ev
Byl:__ZNSt3__211__money_putIwE8__formatEPwRS2_S3_jPKwS5_RKNS_5ctypeIwEEbRKNS_10money_base7patternEwwRKNS_12basic_stringIcNS_11char_traitsIcEENS_9allocatorIcEEEERKNSE_IwNSF_IwEENSH_IwEEEESQ_i
Wcb:__ZN16MemoryFileSystem6ParentERK13FileEntryDataRNSt3__212basic_stringIcNS3_11char_traitsIcEENS3_9allocatorIcEEEE
HEb:__ZN14PlayerSettings8TransferI18StreamedBinaryReadILb0EEEEvRT_
sSk:__ZN6il2cpp6icalls8mscorlib6System8MonoType16GetMethodsByNameEP20Il2CppReflectionTypeP12Il2CppStringibS5_
ZSj:_AnimationPlayable_op_Implicit_m408821639
VMk:__ZN15dense_hashtableI10KeyWrapperIPK19Il2CppGenericMethodES4_N6il2cpp8metadata23Il2CppGenericMethodHashEN14dense_hash_setIS4_S7_NS6_26Il2CppGenericMethodCompareENSt3__29allocatorIS4_EEE8IdentityES9_SC_E4swapERSF_
PRd:__ZNK5physx7NpScene16getNbConstraintsEv
uof:_LayoutGroup_SetProperty_TisAxis_t1431825778_m2174054513_gshared
MDd:__ZN5physx7NpCloth14setWakeCounterEf
Dub:__ZN4PPtrI10GameObjectE8TransferI14SafeBinaryReadEEvRT_
$pj:_Mask_IsRaycastLocationValid_m62488857
Ywi:__ZL105Physics_t634932869_CustomAttributesCacheGenerator_Physics_Raycast_m2036777053____queryTriggerInteraction5P21CustomAttributesCache
gse:__ZN5physx7profile11EventBufferINS_24PxDefaultContextProviderENS_6shdfnd6MutexTINS0_26WrapperReflectionAllocatorIhEEEENS0_14ScopedLockImplIS7_EENS_24PxProfileNullEventFilterEE17doAddProfileEventINS0_10StartEventEEEvtRKT_
L6j:_DefaultComparer_Compare_m3472472212_gshared
VSg:_MonoIO_GetLength_m2812344043
lFe:_ps_hints_t2mask
dBi:__ZL68UsedByNativeCodeAttribute_t3212052468_CustomAttributesCacheGeneratorP21CustomAttributesCache
QAb:__ZN10BlendShape8TransferI19StreamedBinaryWriteILb0EEEEvRT_
Cia:__ZL4WalkRK16TypeTreeIteratorR12CachedReaderPib
yke:__ZNK5physx2Gu11HeightField17getReferenceCountEv
axk:_Transform_IsChildOf_m10844547
iM:__Z32TransferEnumWithNameForceIntSizeI14SafeBinaryReadN10SampleClip8LoadTypeEEvRT_RT0_PKc17TransferMetaFlags
fga:__Z19GetTimeSinceStartupv
ika:__ZN7Texture23VirtualRedirectTransferER17RemapPPtrTransfer
c3e:_SecurityFrame_get_Assembly_m2816566490
dTh:_FieldInfo_GetPseudoCustomAttributes_m2500972355
odd:__ZN5physx3Scb5Scene10getPxSceneEv
CKe:_TT_Load_Composite_Glyph
fzk:_NetFxCoreExtensions_CreateDelegate_m2492743074
vHk:__ZL25UnresolvedVirtualCall_161P12Il2CppObject22UILineInfo_t3621277874S1_PK10MethodInfo
j9a:__Z33MultiplyMatrixArrayWithBase4x4REFPK10Matrix4x4fS1_S1_PS_j
lZi:__Z51RuntimeInvoker_Boolean_t3825574718_Int64_t909078037PK10MethodInfoPvPS2_
_rf:_Array_Sort_m2994254654
F5f:_List_1__ctor_m593058937_gshared
eef:_Array_InternalArray__IEnumerable_GetEnumerator_TisColor32_t874517518_m2198639025_gshared
E2a:__ZN29RenderNodeQueuePrepareContextC2Ev
F_b:__ZN9ShaderLab20SerializedSubProgram16TextureParameter8TransferI24GenerateTypeTreeTransferEEvRT_
iBj:_Thread_set_Name_m1343706609
Pml:__ZN6il2cpp2os11MutexHandle4WaitEj
Cec:__ZL34GetComponentsImplementationRecurseILb1ELi1ELi1EEbR10GameObjectbRK17CompareParametersRK39GetComponentsImplementation_ReturnValue
Oml:__ZN6il2cpp2os11MutexHandle4WaitEv
yxf:_ArrayList_set_Capacity_m592558035
bqa:__ZN6prcoreL17RemapGenericFloatI15TexFormatRGHalf18TexFormatARGBFloatEEvPKNS_9InnerInfoE
SYg:_MonoEnumInfo_t2335995564_marshal_pinvoke_cleanup
dia:__ZNK13RenderTexture13GetDataHeightEv
fPg:_Int64_System_IConvertible_ToDecimal_m3390697048_AdjustorThunk
gVa:__ZN13RenderManager23AddRemoveCamerasDelayedEv
HUa:_UNITY_png_write_pHYs
ira:__ZN23PreloadManagerOperation11GetPriorityEv
RQf:_Exception_get_InnerException_m3722561235
mcf:_Array_InternalArray__ICollection_Remove_TisILTokenInfo_t149559338_m1523907845_gshared
u2f:_List_1_GetEnumerator_m4053501645_gshared
Fue:__ZNK5Unity5Joint16GetCurrentForcesER8Vector3fS2_
Jgk:__ZN21InterfaceFuncInvoker4IP17Match_t3164245899P17Regex_t1803876613P8String_tiiE6InvokeEjP11Il2CppClassPvS3_S5_ii
QBf:_Hashtable_Rehash_m2877670513
U4k:__ZN6il2cpp2vm8Liveness3EndEPv
E5a:__ZN13RenderTexture8SetWidthEi
SGg:_InputField_Insert_m1593238693
F3b:__ZNK28RectTransformPropertyBinding12SetPPtrValueERKN11UnityEngine9Animation10BoundCurveEi
mOc:__ZN11ColorModuleD0Ev
EKe:_UNITY_FT_GlyphLoader_CheckSubGlyphs
y5i:__Z132RuntimeInvoker_Int32_t2071877448_Il2CppObject_Int32_t2071877448_Int32_t2071877448_Il2CppObject_Int32_t2071877448_Int32U26_t455636984PK10MethodInfoPvPS2_
HQk:__ZN6il2cpp2vm21ThreadPoolCompartment20SpawnNewWorkerThreadEv
ohf:_Array_InternalArray__ICollection_Add_TisCustomAttributeTypedArgument_t1498197914_m3260005285_gshared
FCf:_SyncHashtable_GetObjectData_m3774367030
UOg:_Int32_ToString_m1128850770
BMg:_Guid_GetHashCode_m1401300871
_Ak:_ListPool_1_U3Cs_ListPoolU3Em__0_m1243609651_gshared
euc:__Z42Register_UnityEngine_GUIStyle_set_fontSizev
Fgi:__ZL61CallingConventions_t1097349142_CustomAttributesCacheGeneratorP21CustomAttributesCache
Lzd:__ZNK5physx9NpFactory11getNbShapesEv
xAg:_FontData__ctor_m3822008992
oZi:__Z140RuntimeInvoker_Boolean_t3825574718_Il2CppObject_Int32_t2071877448_Il2CppObject_SByte_t454417549_Int64U26_t763825331_ExceptionU26_t1467204777PK10MethodInfoPvPS2_
BEk:__ZL23UnresolvedVirtualCall_5P12Il2CppObjectsPK10MethodInfo
KF:__ZN4PPtrI6AvatarE8TransferI19StreamedBinaryWriteILb0EEEEvRT_
yhj:__Z42RuntimeInvoker_ScreenMatchMode_t1916789528PK10MethodInfoPvPS2_
J4:__ZN9ShaderLab16FastPropertyName4InitEPKc
pRc:__ZN11b2GearJointD0Ev
uaa:__Z18PathToAbsolutePathRKNSt3__212basic_stringIcNS_11char_traitsIcEENS_9allocatorIcEEEE
hYk:__ZN15dense_hashtableINSt3__24pairIK10KeyWrapperINS1_IPK12PropertyInfoP11Il2CppClassEEEjEES9_17ReflectionMapHashIS8_EN14dense_hash_mapIS9_jSD_19ReflectionMapEqualsIS8_ENS0_9allocatorISB_EEE9SelectKeyESG_SI_E13clear_deletedER30dense_hashtable_const_iteratorISB_S9_SD_SK_SG_SI_E
R2b:__Z13RegisterClassIN2UI13RectTransformEEvv
a0g:_MSCompatUnicodeTable_ToWidthCompat_m2299599532
I_g:_NumberFormatter_get_IsFloatingSource_m2830957202
jAb:__ZN10VertexData8TransferI17RemapPPtrTransferEEvRT_
I5a:__ZN13RenderTexture9SetMipMapEb
Oul:__ZNKSt3__27num_getIwNS_19istreambuf_iteratorIwNS_11char_traitsIwEEEEE6do_getES4_S4_RNS_8ios_baseERjRl
Sul:__ZNKSt3__27num_getIwNS_19istreambuf_iteratorIwNS_11char_traitsIwEEEEE6do_getES4_S4_RNS_8ios_baseERjRm
_tj:_ScrollRect_set_verticalScrollbarSpacing_m2356851539
Nul:__ZNKSt3__27num_getIwNS_19istreambuf_iteratorIwNS_11char_traitsIwEEEEE6do_getES4_S4_RNS_8ios_baseERjRb
Jpb:__Z18GetDirectorManagerv
Wul:__ZNKSt3__27num_getIwNS_19istreambuf_iteratorIwNS_11char_traitsIwEEEEE6do_getES4_S4_RNS_8ios_baseERjRe
p$g:_OperatingSystem_GetObjectData_m2276196875
ikb:__ZNK10TagManager26GetTypeInfoVirtualInternalEv
Pul:__ZNKSt3__27num_getIwNS_19istreambuf_iteratorIwNS_11char_traitsIwEEEEE6do_getES4_S4_RNS_8ios_baseERjRx
Tul:__ZNKSt3__27num_getIwNS_19istreambuf_iteratorIwNS_11char_traitsIwEEEEE6do_getES4_S4_RNS_8ios_baseERjRy
DWi:_ResourceRequest_t2560315377_marshal_pinvoke_back
ZBi:__ZL92PointerEventData_t1599784723_CustomAttributesCacheGenerator_U3CpointerDragU3Ek__BackingFieldP21CustomAttributesCache
ooc:__Z38Transform_CUSTOM_INTERNAL_get_rotationP12Il2CppObjectP11Quaternionf
Qul:__ZNKSt3__27num_getIwNS_19istreambuf_iteratorIwNS_11char_traitsIwEEEEE6do_getES4_S4_RNS_8ios_baseERjRt
A0k:__ZNSt3__26vectorIN6il2cpp2vm17TypeNameParseInfoENS_9allocatorIS3_EEE8allocateEj
MXc:__ZN16b2StackAllocator4FreeEPv
Ghi:__ZL66CriticalFinalizerObject_t1920899984_CustomAttributesCacheGeneratorP21CustomAttributesCache
CGa:__ZN7ApiGLES19UploadBufferSubDataEjN2gl12BufferTargetEllPKv
S$d:__ZN5physx2Sc5Scene17createClothSolverEv
D4e:_String_System_IConvertible_ToInt32_m1927223638
Jcf:_Array_InternalArray__ICollection_Remove_TisContentType_t1028629049_m3085152315_gshared
SHd:__ZNK5physx15PxsParticleData16getMaxParticlesVEv
LIh:_CryptographicException__ctor_m406825529
RG:__ZN7mecanim12statemachine20StateMachineConstant8TransferI14SafeBinaryReadEEvRT_
iNj:_Canvas_set_sortingOrder_m2922819993
fca:__ZN13RuntimeStaticI21AssetReferenceStorageE13StaticDestroyEPv
tnc:__Z40SpriteRenderer_CUSTOM_INTERNAL_get_colorP12Il2CppObjectP10ColorRGBAf
o5d:__ZN15MBP_PairManager17removeMarkedPairsEPK10MBP_ObjectPN5physx16PxsBroadPhaseMBPERK8BitArrayS8_
oPk:__ZNSt3__26__treeINS_12__value_typeIP11Il2CppClassS3_EENS_19__map_value_compareIS3_S4_NS_4lessIS3_EELb1EEENS_9allocatorIS4_EEE25__emplace_unique_key_argsIS3_JNS_4pairIS3_S3_EEEEENSD_INS_15__tree_iteratorIS4_PNS_11__tree_nodeIS4_PvEEiEEbEERKT_DpOT0_
I6e:_ASCIIEncoding__ctor_m4127831672
bNb:__Z19TransferField_ArrayI14SafeBinaryRead27Converter_SimpleNativeClassI8GUIStyleEEvRK23StaticTransferFieldInfoR31RuntimeSerializationCommandInfoRT0_
EIb:__ZN9TextAsset23VirtualRedirectTransferER19StreamedBinaryWriteILb0EE
vzj:_UTF8Encoding__ctor_m3336862259
Hkl:__ZN6il2cpp5utils10MemoryPoolC2Ej
lfj:__Z54RuntimeInvoker_Boolean_t3825574718_HitInfo_t1761367055PK10MethodInfoPvPS2_
Mvh:_X509Chain_GetAuthorityKeyIdentifier_m2607407678
Dkl:__ZN6il2cpp5utils10MemoryPoolC2Ev
e1d:__ZN5physx21PxcUnimplementedSweepERKNS_11PxsCCDShapeES2_PKNS_12PxsRigidBodyES5_RKNS_11PxTransformES8_S8_S8_fRNS_6PxVec3ESA_RNS_10PxcNpCacheERNS_18PxcNpThreadContextEf
izd:__ZN5physx9NpPhysics33unregisterDeletionListenerObjectsERNS_18PxDeletionListenerEPKPKNS_6PxBaseEj
KFd:__ZNK5physx2Sc9ClothCore22getAngularInertiaScaleEv
owl:__ZNKSt3__28time_getIcNS_19istreambuf_iteratorIcNS_11char_traitsIcEEEEE13__get_weekdayERiRS4_S4_RjRKNS_5ctypeIcEE
Btg:_RaycastResult_set_gameObject_m1138581891_AdjustorThunk
s_k:__ZN14dense_hash_mapI10KeyWrapperINSt3__24pairIPK12PropertyInfoP11Il2CppClassEEEj17ReflectionMapHashIS8_E19ReflectionMapEqualsIS8_ENS1_9allocatorINS2_IKS9_jEEEEE15set_deleted_keyERSF_
hMj:_Bounds_get_extents_m4077324178_AdjustorThunk
n1i:__Z117RuntimeInvoker_Int32_t2071877448_Il2CppObject_Il2CppObject_Int32_t2071877448_Int32_t2071877448_BooleanU26_t3168250738PK10MethodInfoPvPS2_
icc:__ZN12InputManager10GetAxisRawERKNSt3__212basic_stringIcNS0_11char_traitsIcEENS0_9allocatorIcEEEE
xJ:__ZN19StreamedBinaryWriteILb0EE21TransferSTLStyleArrayI22OffsetPtrArrayTransferIN7mecanim8skeleton19SkeletonMaskElementEEEEvRT_17TransferMetaFlags
Sqd:__ZN5physx20NpRigidActorTemplateINS_18PxArticulationLinkEE12setActorFlagENS_11PxActorFlag4EnumEb
Mnf:_Dictionary_2_Do_ICollectionCopyTo_TisKeyValuePair_2_t3716250094_m1740410536_gshared
Jbl:__ZN6il2cpp2os10ThreadImplD2Ev
G6g:_RSAManaged_Dispose_m3018788098
JRc:__ZN12b2MouseJoint23InitVelocityConstraintsERK12b2SolverData
Fyc:__ZN8Gradient8TransferI9JSONWriteEEvRT_
Xih:_Context_get_ReceivedConnectionEnd_m3369356276
Pnk:_X509CertificateEnumerator_MoveNext_m1422952050
Xph:_NameObjectCollectionBase_get_Count_m2353593692
S1k:__ZN15dense_hashtableINSt3__24pairIK10KeyWrapperIP11Il2CppClassES4_EES5_N6il2cpp8metadata16SZArrayClassHashEN14dense_hash_mapIS5_S4_SA_NS9_19SZArrayClassCompareENS0_9allocatorIS7_EEE9SelectKeyESC_SE_E9copy_fromERKSH_j
IDi:__ZL73U3COnFinishSubmitU3Ec__Iterator0_t99135383_CustomAttributesCacheGeneratorP21CustomAttributesCache
Qdb:__ZNK12TLSAllocatorI14StackAllocatorE22GetAllocatedMemorySizeEv
Qw:__ZN7mecanim6memory16ChainedAllocator8AllocateEjj
FIf:_Convert_ToUInt32_m3394039268
tdc:__Z32GetSceneHierarchyPathDescriptivePK6Object
Fzb:__ZNSt3__26vectorI7SubMesh13stl_allocatorIS1_L18MemLabelIdentifier16ELi16EEEC2ERKS5_
wS:__ZNK7WeakPtrI20SoundChannelInstanceE10SharedData9GetRawPtrEv
QNa:__ZN12HandlerChain4NameEv
ln:FUNCTION_TABLE_fiiiiiifiiiiiif
ZCb:__ZNSt3__26vectorI9InputAxisNS_9allocatorIS1_EEE10deallocateEv
Dee:__ZN5physx37setupFinalizeSolverConstraintsCoulombERNS_13PxcNpWorkUnitERKNS_2Gu13ContactBufferERKNS_27PxcCorrelationBufferCoulombERKNS_11PxTransformESB_bPhRKNS_13PxcSolverBodyESF_RKNS_17PxcSolverBodyDataESI_ffjffff
xNg:_Int16_Equals_m3925135434_AdjustorThunk
bO:__ZN12AudioManager8TransferI18StreamedBinaryReadILb1EEEEvRT_
aQe:__Z44Register_UnityEngine_CanvasRenderer_get_cullv
X_h:_Enumerator_Dispose_m2532362830_AdjustorThunk
nei:__ZL60IHashCodeProvider_t1980576455_CustomAttributesCacheGeneratorP21CustomAttributesCache
EUf:_Enumerator_VerifyState_m1677639504_AdjustorThunk
icb:__Z29StdTemplateConversionFunctionIbbEbPvR14SafeBinaryRead
Jgh:_CipherSuiteCollection_get_Item_m280627160
sFf:_DateTime__ParseString_m2623687350
yBh:_SerializationInfoEnumerator_MoveNext_m1876990879
PCj:_TimeSpan_Duration_m4205681645
B9a:__ZN14UnityWebStream24UpdateAllUnityWebStreamsEv
s9f:_Collection_1_System_Collections_IList_get_IsReadOnly_m2329986891_gshared
IG:__ZN15SerializeTraitsINSt3__24pairIj8UnityStrEEE8TransferI14SafeBinaryReadEEvRS3_RT_
Rci:__ZL60ObsoleteAttribute_t3878847927_CustomAttributesCacheGeneratorP21CustomAttributesCache
Rzh:_CostDelegate_BeginInvoke_m1628968398
Oif:_Array_InternalArray__ICollection_CopyTo_TisRaycastHit2D_t4063908774_m3837098618_gshared
p4d:__ZN5physx31ComputeCreatedDeletedPairsListsEPKjS1_jRPNS_17PxcBroadPhasePairERjS5_S4_S5_S5_RNS_14SapPairManagerE
ssa:__ZN18LoadSceneOperation21MustCompleteNextFrameEv
KQ:__ZNK12AudioManager16GetAudioListenerEv
MUh:_MonoField_get_FieldType_m598011426
sdc:__ZNSt3__2plIcNS_11char_traitsIcEE13stl_allocatorIcL18MemLabelIdentifier1ELi16EEEENS_12basic_stringIT_T0_T1_EERKSA_SC_
r9f:_Collection_1_System_Collections_IList_get_IsFixedSize_m1624702704_gshared
Qfb:__ZN18AssetBundleManager30CollectPreloadDataDependenciesER4PPtrI11AssetBundleEbR13dynamic_arrayIiLj4EE
lui:__ZL48Camera_t189460977_CustomAttributesCacheGeneratorP21CustomAttributesCache
Vlj:__Z73RuntimeInvoker_Void_t1841601450_Int32_t2071877448_RaycastResult_t21186376PK10MethodInfoPvPS2_
x3k:__ZNSt3__212basic_stringIcNS_11char_traitsIcEENS_9allocatorIcEEE6__initINS_11__wrap_iterIPcEEEENS_9enable_ifIXsr21__is_forward_iteratorIT_EE5valueEvE4typeESB_SB_
LTc:__ZNK11Rigidbody2D20GetAttachedCollidersER13dynamic_arrayIP10Collider2DLj4EE
r9d:__ZN5physx2Gu16pcmContactBoxBoxERKNS0_13GeometryUnionES3_RKNS_11PxTransformES6_RKfRNS0_5CacheERNS0_13ContactBufferE
$Fg:_InputField_OnDisable_m1865339380
vGj:_UInt32_System_IConvertible_ToType_m747769316
ty:__ZN7mecanim9animation12GetHumanPoseERKNS0_18ClipMuscleConstantEPKNS0_10ValueDeltaERNS_5human9HumanPoseE
YXk:__ZN6il2cpp2vm10Reflection17GetPropertyObjectEP11Il2CppClassPK12PropertyInfo
tKl:_glDeleteVertexArrays__wrapper
XRb:__Z29Transfer_Blittable_ArrayFieldI19StreamedBinaryWriteILb0EEjEvRT_R9ArrayInfoRK23StaticTransferFieldInfo
L1:__Z13GetFileSystemv
wwa:__ZNK5Unity4Type21FindAllDerivedClassesER13dynamic_arrayIPKS0_Lj4EENS0_17TypeFilterOptionsE
TBb:__ZN14SafeBinaryRead8TransferIfEEvRT_PKc17TransferMetaFlags
mSb:__ZL12InvokeMethodI18StreamedBinaryReadILb0EEEvRK29SerializationCommandArgumentsR31RuntimeSerializationCommandInfo
cLg:_DaylightTime_get_Delta_m2316831491
VWc:__ZNSt3__27__sort5IR24RayHitsByDepthComparitorP12RaycastHit2DEEjT0_S5_S5_S5_S5_T_
Jbf:_Array_InternalArray__ICollection_Contains_TisUILineInfo_t3621277874_m1175659630_gshared
dCj:_WaitHandle_WaitOne_m370363697
wCi:__ZL114PointerEventData_t1599784723_CustomAttributesCacheGenerator_PointerEventData_set_pointerCurrentRaycast_m2431897513P21CustomAttributesCache
Sxh:_FactoryCache_Lookup_m1681894361
Msl:__ZNSt3__215basic_streambufIcNS_11char_traitsIcEEED2Ev
QKf:_DateTime_Subtract_m698282245_AdjustorThunk
d7j:_DefaultComparer__ctor_m2470932885_gshared
Lle:__ZN5physx2Gu5RTree15exportExtraDataERNS_22PxSerializationContextE
yja:__Z23scripting_gchandle_freej
bWb:__Z29Transfer_Blittable_ArrayFieldI18StreamedBinaryReadILb1EE5RectTIfEEvRT_R9ArrayInfoRK23StaticTransferFieldInfo
jqi:__ZL79Convert_t2607082565_CustomAttributesCacheGenerator_Convert_ToUInt64_m1896191125P21CustomAttributesCache
IXe:_RIPEMD160Managed_Initialize_m3365407578
oac:__Z29GetTextureSizeAllowedMultiple13TextureFormat
Ayl:__ZNSt3__211__money_putIwE13__gather_infoEbbRKNS_6localeERNS_10money_base7patternERwS8_RNS_12basic_stringIcNS_11char_traitsIcEENS_9allocatorIcEEEERNS9_IwNSA_IwEENSC_IwEEEESJ_Ri
vrh:_IPAddress_HostToNetworkOrder_m1092199707
$_d:__ZNK5physx2Sq10AABBPruner7overlapERKNS0_9ShapeDataERNS0_14PrunerCallbackE
pdf:_SetPropertyUtility_SetStruct_TisSpriteState_t1353336012_m2898060836_gshared
nPi:_Logger__ctor_m3834134587
H0e:_SecurityAttribute__ctor_m3425755778
g8b:__ZN21IntermediateRenderers3AddEP20IntermediateRenderer
Nob:__ZN14RenderSettings23VirtualRedirectTransferER18StreamedBinaryReadILb1EE
kQd:__ZN5physx6shdfnd5ArrayIPvNS0_19ReflectionAllocatorINS_2Gu30LargePersistentContactManifoldEEEE4copyINS0_15InlineAllocatorILj256ES6_EEEEvRKNS1_IS2_T_EE
Qsk:_InvokableCall_1_add_Delegate_m3068046591_gshared
wg:_glCheckFramebufferStatus
jyi:__ZL55TextGenerator_t647235000_CustomAttributesCacheGeneratorP21CustomAttributesCache
Fef:_Array_compare_TisInt32_t2071877448_m840310202_gshared
J4i:__Z57RuntimeInvoker_Il2CppObject_Il2CppObject_Byte_t3683104436PK10MethodInfoPvPS2_
j6j:_InternalEnumerator_1_System_Collections_IEnumerator_get_Current_m442726479_AdjustorThunk
oJh:_DESTransform_ECB_m2629024873
L4j:_InternalEnumerator_1_System_Collections_IEnumerator_get_Current_m790514740_AdjustorThunk
bhe:__ZN5physx2Cm12DelegateTaskINS_2Sc5SceneEXadL_ZNS3_19updateCCDSinglePassEPNS_10PxBaseTaskEEEE11runInternalEv
qcd:__ZN5physx6string9sprintf_sEPcjPKcz
au:__ZNSt3__26vectorI24CompressedAnimationCurve13stl_allocatorIS1_L18MemLabelIdentifier25ELi16EEE6resizeEj
Foe:__ZThn8_N5physx19TriangleMeshBuilderD1Ev
lql:_sift
Hpc:__Z19ConcatWithSeparatorRKNSt3__212basic_stringIcNS_11char_traitsIcEE13stl_allocatorIcL18MemLabelIdentifier1ELi16EEEES8_S8_
Ech:__ZN16VirtFuncInvoker2IbP21BigInteger_t925946153P12Il2CppObjectE6InvokeEjPvS1_S3_
v5c:__ZN5physx2Gu16intersectRayAABBERKNS_6PxVec3ES3_S3_S3_RfS4_
Pwb:__ZN9Transform23VirtualRedirectTransferER17RemapPPtrTransfer
Rjj:__Z87RuntimeInvoker_Int32_t2071877448_Playable_t3667545548_Playable_t3667545548_Il2CppObjectPK10MethodInfoPvPS2_
l1f:_List_1_AddCollection_m2221063383_gshared
Kx:__ZN21AnimationClipPlayable7SetTimeEd
SCf:_SyncHashtable_Remove_m694556812
lXe:_RijndaelManaged_CreateDecryptor_m3253408643
Iff:_Array_InternalArray__IndexOf_TisByte_t3683104436_m3605266236_gshared
MNi:_GUIStyle_set_richText_m1853532836
Pfg:_Collection_1_System_Collections_IList_Insert_m435904526_gshared
z4j:_InternalEnumerator_1_System_Collections_IEnumerator_get_Current_m1810411564_gshared
dLi:_GUISkin_get_horizontalScrollbarThumb_m4062590908
bsj:_RaycastAllCallback_Invoke_m981876639
jul:__ZNKSt3__26locale5__imp9use_facetEl
T2e:_UnicodeEncoding__ctor_m72484327
Lee:__ZN5physx30setupFinalizeSolverConstraintsERNS_13PxcNpWorkUnitERKNS_2Gu13ContactBufferERKNS_20PxcCorrelationBufferERKNS_11PxTransformESB_bPhRKNS_13PxcSolverBodyESF_RKNS_17PxcSolverBodyDataESI_ffffff
mbi:__ZL74Il2CppArray_CustomAttributesCacheGenerator_Array_GetUpperBound_m1352329707P21CustomAttributesCache
bca:__ZN22BuiltinResourceManager16StaticInitializeEPv
ww:__ZN7mecanim4hand8HandPose8TransferI19StreamedBinaryWriteILb0EEEEvRT_
Yvd:__ZN5physx7NpScene17releaseBatchQueryEPNS_12PxBatchQueryE
r$k:__ZN6il2cpp2gc9AllocatorIP12Il2CppThreadE10deallocateEPvj
Wjg:_ReadOnlyCollection_1_System_Collections_IList_Contains_m1838328308_gshared
INd:__ZN5physx20NpRigidActorTemplateINS_13PxRigidStaticEE11attachShapeERNS_7PxShapeE
yzk:_UnityEvent_1_GetDelegate_m2720691419_gshared
cee:__ZN5physx26solveVBlockDefaultFrictionEPNS_13PxsSolverCoreEfjjPNS_13PxcSolverBodyEPNS_17PxcSolverBodyDataEjjPNS_25PxcArticulationSolverDescEjPNS_23PxcSolverConstraintDescEjS9_jRNS_6shdfnd5ArrayINS_24PxsConstraintBatchHeaderENSA_19ReflectionAllocatorISC_EEEESG_PNS_2Cm13SpatialVectorEPNS_25PxcThresholdStreamElementEjRj
UGk:__ZL25UnresolvedVirtualCall_132P12Il2CppObjectiPK10MethodInfo
rjk:_Alternation_get_Alternatives_m1445219249
Gih:_ClientSessionInfo_SetContext_m2649357891
Dcb:__ZNSt3__26__treeINS_12__value_typeINS_12basic_stringIcNS_11char_traitsIcEE13stl_allocatorIcL18MemLabelIdentifier54ELi16EEEEPN16MemoryFileSystem4NodeEEENS_19__map_value_compareIS8_SC_NS_4lessIS8_EELb1EEES5_ISC_LS6_54ELi16EEE12__find_equalIS8_EERPNS_16__tree_node_baseIPvEESO_RKT_
mud:__ZN5physx15NpActorTemplateINS_18PxArticulationLinkEE17resolveReferencesERNS_24PxDeserializationContextE
S_i:__Z69RuntimeInvoker_Boolean_t3825574718_Il2CppObject_DoubleU26_t1208767207PK10MethodInfoPvPS2_
ys:__ZN14AnimationEvent8TransferI14SafeBinaryReadEEvRT_
Aqg:_RaycasterManager_GetRaycasters_m1154876874
aoh:_SslStreamBase_InternalReadCallback_m2524917586
lba:__ZN8Remapper6RemoveEi
OZf:_List_1_CheckCollection_m2608305187_gshared
GXd:__ZN5physx19NpRigidBodyTemplateINS_18PxArticulationLinkEE9visualizeERNS_2Cm12RenderOutputEPNS_7NpSceneE
k3d:__ZN5physx11writeBack1DERKNS_23PxcSolverConstraintDescERNS_16PxcSolverContextERNS_17PxcSolverBodyDataES6_
IEj:_Type_get_ContainsGenericParameters_m505913180
Dze:__ZL36CleanupTextRenderingScriptingClassesv
X0c:__ZThn4_N16RayRTreeCallbackILi0ELb0EED0Ev
u5a:__ZN15ReflectionProbe17UseRendererResultEP13ProbeRenderer
Grf:_Array_BinarySearch_m3270245097
Ckc:__Z34Mesh_CUSTOM_SetArrayForChannelImplP12Il2CppObject30InternalScriptingShaderChannel34InternalScriptingVertexChannelTypeiP11Il2CppArrayi
eSg:_MonoIO_DeleteFile_m3273821223
Ryg:__ZN16VirtFuncInvoker0I17Color_t2020392075E6InvokeEjPv
M1g:_BigInteger_GenerateRandom_m2507308768
GJf:_DateTime_System_IConvertible_ToDouble_m1431748426_AdjustorThunk
cFh:__ZN16VirtFuncInvoker0IdE6InvokeEjPv
Ulj:__Z76RuntimeInvoker_Void_t1841601450_Int32_t2071877448_ContactPoint2D_t3659330976PK10MethodInfoPvPS2_
ubf:_Array_InternalArray__ICollection_Contains_TisUInt16_t986882611_m510319131_gshared
yWd:__ZNK5physx2Sc5Scene20getNbParticleSystemsEv
eNf:_Decimal_ToString_m541380585
Fyh:_RepeatContext_get_Previous_m808449037
d6i:__Z60RuntimeInvoker_DateTime_t693205669_Il2CppObject_Il2CppObjectPK10MethodInfoPvPS2_
fTh:_MemberFilter__ctor_m1775909550
HTk:_il2cpp_class_is_valuetype
f_d:__ZN5physx2Gu17GetGeomSweepFuncsEv
eQe:__Z70RectTransformUtility_CUSTOM_INTERNAL_CALL_RectangleContainsScreenPointP12Il2CppObjectRK13Vector2fIcallS0_
kQf:_Enum_ToObject_m2601523252
vEl:dynCall_viiffiii
Anh:_InternalAsyncResult_get_FromWrite_m2893408424
KJk:__ZN6il2cpp2vm5Class15GetElementClassEP11Il2CppClass
zIg:_U3CDelayedSetDirtyU3Ec__Iterator0_System_Collections_IEnumerator_get_Current_m851854792
CNf:_Delegate_CreateDelegate_m1706525923
iAl:__ZNKSt3__25ctypeIwE10do_tolowerEPwPKw
nHd:__ZN5physx22NpParticleBaseTemplateINS_15PxParticleFluidENS_15NpParticleFluidEE23setParticleReadDataFlagENS_22PxParticleReadDataFlag4EnumEb
pzj:_UTF7Encoding_GetBytes_m3015176946
Bnb:__ZN16GraphicsSettings8TransferI17RemapPPtrTransferEEvRT_
tch:_BigInteger_op_LessThanOrEqual_m3528380540
qVg:_StreamReader__ctor_m2654332332
ENe:__ZN2UI6Canvas13UpdateBatchesEb
Z8:__Z28scripting_method_is_instance21ScriptingMethodIl2Cpp
BYb:__ZNSt3__26vectorIN9ShaderLab20SerializedSubProgram14ConstantBufferENS_9allocatorIS3_EEE18__construct_at_endINS_11__wrap_iterIPS3_EEEENS_9enable_ifIXsr21__is_forward_iteratorIT_EE5valueEvE4typeESC_SC_j
oCi:__ZL105PointerEventData_t1599784723_CustomAttributesCacheGenerator_PointerEventData_set_pointerEnter_m1440587006P21CustomAttributesCache
UXf:_List_1_CheckCollection_m3968030679_gshared
Ark:_Predicate_1_BeginInvoke_m3556950370_gshared
RAd:__ZN5physx2Gu5Debug9visualizeERKNS_13PxBoxGeometryERNS_2Cm12RenderOutputERKNS5_8Matrix34ERKNS_9PxBounds3Eyfj
D9e:_StringBuilder_ToString_m617673931
wya:__ZNK13GfxDeviceGLES12GetWireframeEv
tPk:__ZN15dense_hashtableINSt3__24pairIK10KeyWrapperIPK19Il2CppGenericMethodEPK26Il2CppGenericMethodIndicesEES6_N6il2cpp8metadata23Il2CppGenericMethodHashEN14dense_hash_mapIS6_SA_SE_NSD_26Il2CppGenericMethodCompareENS0_9allocatorISB_EEE9SelectKeyESG_SI_E4findERS7_
s$c:__ZN5physx6shdfnd5ArrayIPKvNS0_19ReflectionAllocatorIS3_EEE6resizeEjRKS3_
Dkg:_ReadOnlyCollection_1_System_Collections_ICollection_get_IsSynchronized_m3127987432_gshared
Mza:__ZN9GfxDevice18AllocRenderSurfaceEb
Ree:__ZN5physx31setupFinalizeSolverConstraints4EPNS_21PxcSolverContact4DescERNS_18PxcNpThreadContextEPhffRKNS_6shdfnd3aos5Vec4VES9_S9_S9_
ySd:__ZN5physx7NpScene5flushEb
Hjk:_AnchorInfo_get_IsComplete_m1247624133
Mzg:_Dropdown_Show_m324374589
I6:__ZL27CleanupCoreScriptingClassesv
i6h:__ZN16VirtFuncInvoker1Ii38CustomAttributeNamedArgument_t94157543E6InvokeEjPvS0_
$$c:__ZN5physx2Gu13GeometryUnion3setERKNS_10PxGeometryE
kad:__ZThn8_N5physx3Cct17CapsuleController15getPxControllerEv
xBk:_GenericComparer_1__ctor_m3575096182_gshared
Usg:_RaycastResult_get_isValid_m2482925612
rkc:__Z26AnimationCurve_CUSTOM_InitP12Il2CppObjectP11Il2CppArray
GPc:__ZNK14b2PolygonShape5CloneEP16b2BlockAllocator
xZk:__ZN6il2cpp2vm10Reflection7IsEventEP12Il2CppObject
ePk:__ZNSt3__26__treeINS_12__value_typeIPFvvEPK10MethodInfoEENS_19__map_value_compareIS3_S7_NS_4lessIS3_EELb1EEENS_9allocatorIS7_EEE16__insert_node_atEPNS_16__tree_node_baseIPvEERSI_SI_
O7:__ZN17PersistentManager26GetStreamNameSpaceInternalEi
rM:__ZN4FMOD6System11createSoundEPKcjP22FMOD_CREATESOUNDEXINFOPPNS_5SoundE
$jg:_ReadOnlyCollection_1_System_Collections_ICollection_get_IsSynchronized_m4056631538_gshared
Lo:FUNCTION_TABLE_iiifiiii
fch:__ZN16VirtFuncInvoker1IP21BigInteger_t925946153iE6InvokeEjPvi
uej:__Z66RuntimeInvoker_Void_t1841601450_Int32_t2071877448_Rect_t3681755626PK10MethodInfoPvPS2_
ORi:_Object_Destroy_m4145850038
oea:__ZNSt3__26__treeINS_12__value_typeINS_12basic_stringIcNS_11char_traitsIcEENS_9allocatorIcEEEEiEENS_19__map_value_compareIS7_S8_NS_4lessIS7_EELb1EEENS5_IS8_EEE7destroyEPNS_11__tree_nodeIS8_PvEE
a1k:__ZN6il2cpp2vm4Type14IsSystemDBNullEPK10Il2CppType
efc:__ZN9Scripting28CreateEngineScriptableObjectEP12Il2CppObject
Qre:__ZThn128_N5physx7profile8ZoneImplINS_28PxProfileNameProviderForwardEED1Ev
u5:__ZN9ShaderLab19CommonPropertyNames13StaticCleanupEPv
guj:_ScrollRect_UpdateBounds_m3266596336
v$d:__ZN5physx2Sq17AABBTreeUpdateMap10invalidateEjjRNS0_8AABBTreeE
nUa:_unity_z_zcfree
Epj:_LayoutUtility_GetFlexibleWidth_m1731978987
eee:__ZN5physx28solveParallelDefaultFrictionERNS_18PxsDynamicsContextEjjPNS_13PxcSolverBodyEPNS_17PxcSolverBodyDataEjjPNS_25PxcArticulationSolverDescEjPNS_23PxcSolverConstraintDescEjS9_jPiSA_SA_SA_SA_SA_PNS_25PxcThresholdStreamElementEjSA_PNS_2Cm13SpatialVectorEPKPNS_11PxsBodyCoreERNSD_10BitMapBaseINS_6shdfnd9AllocatorEEEPKPNS_15PxsArticulationEjPViRNSL_5ArrayINS_24PxsConstraintBatchHeaderENSL_19ReflectionAllocatorISW_EEEES10_RNSV_IjNSX_IjEEEES13_PPNS_12PxsRigidBodyEj
XIl:_glStencilOpSeparate__wrapper
Aac:__ZN4Mesh5SetUvEiPKfjj
Tsa:__ZN7Texture13SetAnisoLimitENS_20AnisotropicFilteringE
hta:__ZN28LightProbeProxyVolumeManager25UpdateSHCoeffsTextureDataER21LightProbeProxyVolume
sOa:__Z18CreateDecompressor15CompressionType18MemLabelIdentifier
LU:__ZN11AudioModule16SetListenerPauseEb
pi:_emscripten_glCompressedTexSubImage2D
UHa:__ZN13GfxDeviceGLES22MemoryBarrierImmediateEyN2gl17MemoryBarrierTypeE
gYk:__ZNK15dense_hashtableINSt3__24pairIK10KeyWrapperINS1_IPK12PropertyInfoP11Il2CppClassEEEjEES9_17ReflectionMapHashIS8_EN14dense_hash_mapIS9_jSD_19ReflectionMapEqualsIS8_ENS0_9allocatorISB_EEE9SelectKeyESG_SI_E12test_deletedEj
F7c:__ZN5physx6shdfnd5ArrayIjNS0_19ReflectionAllocatorIjEEE8recreateEj
l5k:__ZN6il2cpp6icalls8mscorlib6System4Type18internal_from_nameEP12Il2CppStringbb
qqa:__ZN6prcoreL26RemapGenericFloatToIntegerI18TexFormatARGBFloat17TexFormatARGB8888EEvPKNS_9InnerInfoE
xfl:__ZN6il2cpp6icalls8mscorlib6System10Reflection9MonoField16GetValueInternalEP21Il2CppReflectionFieldP12Il2CppObject
_1b:__ZN6Object27GetOffsetOfInstanceIdMemberEv
LIe:_cff_ps_has_glyph_names
ktk:_InvokableCall_1__ctor_m2837611051_gshared
Koe:__ZN5physx15writeWordBufferEPKtjbRNS_14PxOutputStreamE
d_h:_Transform_1_EndInvoke_m1025924012_gshared
kbi:__ZL81Il2CppArray_CustomAttributesCacheGenerator_Array_GetValue_m3550694941____indices0P21CustomAttributesCache
zlg:_ReadOnlyCollection_1_System_Collections_Generic_ICollectionU3CTU3E_get_IsReadOnly_m2873538493_gshared
rhk:_PatternCompiler_EmitPosition_m3013268572
oxh:_X509SubjectKeyIdentifierExtension__ctor_m1109455121
xIc:__ZN10SizeModule8TransferI17RemapPPtrTransferEEvRT_
ceg:_Collection_1_SetItem_m2707773254_gshared
nFk:__ZL24UnresolvedVirtualCall_45P12Il2CppObject19DateTime_t693205669PK10MethodInfo
eCg:_Graphic_CreateColorFromAlpha_m2614574534
gaf:_UnicodeEncoding_GetHashCode_m2443440683
quc:__Z44Register_UnityEngine_GUIStyle_SetDefaultFontv
eQh:_GenericTypeParameterBuilder_GetPropertyImpl_m3566422383
Gbl:__GLOBAL__sub_I_ThreadImpl_cpp
vVb:__Z18Transfer_BlittableI18StreamedBinaryReadILb1EELb1EiEvRK29SerializationCommandArgumentsR31RuntimeSerializationCommandInfo
GD:__ZN9BlobWrite8TransferI22OffsetPtrArrayTransferIKN4math7_float3EEEEvRT_PKc17TransferMetaFlags
j$e:_TripleDES_IsWeakKey_m483013953
b$h:_Enumerator__ctor_m3819430617_AdjustorThunk
Ihd:__ZN5physx2Sc7BodySim37checkSleepReadinessBesidesWakeCounterEv
tVb:__Z18Transfer_BlittableI18StreamedBinaryReadILb1EELb1EsEvRK29SerializationCommandArgumentsR31RuntimeSerializationCommandInfo
PYk:__ZN15dense_hashtableINSt3__24pairIK10KeyWrapperINS1_IPK9EventInfoP11Il2CppClassEEEjEES9_17ReflectionMapHashIS8_EN14dense_hash_mapIS9_jSD_19ReflectionMapEqualsIS8_ENS0_9allocatorISB_EEE9SelectKeyESG_SI_E13clear_deletedER30dense_hashtable_const_iteratorISB_S9_SD_SK_SG_SI_E
$A:__ZN26AnimatorControllerPlayable17IsMultithreadableEv
bJf:__ZN16VirtFuncInvoker0IP27NumberFormatInfo_t104580544E6InvokeEjPv
L3e:_Single_System_IConvertible_ToSByte_m3757385387
njj:__Z51RuntimeInvoker_Boolean_t3825574718_Slot_t2022531261PK10MethodInfoPvPS2_
iTg:_StreamAsyncResult_SetComplete_m2141125667
Ysa:__ZL21SetAnisoLimitEnumImplN7Texture20AnisotropicFilteringEb
$Qe:__ZN22BaseUnityConnectClient17OnEnterStateReadyEv
vKd:__ZNK5physx22NpParticleBaseTemplateINS_16PxParticleSystemENS_16NpParticleSystemEE15getMaxParticlesEv
mvd:__ZN5physx2Sc16ArticulationCore14setWakeCounterEf
IPd:__ZN5physx2Sc10NPhaseCore24createTriggerInteractionERNS0_8ShapeSimES3_NS_7PxFlagsINS_10PxPairFlag4EnumEtEE
ewc:__ZN8JSONRead18TransferStringDataI8UnityStrEEvRT_
fQa:__ZN15dense_hashtableINSt3__24pairIKNS0_12basic_stringIcNS0_11char_traitsIcEE13stl_allocatorIcL18MemLabelIdentifier54ELi16EEEEP20ArchiveStorageReaderEES8_11djb2_hash_tIS8_EN14dense_hash_mapIS8_SB_SE_NS0_8equal_toIS8_EES5_ISC_LS6_54ELi16EEE9SelectKeyESH_SI_E13set_empty_keyERKSC_
Bxl:__ZNKSt3__210moneypunctIcLb1EE14do_frac_digitsEv
i0c:__ZN5physx2Gu9ContainerD2Ev
jPi:_Keyframe_get_tangentMode_m1869200796_AdjustorThunk
Kjc:__Z29Input_CUSTOM_GetMouseButtonUpi
_1c:__ZN5physx2Gu12selectNormalEhff
SSk:__ZN6il2cpp6icalls8mscorlib6System8MonoType16InternalGetEventEP20Il2CppReflectionTypeP12Il2CppStringi
zGj:_UInt32_System_IConvertible_ToUInt32_m1257480358_AdjustorThunk
GIf:_Convert_ToUInt32_m3085255294
uCe:_UNITY_tt_face_load_maxp
Vjc:__Z46Input_CUSTOM_INTERNAL_set_compositionCursorPosRK13Vector2fIcall
lz:__ZN7mecanim5human12FullBodyMaskEv
XId:__ZN5physx3Scb14ParticleSystem16releaseParticlesEjRKNS_16PxStrideIteratorIKjEE
boi:__ZL98Activator_t1850728717_CustomAttributesCacheGenerator_Activator_CreateInstance_m1465989661____args1P21CustomAttributesCache
R4:__ZN19ShaderPropertySheet11ComputeHashEv
xPi:__ZN23InterfaceActionInvoker4IiP18Object_t1021602117P8String_tP24ObjectU5BU5D_t3614634134E6InvokeEjP11Il2CppClassPviS1_S3_S5_
IVd:__ZN5physx2Sc5Scene21processLostTouchPairsEv
CQc:__ZN12b2EPCollider24ComputePolygonSeparationEv
$q:__ZN4PPtrI6ObjectE8TransferI18StreamedBinaryReadILb1EEEEvRT_
Mxg:_ColorTween_get_tweenMode_m2919867230_AdjustorThunk
Fjf:_Array_InternalArray__Insert_TisUInt16_t986882611_m2263078_gshared
ywg:_CanvasScaler_HandleScaleWithScreenSize_m80056230
RHh:_SByte_System_IConvertible_ToUInt64_m2174352876_AdjustorThunk
$Rk:__ZNK6il2cpp5utils10functional6FilterINSt3__212basic_stringIcNS3_11char_traitsIcEENS3_9allocatorIcEEEENS0_11StringUtils21CaseSensitiveComparerEEclIPKcEEbRKT_
Js:__ZN7mecanim9animation18ClipMuscleConstant8TransferI14SafeBinaryReadEEvRT_
rQh:_GenericTypeParameterBuilder_get_AssemblyQualifiedName_m902593295
Z7d:__ZN5physx22PxcContactConvexConvexERKNS_2Gu13GeometryUnionES3_RKNS_11PxTransformES6_RKfRNS_10PxcNpCacheERNS0_13ContactBufferE
dzj:_UTF7Encoding_InternalGetBytes_m2772055844
s7h:_EqualityComparer_1__ctor_m831468288_gshared
q1c:__ZNK5physx2Gu11ConvexHullV12HillClimbingERKNS_6shdfnd3aos5Vec3VE
OJb:__ZL29CanTransferTypeAsNestedObjectI18TransferField_InfoEbRKT_
BPd:__ZNK5physx2Sc17ParticleSystemSim7getCoreEv
m0g:_SimpleCollator__cctor_m2693747668
ZMf:_Decimal_CompareTo_m2454501434_AdjustorThunk
b8:__ZN14SafeBinaryReadD2Ev
gFj:_UInt16_System_IConvertible_ToChar_m4055364664
LId:__ZN5physx2Sc18ParticleSystemCore10setDampingEf
K2b:__Z13RegisterClassI7TextureEvv
Lkk:_ExpressionCollection_OnValidate_m1703610065
sUj:_Playable_INTERNAL_CALL_GetPlayStateInternal_m3560305748
Lx:__ZNK21AnimationClipPlayable7GetTimeEv
Yub:__ZN8Gradient8TransferI18StreamedBinaryReadILb1EEEEvRT_
B_h:_Enumerator_Dispose_m2369319718_AdjustorThunk
Fpi:__ZL79Convert_t2607082565_CustomAttributesCacheGenerator_Convert_ToUInt16_m3991499696P21CustomAttributesCache
sed:__ZN5physx2Sc10NPhaseCore16deleteFilterPairEPNS0_10FilterPairE
auc:__Z45Register_UnityEngine_GUIStyle_SetFontInternalv
EVc:__ZN19CollisionListener2DD0Ev
cTg:__ZN16VirtFuncInvoker5IP12Il2CppObjectP22ByteU5BU5D_t3397334013iiP24AsyncCallback_t163412349S1_E6InvokeEjPvS3_iiS5_S1_
H6f:_Enumerator_Dispose_m1520016780_AdjustorThunk
uhb:__ZN15dense_hashtableINSt3__24pairIKNS0_12basic_stringIcNS0_11char_traitsIcEENS0_9allocatorIcEEEES7_EES7_11djb2_hash_tIS7_EN14dense_hash_mapIS7_S7_SB_NS0_8equal_toIS7_EE13stl_allocatorIS9_L18MemLabelIdentifier54ELi16EEE9SelectKeyESE_SH_ED2Ev
o5k:__ZN6il2cpp6icalls8mscorlib6System4Type15MakeGenericTypeEP20Il2CppReflectionTypeP11Il2CppArray
tte:_PxCreateBasePhysics
Kj:_SDL_PauseAudio
MTk:_il2cpp_class_from_type
msf:_Array_Sort_m2323017822
Thl:_GC_clear_mark_bit
Jsj:_Scrollbar_UpdateDrag_m3839695926
RJi:_GUILayoutUtility__cctor_m2957755459
DLj:_AudioConfigurationChangeHandler_EndInvoke_m2237100787
sid:__ZN5physx2Sc5Scene28addActiveBreakableConstraintEPNS0_13ConstraintSimE
t5:__ZN9ShaderLab19CommonPropertyNames16StaticInitializeEPv
rxd:__ZN5physx6shdfnd8PoolBaseINS_16NpParticleSystemENS0_19ReflectionAllocatorIS2_EEE15disposeElementsEv
fxa:__ZN17ShaderPassContext8CopyFromERKS_
Fra:__ZN13MemoryManager31DisallowAllocationsOnThisThreadEv
kF:__ZN7mecanim9animation18CreateAvatarOutputEPKNS0_14AvatarConstantEbbRNS_6memory9AllocatorE
kse:__ZN5physx7profile11EventBufferINS_24PxDefaultContextProviderENS_6shdfnd6MutexTINS0_26WrapperReflectionAllocatorIhEEEENS0_14ScopedLockImplIS7_EENS_24PxProfileNullEventFilterEE10eventValueEtyx
QIh:_CspParameters__ctor_m2546931874
cS:__ZN11AudioSource23VirtualRedirectTransferER24GenerateTypeTreeTransfer
r5c:__ZN5physx2Gu11getBoxEdgesEv
Nxb:__ZN14Texture2DArray23VirtualRedirectTransferER14SafeBinaryRead
$$a:__ZNK6Camera21CalculateCanDoShadowsEv
gUd:__ZNK5physx2Sc5Scene17getBroadPhaseCapsERNS_16PxBroadPhaseCapsE
h3h:_Dictionary_2_make_pair_m2631942124_gshared
eud:__ZN5physx9NpFactory14onActorReleaseEPNS_7PxActorE
kMk:__ZN14dense_hash_mapI10KeyWrapperINSt3__212basic_stringIcNS1_11char_traitsIcEENS1_9allocatorIcEEEEEP11Il2CppClassN6il2cpp5utils11StringUtils12StringHasherIS7_EENS1_8equal_toIS8_EENS5_INS1_4pairIKS8_SA_EEEEEC2EjRKSF_RKSH_
mCg:_Graphic__cctor_m1643894470
lel:__ZN6il2cpp2os6Thread12SetStackSizeEj
Zuh:_X509ChainElementEnumerator_get_Current_m2232618221
ukd:__ZN5physx2Sc5Actor15onElementAttachERNS0_7ElementE
L8f:_Collection_1_Clear_m3860339101_gshared
ZGb:__ZNK20ArchiveStorageReader15HasStreamBlocksEv
abc:__ZNK8Renderer16IsVisibleInSceneEv
Edj:__Z44RuntimeInvoker_AnimatorStateInfo_t2577870592PK10MethodInfoPvPS2_
auj:_ScrollRect_set_onValueChanged_m3957749575
j2:__Z13VFormatBufferPciPKcz
wId:__ZN5physx2Sc18ParticleSystemCore23setSimulationFilterDataERKNS_12PxFilterDataE
tTb:__Z18Transfer_BlittableI18StreamedBinaryReadILb0EELb1EhEvRK29SerializationCommandArgumentsR31RuntimeSerializationCommandInfo
iii:__ZL90SafeHandle_t2733794115_CustomAttributesCacheGenerator_SafeHandle_get_IsInvalid_m3910183075P21CustomAttributesCache
fEg:_Image_GenerateSimpleSprite_m4275440988
YQj:_Display_get_systemHeight_m3377672024
XFj:_UInt16_ToString_m3280699191
MGf:_Convert_ToDouble_m2956884076
uqa:__ZN6prcoreL27StretchGenericFloatBilinearI15TexFormatRFloatEEvPKNS_9InnerInfoE
p_d:__ZN5physx6shdfnd8internal8HashBaseINS0_4PairIKNS_2Sq13PrunerPayloadEjEES5_NS0_4HashIS5_EENS1_11HashMapBaseIS5_jS9_NS0_9AllocatorEE6GetKeyESB_Lb1EE15reserveInternalEj
dji:__ZL62IDynamicMessageSink_t3056162262_CustomAttributesCacheGeneratorP21CustomAttributesCache
L$i:__Z33RuntimeInvoker_UInt32_t2149682021PK10MethodInfoPvPS2_
p_i:__Z130RuntimeInvoker_Int32_t2071877448_Il2CppObject_Int32_t2071877448_Int32_t2071877448_Il2CppObject_Int32_t2071877448_Int32_t2071877448PK10MethodInfoPvPS2_
udf:_Array_InternalArray__IEnumerable_GetEnumerator_TisBoolean_t3825574718_m798244337_gshared
n3f:_List_1_CopyTo_m158925060_gshared
ukb:__ZN4core20StringStorageDefaultIcE6assignERKS1_
q3i:__Z102RuntimeInvoker_Il2CppObject_Int32_t2071877448_Int32_t2071877448_Il2CppObject_Il2CppObject_Il2CppObjectPK10MethodInfoPvPS2_
bIb:__ZN39AssetBundleLoadFromStreamAsyncOperationC2ERKNSt3__212basic_stringIcNS0_11char_traitsIcEENS0_9allocatorIcEEEE
off:_Array_IndexOf_TisCustomAttributeNamedArgument_t94157543_m745056346_gshared
Vra:__Z33scripting_unity_engine_object_newP11Il2CppClassP6Object
XPk:__ZN6il2cpp2vm13MetadataCache28GetFieldDefaultValueForFieldEPK9FieldInfo
c7j:_DefaultComparer_Compare_m3277849110_gshared
JXj:_ArrayReadOnlyList_1_ReadOnlyError_m2289309720_gshared
Qz:__ZN27AnimationLayerMixerPlayableD2Ev
mRk:__ZN6il2cpp2vm8basepathEPKc
a2d:__ZN5physx2Gu22gjkRelativePenetrationINS0_9TriangleVENS0_8CapsuleVEEEjRKT_RKT0_RKNS_6shdfnd3aos15PsMatTransformVERKNSB_6FloatVERNSB_5Vec3VESJ_SJ_RSF_PhSL_Rh
E9:__ZNSt3__212basic_stringIcNS_11char_traitsIcEE13stl_allocatorIcL18MemLabelIdentifier1ELi16EEE9push_backEc
V4h:_DefaultComparer_GetHashCode_m320514092_gshared
Aeh:_PKCS1_Verify_v15_m478274703
qO:__ZN12AudioManager39HandlePendingAudioConfigurationCallbackEv
Sra:__ZNK8Material16MarkDependenciesER27GarbageCollectorThreadState
n7a:__Z20RequiredComponentsOfP11Il2CppClass
QUj:_GenericMixerPlayable_InternalCreate_m559491731
Jk:_emscripten_glIsFramebuffer
YIa:__ZNK13TranslateGLES9GetFormatE13TextureFormat17TextureColorSpace
pyb:__ZN12_GLOBAL__N_16qAtan2Eff
vul:__ZNSt3__215__num_get_floatIfEET_PKcS3_Rj
PHf:_Convert_ToInt64_m954367741
Mk:_JS_Sound_SetLoopPoints
qxf:_ArrayList__ctor_m1467563650
DS:__ZN12AudioManager17ShouldSourcePauseEb
Ukl:__ZN6il2cpp2vm26MetadataAllocGenericMethodEv
wKa:__ZN19ConstantBuffersGLES12RecordRenderEv
vcd:__ZN18PhysxJobDispatcher10submitTaskERN5physx10PxBaseTaskE
bsb:__ZN18AsyncUploadManager22UploadStreamingTextureEP28FileTextureUploadInstruction
Cyc:__ZN9JSONWrite8TransferI10RectOffsetEEvRT_PKc17TransferMetaFlags
BFa:__ZN4crnd12symbol_codec11decode_bitsEj
gCl:__ZNSt3__212basic_stringIwNS_11char_traitsIwEENS_9allocatorIwEEE7reserveEj
DQc:__ZN15b2CircleContact8EvaluateEP10b2ManifoldRK11b2TransformS4_
umf:_Array_Sort_TisRaycastResult_t21186376_TisRaycastResult_t21186376_m38820193_gshared
_Jj:_Animator_ResetTriggerString_m1445965342
LEj:_Type_GetGenericTypeDefinition_m2658530753
E7b:__ZN21FixedBehaviourManagerD0Ev
xxi:__ZL55RaycastHit2D_t4063908774_CustomAttributesCacheGeneratorP21CustomAttributesCache
pSg:_StreamReader__ctor_m3454466728
Uxc:__ZL17Transfer_GUIStyleI9JSONWriteLb0EEvRK29SerializationCommandArgumentsR31RuntimeSerializationCommandInfo
ECa:__ZNK18GfxFramebufferGLES15GetSamplesCountEv
ZYb:__ZNSt3__26vectorIN9ShaderLab20SerializedSubProgram15MatrixParameterENS_9allocatorIS3_EEE26__swap_out_circular_bufferERNS_14__split_bufferIS3_RS5_EE
rxk:_Vector2_get_Item_m2792130561
EHc:__ZN15CollisionModule8TransferI18StreamedBinaryReadILb1EEEEvRT_
Hra:__Z16MarkDependenciesR27GarbageCollectorThreadStatej
Cvl:__ZNSt3__27num_putIwNS_19ostreambuf_iteratorIwNS_11char_traitsIwEEEEED0Ev
Rwh:_X509ChainElementEnumerator_Reset_m3832280427
rBi:__ZL75EventSystem_t3466835263_CustomAttributesCacheGenerator_U3CU3Ef__mgU24cache0P21CustomAttributesCache
l_g:_MulticastDelegate_RemoveImpl_m2024746777
Hwg:_CanvasUpdateRegistry_ParentCount_m2367607495
f_g:_MulticastDelegate_Equals_m3064081489
fhj:__Z54RuntimeInvoker_Void_t1841601450_ColorBlock_t2652774230PK10MethodInfoPvPS2_
oah:_Activator_CreateInstance_m1465989661
k5:__ZNK9Transform11GetPositionEv
Ywd:__ZN5physx12NpConstraint8requiresERNS_23PxProcessPxBaseCallbackE
Dck:__ZN21InterfaceFuncInvoker1IP8String_tS1_E6InvokeEjP11Il2CppClassPvS1_
hlk:_PositionAssertion_GetWidth_m2294218483
EUj:_Playable_INTERNAL_CALL_GetDurationInternal_m2061318387
OYa:__ZN23SharedMeshRenderingData18UnloadVertexStreamEi
Cyk:_Vector4_set_Item_m3077071044
BBg:__ZN16VirtFuncInvoker0IP19Material_t193706927E6InvokeEjPv
kbd:__ZN5physx3Cct13HandleManager3AddEPv
f8b:__ZN31CanvasBatchIntermediateRenderer11AddSubBatchERK16DrawBuffersRangePK19ShaderPropertySheet
SCi:__ZL104PointerEventData_t1599784723_CustomAttributesCacheGenerator_PointerEventData_set_scrollDelta_m4002219844P21CustomAttributesCache
I6b:__ZN19RenderEventsContextC2Ei
eW:__Z6simd4fRKf
vtk:_InvokableCall_3_Find_m3470456112_gshared
Hif:_Array_InternalArray__ICollection_CopyTo_TisColor32_t874517518_m379086718_gshared
Cwj:_Slider_ClampValue_m2851810895
nl:_emscripten_glEnable
CKi:_GUISkin_set_font_m4009958323
qzk:_UnityEvent_1_FindMethod_Impl_m3813546_gshared
W9k:__ZN6il2cpp2gc16GarbageCollector29RegisterFinalizerForNewObjectEP12Il2CppObject
pkb:__ZN10TagManager23VirtualRedirectTransferER14SafeBinaryRead
ije:__ZNK5physx2Sc15ClothFabricCore9getNbSetsEv
Mak:_MarshalAsAttribute__ctor_m1892084128
QBe:_UNITY_FT_Init_Class_ft_grays_raster
fbj:__Z53RuntimeInvoker_Void_t1841601450_Vector3U26_t425862308PK10MethodInfoPvPS2_
h3a:__Z15InitLightMeshesv
Yni:__ZL97WaitHandle_t677569169_CustomAttributesCacheGenerator_WaitHandle_t677569169____Handle_PropertyInfoP21CustomAttributesCache
nTd:__ZNK5physx7NpScene26getNbContactDataBlocksUsedEv
$Sf:_KeyValuePair_2_ToString_m1391611625_AdjustorThunk
jo:FUNCTION_TABLE_iifiii
A9k:__ZNK10KeyWrapperIP12Il2CppObjectEeqERKS2_
W6c:__ZN5physx2Gu29computeCapsule_HeightFieldMTDERKNS_21PxHeightFieldGeometryERKNS_11PxTransformERNS0_8CapsuleVEffbjRNS_10PxSweepHitE
MOd:__ZNK5physx2Cm12DelegateTaskINS_7NpSceneEXadL_ZNS2_14executeCollideEPNS_10PxBaseTaskEEEE7getNameEv
Bke:__ZN5physx2Gu11HeightField15exportExtraDataERNS_22PxSerializationContextE
Fvb:__ZN15QualitySettings8TransferI19StreamedBinaryWriteILb0EEEEvRT_
gZf:_List_1_System_Collections_Generic_IEnumerableU3CTU3E_GetEnumerator_m1503548298_gshared
wRb:__Z18Transfer_BlittableI19StreamedBinaryWriteILb0EELb1E8Vector2fEvRK29SerializationCommandArgumentsR31RuntimeSerializationCommandInfo
LGe:_cf2_arrstack_init
jJk:__ZN30dense_hashtable_const_iteratorINSt3__24pairIK10KeyWrapperIPK22Il2CppGenericParameterEP11Il2CppClassEES6_N6il2cpp5utils11PointerHashIS4_EEN14dense_hash_mapIS6_S9_SE_NS0_8equal_toIS6_EENS0_9allocatorISA_EEE9SelectKeyESH_SJ_EppEv
Ohi:__ZL65ClassInterfaceAttribute_t910653559_CustomAttributesCacheGeneratorP21CustomAttributesCache
A8j:__ZN16VirtFuncInvoker2Ii19Vector2_t2243707579S0_E6InvokeEjPvS0_S0_
X$:__Z15CleanLogHandler7LogTypePKcz
l$b:__ZN9ShaderLab19SerializedSubShader8TransferI19StreamedBinaryWriteILb0EEEEvRT_
szd:__ZN5physx10NpMaterialC2ERKNS_2Sc12MaterialCoreE
BT:__ZN14AudioBehaviour15ThreadedCleanupEv
Uae:__ZN5physx9PxTaskMgr10resolveRowEjb
uK:__ZN10HumanTrait12CleanupClassEv
nJb:__ZN6Camera17RemoveImageFilterERK11ImageFilter
sHa:__ZNSt3__218__insertion_sort_3IR25ValueParameterArraySorterPN20GpuProgramParameters14ValueParameterEEEvT0_S6_T_
lAf:_CaseInsensitiveHashCodeProvider_AreEqual_m2456617355
wsh:_WebHeaderCollection__ctor_m4088938710
ypj:_LayoutUtility_GetLayoutProperty_m4052007472
otk:_InvokableCall_1_Invoke_m3239892614_gshared
NLc:__ZN11ShapeModule17MainThreadCleanupEv
PEe:_Horizontal_Sweep_Init
tKc:__ZN9SubModule5ResetEv
i8h:_EqualityComparer_1_get_Default_m1806515335_gshared
lGk:__ZL24UnresolvedVirtualCall_97P12Il2CppObjectS0_iS0_iPK10MethodInfo
Uxl:__ZNKSt3__210moneypunctIwLb1EE14do_curr_symbolEv
cjh:_Context_set_WriteSequenceNumber_m3356252710
Eie:__ZNK5physx13NpClothFabric13getRestvaluesEPfj
h3k:__ZN6il2cpp6icalls8mscorlib6System9ThreadingL20GetSerializedCultureERPhRj
l4c:__ZN5physx2Gu16_gjkLocalRayCastINS0_9TriangleVENS0_11ConvexHullVEEEbRT_RT0_RKNS_6shdfnd3aos6FloatVERKNS9_5Vec3VESF_RSA_RSD_SH_f
Jx:__ZNK8Playable11GetDurationEv
x0f:_List_1_Find_m928286154_gshared
$x:__ZN17AnimationPlayable28ComputeNeedsBindingRebuildedEv
Sxl:__ZNKSt3__210moneypunctIwLb1EE16do_thousands_sepEv
Did:__ZN5physx6shdfnd8PoolBaseINS_2Cm5BlockIPvLj32EEENS0_19ReflectionAllocatorIS5_EEE17releaseEmptySlabsEv
O6j:_DefaultComparer__ctor_m2859550749_gshared
GJj:_AnimationEvent_get_functionName_m4178006856
f4d:__ZN5physx23PxsBroadPhaseContextSap21batchUpdateFewUpdatesEjRPNS_17PxcBroadPhasePairERjS4_
B7c:__ZN5physx3Cct17getSceneTimestampEPKNS0_30InternalCBData_FindTouchedGeomE
Cod:__ZN5physx14NpArticulation12applyImpulseEPNS_18PxArticulationLinkERKNS_24PxArticulationDriveCacheERKNS_6PxVec3ES8_
yuh:_X509ExtensionCollection__ctor_m1324282194
rSi:_Physics_Raycast_m2874007225
dTe:__ZN18UnityConnectClient33OnPlayerSessionStateChangedStaticEPS_jyy
nK:__ZN25RuntimeAnimatorController12CleanupClassEv
Tdi:__ZL74CaseInsensitiveHashCodeProvider_t2307530285_CustomAttributesCacheGeneratorP21CustomAttributesCache
RHj:_UIntPtr__ctor_m3900568171_AdjustorThunk
MYj:_InternalEnumerator_1_get_Current_m1943362081_gshared
fDa:__ZN7ApiGLES4LoadE16GfxDeviceLevelGL
ytb:__ZN18StreamedBinaryReadILb0EE21TransferSTLStyleArrayI13dynamic_arrayI31EnlightenSystemAtlasInformationLj8EEEEvRT_17TransferMetaFlags
Byd:__ZN5physx9NpPhysics15createAggregateEjb
uFa:__ZN4crnd12crn_unpacker22decode_color_endpointsEv
lig:_ReadOnlyCollection_1_System_Collections_IList_Clear_m3006875897_gshared
hWf:_Enumerator_System_Collections_IEnumerator_get_Current_m3866069145_gshared
ASi:_Physics_Raycast_m2994111303
A1g:_PreviousInfo_t581002487_marshal_pinvoke_cleanup
Rul:__ZNKSt3__27num_getIwNS_19istreambuf_iteratorIwNS_11char_traitsIwEEEEE6do_getES4_S4_RNS_8ios_baseERjS8_
Fga:__ZN8Material11SetPassFastEPN9ShaderLab4PassER17ShaderPassContextP6Shaderib
evg:_AspectRatioFitter_UpdateRect_m3782072749
yLc:__ZN20ExternalForcesModule5CacheERK27ParticleSystemReadOnlyStateR19ParticleSystemState
U9a:__ZNK13ScreenManager13GetLockCursorEv
bTe:__ZN11UnityEngine7Connect20BasePersistentValues10SaveValuesER9JSONWrite
$Gc:__ZN15PolynomialCurve12IsValidCurveERK17AnimationCurveTplIfE
yUi:_Rect_get_max_m96665935_AdjustorThunk
Crg:_ExecuteEvents_get_pointerDownHandler_m1172742772
Lae:__ZN5physx9PxTaskMgr12addReferenceEj
UWc:__ZNSt3__27__sort4IR24RayHitsByDepthComparitorP12RaycastHit2DEEjT0_S5_S5_S5_T_
mwh:_X509CertificateEnumerator_System_Collections_IEnumerator_MoveNext_m3708362145
H_a:__Z12SetupLODFadeR9GfxDeviceR17ShaderPassContextf
yTc:__ZN26b2PolygonAndCapsuleContact6CreateEP9b2FixtureiS1_iP16b2BlockAllocator
W2a:__ZL24CollectForwardObjectsJobP27CollectForwardObjectsHeader
T8j:_Enumerator_System_Collections_IDictionaryEnumerator_get_Entry_m345330700_gshared
nli:__ZL53HMACSHA256_t2622794722_CustomAttributesCacheGeneratorP21CustomAttributesCache
bWa:__Z13IsNodeVisibleRK9SceneNodeRK4AABBRK22SceneCullingParameters
pAl:__ZNSt3__27codecvtIDic11__mbstate_tED0Ev
iX:__ZN11UnityEngine15CloudWebService16SessionContainer7RestoreERK8UnityStrPvy
MSh:_EventInfo__ctor_m1190141300
BZj:_InternalEnumerator_1_MoveNext_m3585886944_gshared
gQe:__Z57RectTransformUtility_CUSTOM_INTERNAL_CALL_PixelAdjustRectP12Il2CppObjectS0_R5RectTIfE
VDh:_DelayedFixupRecord_FixupImpl_m4249966635
HOl:_emscripten_glStencilMask__wrapper
Vze:__ZZ29InitializeTextRenderingModulevEN40CleanUpTextRenderingGarbageCollectstruct7ForwardEv
k2g:_BigInteger_op_Implicit_m4032862257
r9:__ZN11TypeManager19ClassNameToTypeInfoEPKcb
Y1g:_BigInteger_ToString_m3837784224
$Xa:__ZN15RenderNodeQueue7CleanupEv
pQa:__ZNK17ArchiveFileSystem8PositionERK13FileEntryData
Ccd:__ZN16NovodexAllocator8allocateEjPKcS1_i
EOf:_DllNotFoundException__ctor_m267198482
xtl:__ZNSt3__215basic_streambufIcNS_11char_traitsIcEEEC2Ev
KFi:__ZL81U3CMouseDragOutsideRectU3Ec__Iterator1_t2599668326_CustomAttributesCacheGeneratorP21CustomAttributesCache
jAj:_NativeEventCalls_CreateEvent_internal_m1605829321
Imf:_Array_Sort_TisUIVertex_t1204258818_TisUIVertex_t1204258818_m1327748421_gshared
Rzi:__ZL73RuntimePlatform_t1869584967_CustomAttributesCacheGenerator_MetroPlayerX64P21CustomAttributesCache
JEk:__ZL24UnresolvedVirtualCall_13P12Il2CppObjectaPK10MethodInfo
D_i:__Z65RuntimeInvoker_Int32_t2071877448_Il2CppObject_Int32U26_t455636984PK10MethodInfoPvPS2_
ydi:__ZL72PKCS12_t1362584794_CustomAttributesCacheGenerator_U3CU3Ef__switchU24mapFP21CustomAttributesCache
S2a:__ZN9ShaderLab10GrabPassesD2Ev
vMi:_GUIStyle_set_font_m312124587
Wxb:__ZN14Texture2DArray13UploadTextureEv
rhj:__Z69RuntimeInvoker_TextGenerationSettings_t2543476768_Vector2_t2243707579PK10MethodInfoPvPS2_
j3e:_SecurityFrame_t1002202659_marshal_pinvoke
cEe:_tt_cmap14_done
wsa:__ZN18AwakeFromLoadQueue25RegisterObjectInstanceIDsEv
fpe:__ZN5physx21PxProfileNameProviderD2Ev
Guf:_Buffer_BlockCopy_m1586717258
pNk:__ZN15dense_hashtableI10KeyWrapperIPK17Il2CppGenericInstES4_N6il2cpp8metadata21Il2CppGenericInstHashEN14dense_hash_setIS4_S7_NS6_24Il2CppGenericInstCompareENSt3__29allocatorIS4_EEE8IdentityES9_SC_E12maybe_shrinkEv
Nki:__ZL93X509Certificate_t283079845_CustomAttributesCacheGenerator_X509Certificate_GetName_m2354987368P21CustomAttributesCache
Gbi:__ZL65Il2CppArray_CustomAttributesCacheGenerator_Array_Copy_m1969461849P21CustomAttributesCache
Oxe:__ZN20TextRenderingPrivate19NativeTextGenerator15InsertCharacterEiPj
_Td:__ZN5physx2Sc5Scene22removeBroadPhaseRegionEj
Ubj:__Z52RuntimeInvoker_Void_t1841601450_ColorU26_t3402129837PK10MethodInfoPvPS2_
Cbd:__ZN5physx2Cm12RenderBuffer5clearEv
$Rf:_CompareInfo_GetSortKey_m3691382873
MFd:__ZNK5physx2Sc9ClothCore21getStiffnessFrequencyEv
vSc:__ZN11b2RopeJoint24SolveVelocityConstraintsERK12b2SolverData
TLf:_DBNull_ToString_m3228904745
oNa:__ZN14GfxDeviceStats15SetScreenParamsEiiiiii
Csh:_WebHeaderCollection_AddWithoutValidate_m1479880592
LZe:_SHA1Managed_HashCore_m2658295635
zBc:__ZN24OptimizedPolynomialCurve19BuildOptimizedCurveERK17AnimationCurveTplIfEf
q0d:__ZN5physx13PxsCCDContext14postCCDAdvanceEPNS_10PxBaseTaskE
kA:__ZN17AnimationPlayableD0Ev
Reh:_RC4_get_IV_m506011366
zpk:_X509Crl__ctor_m2469408229
eRb:__Z18Transfer_BlittableI19StreamedBinaryWriteILb0EELb0EyEvRK29SerializationCommandArgumentsR31RuntimeSerializationCommandInfo
aii:__ZL82SafeHandle_t2733794115_CustomAttributesCacheGenerator_SafeHandle_Close_m1146946803P21CustomAttributesCache
e9j:_Enumerator_get_CurrentValue_m3562053380_AdjustorThunk
uxh:_X509SubjectKeyIdentifierExtension_CopyFrom_m136762226
a5:__Z12MurmurHash2APKvij
eUf:_Enumerator_System_Collections_IEnumerator_Reset_m610822832_AdjustorThunk
Uch:_ASN1_get_Length_m778823697
N5k:__ZN6il2cpp6icalls8mscorlib6System2IO6MonoIO20GetFileSystemEntriesEP12Il2CppStringS6_iiPi
rlc:__Z41MonoBehaviour_Set_Custom_PropUseGUILayoutP12Il2CppObjecth
Jye:_UNITY_FT_Open_Face
lKl:_glGenRenderbuffers__wrapper
tMj:_Bounds_ToString_m1966597703
U2g:_BigInteger_op_Division_m1581119694
bXb:__ZN16ScriptingManagerD0Ev
$xj:_Text_get_layoutPriority_m1088242691
Ucl:__ZNK15dense_hashtableINSt3__24pairIK10KeyWrapperIP14Il2CppIUnknownEjEES5_N6il2cpp5utils11PointerHashIS3_EEN14dense_hash_mapIS5_jSB_NS0_8equal_toIS5_EENS0_9allocatorIS7_EEE9SelectKeyESE_SG_E12test_deletedERK24dense_hashtable_iteratorIS7_S5_SB_SI_SE_SG_E
wFh:_CallbackHandler_Invoke_m1498072969
vJh:_DSACryptoServiceProvider__ctor_m701823690
G6d:__ZNK5physx10BPWorkTask7getNameEv
JJi:_Mathf_Clamp_m2354025655
tMh:_CustomAttributeData_GetCustomAttributes_m2421330738
Mud:__ZN5physx2Sc8ShapeSim16onResetFilteringEv
MDj:_Type_get_IsEnum_m313908919
Lhc:__Z44Register_UnityEngine_Component_get_transformv
A3f:_List_1_Reverse_m3395936565_gshared
Uic:__Z39GameObject_CUSTOM_FindGameObjectWithTagP12Il2CppString
U9f:_Collection_1_System_Collections_ICollection_CopyTo_m1335644572_gshared
Nq:__ZN4PPtrI9TransformE8TransferI18StreamedBinaryReadILb1EEEEvRT_
v1f:_List_1_CheckMatch_m2830747427_gshared
nid:__ZN5physx2Sc16ActorInteractionD2Ev
xNa:__ZN17ArchiveFileSystem12MountArchiveEPKcS1_
lOf:_StackFrame_GetMethod_m72881026
v6k:__ZN15dense_hashtableI10KeyWrapperIP18Il2CppGenericClassES3_N6il2cpp8metadata22Il2CppGenericClassHashEN14dense_hash_setIS3_S6_NS5_25Il2CppGenericClassCompareENSt3__29allocatorIS3_EEE8IdentityES8_SB_E15set_deleted_keyERKS3_
nzc:__Z18Transfer_BlittableI9JSONWriteLb1E8Vector4fEvRK29SerializationCommandArgumentsR31RuntimeSerializationCommandInfo
L6:__Z11RequireTypePKcS0_S0_
ktl:__ZThn8_NSt3__214basic_iostreamIcNS_11char_traitsIcEEED0Ev
KXh:_Enumerator_System_Collections_IEnumerator_Reset_m70453843_gshared
svd:__ZN5physx2Sc16ArticulationCore26setExternalDriveIterationsEj
Vxk:_Vector3_get_Item_m3616014016
eHi:__ZL59Slider_t297367283_CustomAttributesCacheGenerator_m_MinValueP21CustomAttributesCache
CAa:__ZN9GfxDevice15ImmediateVertexEfff
t2b:__Z13RegisterClassI8MaterialEvv
dmi:__ZL51Evidence_t1407710183_CustomAttributesCacheGeneratorP21CustomAttributesCache
LLd:__ZN5physx14NpRigidDynamic10clearForceENS_11PxForceMode4EnumE
Xmb:__ZN16GraphicsSettings13AwakeFromLoadE17AwakeFromLoadMode
eRf:_FieldAccessException__ctor_m3893881490
Fej:__Z82RuntimeInvoker_Int32_t2071877448_Rect_t3681755626_Il2CppObject_Vector2_t2243707579PK10MethodInfoPvPS2_
xq:__ZN6Object13AwakeFromLoadE17AwakeFromLoadMode
pya:__ZN13GfxDeviceGLES15SetStencilStateEPK18DeviceStencilStatei
xMe:__ZN2UI11CanvasGroup8TransferI18StreamedBinaryReadILb1EEEEvRT_
nql:_cycle
Jkj:__Z53RuntimeInvoker_Int32_t2071877448_Keyframe_t1449471340PK10MethodInfoPvPS2_
tvk:_TextGenerator_Populate_m4139823822
iti:__ZL72PKCS12_t1362584795_CustomAttributesCacheGenerator_U3CU3Ef__switchU24map5P21CustomAttributesCache
de:_emscripten_glUniform1iv
Zxj:_Text_get_preferredHeight_m452532789
nWc:__ZN15b2DistanceProxy3SetEPK7b2Shapei
B4e:_String_System_IConvertible_ToDouble_m3860911722
Ecb:__ZN16MemoryFileSystemD2Ev
p1h:_Dictionary_2_System_Collections_Generic_ICollectionU3CSystem_Collections_Generic_KeyValuePairU3CTKeyU2CTValueU3EU3E_Contains_m842343255_gshared
idh:_ARC4Managed__ctor_m2922048522
_xe:__Z17dynamic_pptr_castIP9Texture2D7TextureET_RK4PPtrIT0_E
By:__ZN7mecanim14ValueArrayLoopERKNS_10ValueArrayES2_RS0_fRKNS_14ValueArrayMaskE
_ig:_ReadOnlyCollection_1_System_Collections_IList_set_Item_m1272038804_gshared
NYj:_InternalEnumerator_1_System_Collections_IEnumerator_get_Current_m1931522460_AdjustorThunk
wJa:__ZN14DrawBufferGLESI12VertexBuffer27VertexBufferUsageMapperGLESE12EnsureBufferEj
D0e:_SecurityPermission_IsEmpty_m1869313067
wca:__ZN13RuntimeStaticI23MeshVertexFormatManagerE13StaticDestroyEPv
XIa:__ZN7ApiGLES15TextureSubImageEj16TextureDimensionN2gl9TexFormatEiiiiiiiiPKv
ohc:__Z37Register_UnityEngine_Camera_get_depthv
j6g:_EncryptedPrivateKeyInfo_get_Salt_m2734354394
mwb:__ZN12ImmediatePtrI9TransformE8TransferI18StreamedBinaryReadILb1EEEEvRT_
pMj:_Bounds_SetMinMax_m1523110422
ylg:_ReadOnlyCollection_1_System_Collections_Generic_IListU3CTU3E_set_Item_m1918537449_gshared
g9f:_Collection_1_System_Collections_ICollection_CopyTo_m3896480607_gshared
fsg:_PointerEventData_set_position_m794507622
N5d:__ZNK5physx16PxsBroadPhaseMBP18getNumDeletedPairsEv
mre:__ZN5physx7profile8ZoneImplINS_28PxProfileNameProviderForwardEE10startEventEty
zea:__ZN15dense_hashtableINSt3__24pairIKPKcPK4RTTIEES3_N11TypeManager23ConstCharPtrHashFunctorEN14dense_hash_mapIS3_S7_SA_NS9_19ConstCharPtrEqualToE13stl_allocatorIS8_L18MemLabelIdentifier6ELi16EEE9SelectKeyESC_SF_E12resize_deltaEjj
K0d:__ZN5physx10PxsCCDPair17sweepAdvanceToToiEfb
N1b:__ZN15ApplicationInfo16GetInstallerNameEv
kcb:__Z23ConvertIntegerToTypePtrItEbPvR14SafeBinaryRead
VE:__ZN7mecanim5human29HumanGetGoalOrientationOffsetENS0_4GoalE
ue:_emscripten_glStencilFunc
D3i:__Z101RuntimeInvoker_Void_t1841601450_Il2CppObject_Il2CppObject_Il2CppObject_Il2CppObject_Int32_t2071877448PK10MethodInfoPvPS2_
Otd:__ZN5physx6shdfnd8PoolBaseINS_2Cm5BlockIhLj384EEENS0_19ReflectionAllocatorIS4_EEE17releaseEmptySlabsEv
Lge:__ZN5physx16PxsIslandManager11freeBuffersEv
CEk:__ZL23UnresolvedVirtualCall_6P12Il2CppObjectiPK10MethodInfo
A7:__ZN18AwakeFromLoadQueueD2Ev
DVh:_MonoMethod_MakeGenericMethod_impl_m2063853616
xmd:__ZN5physx2Cm12DelegateTaskINS_2Sc17ParticleSystemSimEXadL_ZNS3_21prepareCollisionInputEPNS_10PxBaseTaskEEEE11runInternalEv
k3e:__Z46il2cpp_codegen_get_marshal_directive_exceptionPKc
o0b:__ZN9ShaderLab20SerializedSubProgram14AddMatrixParamEPKcii15ShaderParamTypei
Ae:_glGetActiveUniformBlockName
jFh:__ZN16VirtFuncInvoker0I18Decimal_t724701077E6InvokeEjPv
UAg:_FontData_set_verticalOverflow_m4211463083
_bi:__ZL65Il2CppArray_CustomAttributesCacheGenerator_Array_Sort_m2090966156P21CustomAttributesCache
HMg:_Guid_AppendByte_m2890893073
kde:__ZL28removeBrokenEdgesFromIslandsPKjjS0_jS0_RKN5physx11NodeManagerERNS1_11EdgeManagerERNS1_13IslandManagerERNS1_2Cm10BitMapBaseINS1_6shdfnd9AllocatorEEEPSD_
wEc:__ZN31CollisionModulePropertyBindings13GetFloatValueERK14ParticleSystemi
Svf:_Char_System_IConvertible_ToType_m3106771703_AdjustorThunk
uzh:_Interval_Intersects_m3480157390_AdjustorThunk
mkc:__Z39Quaternion_CUSTOM_INTERNAL_CALL_InverseRK11QuaternionfRS_
wak:_GCHandle_Alloc_m1063472408
nP:__ZN4FMOD7Channel20set3DConeOrientationEP11FMOD_VECTOR
fDi:__ZL86StandaloneInputModule_t70867863_CustomAttributesCacheGenerator_m_InputActionsPerSecondP21CustomAttributesCache
Xn:FUNCTION_TABLE_iiifii
G8j:_Comparer_1__ctor_m4052560291_gshared
cyi:__ZL54SkeletonBone_t345082847_CustomAttributesCacheGeneratorP21CustomAttributesCache
DIh:_CryptoConfig_CreateFromName_m391442950
W8k:__ZN6il2cpp2vm12GenericClass11SetupEventsEP11Il2CppClass
kKe:_tt_delta_interpolate
XDe:_tt_cmap12_get_info
YCf:_SortedList__ctor_m3698381356
lnj:__Z31RuntimeInvoker_Slot_t2022531261PK10MethodInfoPvPS2_
Brk:_Predicate_1_EndInvoke_m3656575065_gshared
VVg:_StreamWriter_LowLevelWrite_m4205372900
jDk:__ZN6il2cpp6icalls8mscorlib6System7Decimal14decimalCompareEP19il2cpp_decimal_reprS5_
Wod:__ZN5physx26PxcFsComputeJointLoadsSimdERKNS_9PxcFsDataEPKNS_12PxcFsInertiaEPNS_6shdfnd3aos6Mat33VEPKfjjNS_21PxcFsScratchAllocatorE
NTh:_Module__ctor_m3853650010
DAf:_CollectionBase_System_Collections_IList_get_Item_m2370387510
yvl:__ZNSt3__29__num_putIcE23__widen_and_group_floatEPcS2_S2_S2_RS2_S3_RKNS_6localeE
DOd:__ZN5physx6shdfnd8SyncImpl7getSizeEv
yBc:__Z11BuildCurvesR25MinMaxOptimizedPolyCurvesRK21MinMaxAnimationCurvesfs
T1:__Z15CreateDirectoryRKNSt3__212basic_stringIcNS_11char_traitsIcEENS_9allocatorIcEEEE
Qna:__ZNSt3__26__treeINS_12__value_typeIN9ShaderLab16FastPropertyNameE10ColorRGBAfEENS_19__map_value_compareIS3_S5_NS_4lessIS3_EELb1EEENS_9allocatorIS5_EEE12__find_equalIS3_EERPNS_16__tree_node_baseIPvEENS_21__tree_const_iteratorIS5_PNS_11__tree_nodeIS5_SF_EEiEESI_RKT_
BLl:_glCopyTexImage2D__wrapper
ini:__ZL88UTF7Encoding_t741406939_CustomAttributesCacheGenerator_UTF7Encoding_GetBytes_m3015176946P21CustomAttributesCache
IHg:_LayoutElement__ctor_m789941073
HBi:__ZL77ExecuteEvents_t1693084770_CustomAttributesCacheGenerator_U3CU3Ef__mgU24cache9P21CustomAttributesCache
NMj:_Camera_FireOnPreCull_m1679634170
rhi:__ZL68TargetInvocationException_t4098620458_CustomAttributesCacheGeneratorP21CustomAttributesCache
dri:__ZL56RankException_t1539875949_CustomAttributesCacheGeneratorP21CustomAttributesCache
l9c:__ZN5physx11PxHitBufferINS_12PxRaycastHitEED0Ev
bKg:_NumberFormatter_CountTrailingZeros_m2398864634
t9g:___Il2CppComDelegate_t3311706788_create_ccw
Spa:__ZN6prcoreL17RemapGenericFloatI14TexFormatRHalf15TexFormatRFloatEEvPKNS_9InnerInfoE
U2a:__Z16ShouldUseShadowsb
Joh:_TlsStream_SetLength_m1460039587
$Ek:__ZL24UnresolvedVirtualCall_31P12Il2CppObjectiS0_S0_PK10MethodInfo
A2c:__ZN5physx2Gu24contactSphereHeightFieldERKNS0_13GeometryUnionES3_RKNS_11PxTransformES6_RKfRNS0_5CacheERNS0_13ContactBufferE
Nkj:__Z55RuntimeInvoker_Int32_t2071877448_UICharInfo_t3056636800PK10MethodInfoPvPS2_
nGa:__ZN7ApiGLES10DrawArraysE16GfxPrimitiveTypejjj
HRj:_Event_PopEvent_m1952528237
K_c:__ZN5physx3Cct13BoxController15getPxControllerEv
ZM:__ZN10SampleClip13LoadBaseSoundEv
V4c:__ZN5physx2Gu22gjkRelativePenetrationINS0_17ShrunkConvexHullVES2_EEjRKT_RKT0_RKNS_6shdfnd3aos15PsMatTransformVERKNSA_6FloatVERNSA_5Vec3VESI_SI_RSE_PhSK_Rh
XNi:_GUIStyleState__ctor_m2708667747
b2i:__Z62RuntimeInvoker_Il2CppObject_Int32_t2071877448_SByte_t454417549PK10MethodInfoPvPS2_
qw:__ZN7mecanim9animation4Clip8TransferI19StreamedBinaryWriteILb0EEEEvRT_
Sdg:_Collection_1_Contains_m643401393_gshared
Jhe:__ZN5physx2Sc19ParticlePacketShapeC2ERNS0_17ParticleSystemSimEjPNS_16PxvParticleShapeE
Yna:__ZN22DeviceMVPMatricesStateC2ER9GfxDevice
kjk:_Regex_IsMatch_m1286520424
Dyd:__ZN5physx9NpPhysics18createTriangleMeshERNS_13PxInputStreamE
lo:FUNCTION_TABLE_iiiiifiiiif
y6i:__Z48RuntimeInvoker_Int64_t909078037_Int64_t909078037PK10MethodInfoPvPS2_
t4e:_String__ctor_m372528291
sea:__ZN6Object16StaticInitializeEv
Ede:__ZN5physx2Cm12DelegateTaskINS_2Sc5SceneEXadL_ZNS3_14updateDynamicsEPNS_10PxBaseTaskEEEED0Ev
P_k:__ZN6il2cpp2vm10Reflection12HasAttributeEP9FieldInfoP11Il2CppClass
dsa:__ZNSt3__26__treeIiNS_4lessIiEE13stl_allocatorIiL18MemLabelIdentifier1ELi16EEE7destroyEPNS_11__tree_nodeIiPvEE
Fc:invoke_viiifi
tCi:__ZL104PointerEventData_t1599784723_CustomAttributesCacheGenerator_PointerEventData_get_pointerDrag_m2740415629P21CustomAttributesCache
jxi:__ZL79Physics_t634932869_CustomAttributesCacheGenerator_Physics_RaycastAll_m233036521P21CustomAttributesCache
VYg:_LongComparer_Compare_m3981323622
X$i:__Z64RuntimeInvoker_UInt64_t2909196914_Il2CppObject_Int32_t2071877448PK10MethodInfoPvPS2_
Xle:__ZN5physx6shdfnd5ArrayIPNS_7PxActorENS0_19ReflectionAllocatorIS3_EEE8recreateEj
UIi:__ZL109LayoutUtility_t4076838048_CustomAttributesCacheGenerator_LayoutUtility_U3CGetFlexibleHeightU3Em__7_m947156537P21CustomAttributesCache
tWc:__ZNSt3__27__sort4IRN15Cast2DQueryBase14FixtureContactEPS2_EEjT0_S5_S5_S5_T_
Owj:_Slider_FindSelectableOnUp_m15474611
hwa:__ZNK11AssetBundle14GetPreloadDataEiR13dynamic_arrayIiLj4EE
s7g:_EncryptedData_get_EncryptedContent_m2732115576
Kf:_JS_Sound_SetPosition
Iik:_Assertion_set_FalseExpression_m1781616372
qxh:_X509SubjectKeyIdentifierExtension_FromHexChars_m2515150420
Zta:__ZNK9Texture3D26CanReuploadDataToGfxDeviceEv
vPk:__ZL13GetSharedInstPK17Il2CppGenericInst
Hci:__ZL51IReflect_t3412036974_CustomAttributesCacheGeneratorP21CustomAttributesCache
jug:_StandaloneInputModule_SendSubmitEventToSelectedObject_m3421155293
qbk:_AppDomainLevelActivator__ctor_m230071814
lPj:_Component_GetComponentsInChildren_m908027537
BOc:__ZZN14ParticleSystem15InitializeClassEvEN29FunctorImpl_244kDidModifyMesh4CallEPviR11MessageData
oRe:__ZN22BaseUnityConnectClient17SaveSessionValuesEv
Wek:_CallContextRemotingData_Clone_m2226242476
pvf:_Byte_System_IConvertible_ToUInt32_m3950610247
$Bd:__ZNK5physx7NpCloth14getNbParticlesEv
yed:__ZN5physx2Sc10NPhaseCore24releaseShapeInstancePairEPNS0_19ShapeInstancePairLLEjj
Z2a:__Z24SetupActiveLightsContextR21ActiveLightingContextRK12ActiveLightsRK11CullResultsP14ShadowMapCacheRK10MinMaxAABB
f2h:_Dictionary_2_System_Collections_Generic_ICollectionU3CSystem_Collections_Generic_KeyValuePairU3CTKeyU2CTValueU3EU3E_Contains_m3400497673_gshared
qnc:__Z38Sprite_CUSTOM_INTERNAL_get_textureRectP12Il2CppObjectP5RectTIfE
PLf:_DBNull_System_IConvertible_ToUInt32_m2681284284
qOi:_HumanBone_set_boneName_m2410239828_AdjustorThunk
Xlb:__ZN6Camera8TransferI24GenerateTypeTreeTransferEEvRT_
W6h:_EqualityComparer_1__cctor_m416314417_gshared
Oa:invoke_iiiiiiif
Ia:invoke_iiiiiiii
KHb:__ZN24RingBufferMemoryFileData16ConsumeReadBytesEy
i4d:__ZN5physx21SapPostUpdateWorkTaskD0Ev
EOa:__ZN15dense_hashtableINSt3__24pairIKNS0_12basic_stringIcNS0_11char_traitsIcEE13stl_allocatorIcL18MemLabelIdentifier54ELi16EEEEP20ArchiveStorageReaderEES8_11djb2_hash_tIS8_EN14dense_hash_mapIS8_SB_SE_NS0_8equal_toIS8_EES5_ISC_LS6_54ELi16EEE9SelectKeyESH_SI_E12maybe_shrinkEv
UQi:_Mesh_GetUVChannel_m364477864
Jvh:_X509ChainElementCollection_Contains_m3599995067
MOl:b120
vud:__ZN5physx7NpActor18releaseConstraintsERNS_12PxRigidActorE
Ibd:__ZN5physx6shdfnd5ArrayINS_11PxDebugLineENS0_19ReflectionAllocatorIS2_EEE8recreateEj
lPl:b125
kPl:b124
nPl:b127
mPl:b126
pPl:b129
Gmc:__Z52Register_UnityEngine_RectTransform_INTERNAL_get_rectv
CYi:__Z53RuntimeInvoker_Il2CppObject_Il2CppObject_Il2CppObjectPK10MethodInfoPvPS2_
wKd:__ZNK5physx22NpParticleBaseTemplateINS_16PxParticleSystemENS_16NpParticleSystemEE20getMaxMotionDistanceEv
OCg:_GridLayoutGroup_set_spacing_m118889422
G2f:_List_1_ToArray_m2390522926_gshared
jii:__ZL70TypeLibImportClassAttribute_t2390314680_CustomAttributesCacheGeneratorP21CustomAttributesCache
eha:__ZN19RenderBufferManager13GetTempBufferEii17DepthBufferFormat19RenderTextureFormatj22RenderTextureReadWrite14VRTextureUsagei
KEb:__ZN18StreamedBinaryReadILb0EE21TransferSTLStyleArrayI13dynamic_arrayI16SplashScreenLogoLj4EEEEvRT_17TransferMetaFlags
dWk:__ZNK15dense_hashtableINSt3__24pairIK10KeyWrapperINS1_IPK9FieldInfoP11Il2CppClassEEEjEES9_17ReflectionMapHashIS8_EN14dense_hash_mapIS9_jSD_19ReflectionMapEqualsIS8_ENS0_9allocatorISB_EEE9SelectKeyESG_SI_E12test_deletedERK24dense_hashtable_iteratorISB_S9_SD_SK_SG_SI_E
oMd:__ZNK5physx14NpRigidDynamic25getContactReportThresholdEv
X3e:_Single_CompareTo_m2081476257
scf:_Array_InternalArray__ICollection_Remove_TisX509ChainStatus_t4278378721_m4127982424_gshared
yhc:__Z47Register_UnityEngine_Camera_get_allCamerasCountv
HGd:__ZN5physx22NpParticleBaseTemplateINS_15PxParticleFluidENS_15NpParticleFluidEE16releaseParticlesEv
NPc:__ZN14b2CapsuleShapeD2Ev
rRe:__ZN22BaseUnityConnectClient20StartEventDispatcherEv
Kac:__ZNSt3__26vectorIj13stl_allocatorIjL18MemLabelIdentifier1ELi16EEE6assignIPKtEENS_9enable_ifIXaasr21__is_forward_iteratorIT_EE5valuesr16is_constructibleIjNS_15iterator_traitsIS9_E9referenceEEE5valueEvE4typeES9_S9_
kD:__ZN7mecanim9animation16EvaluateAvatarIKEPKNS0_14AvatarConstantEPKNS0_11AvatarInputEPNS0_12AvatarOutputEPNS0_12AvatarMemoryEPNS0_15AvatarWorkspaceEb
YGa:__ZL25ProgramUniformMatrix4x3fvPK7ApiGLESjiihPKv
Dbb:__Z29StdTemplateConversionFunctionIsiEbPvR14SafeBinaryRead
lde:__Z22updateIslandsToProcessRKN5physx2Cm10BitMapBaseINS_6shdfnd9AllocatorEEEPKjRKNS_11NodeManagerERS4_
_5h:_EqualityComparer_1_System_Collections_IEqualityComparer_Equals_m3376587337_gshared
Bci:__ZL68Type_t_CustomAttributesCacheGenerator_Type_GetConstructor_m835344477P21CustomAttributesCache
USa:__ZN12InputManager13InputEndFrameEv
DCf:_SyncHashtable__ctor_m2029869827
nSk:__ZNSt3__26__treeIP11Il2CppClassNS_4lessIS2_EENS_9allocatorIS2_EEE25__emplace_unique_key_argsIS2_JRKS2_EEENS_4pairINS_15__tree_iteratorIS2_PNS_11__tree_nodeIS2_PvEEiEEbEERKT_DpOT0_
E_k:__ZN15dense_hashtableINSt3__24pairIK10KeyWrapperINS1_IPK9FieldInfoP11Il2CppClassEEEjEES9_17ReflectionMapHashIS8_EN14dense_hash_mapIS9_jSD_19ReflectionMapEqualsIS8_ENS0_9allocatorISB_EEE9SelectKeyESG_SI_EC2EjRKSD_RKSG_RKSK_
u$k:__ZN6il2cpp2vm6Thread5SetupEP12Il2CppThread
wUj:_Playables_SetPlayStateValidated_m770460097
Q0d:__ZN5physx35PxcSweepEstimateAnyShapeHeightfieldERKNS_11PxsCCDShapeES2_PKNS_12PxsRigidBodyES5_RKNS_11PxTransformES8_f
Nmg:_ReadOnlyCollection_1_System_Collections_IList_Remove_m2200089035_gshared
bcd:__ZN5physx3Cct13BoxControllerC2ERKNS_16PxControllerDescERNS_9PxPhysicsEPNS_7PxSceneE
b9f:_Collection_1_CheckWritable_m2756357359_gshared
Brl:___munmap
bFg:_InputField_get_characterLimit_m2386380888
RDi:__ZL68ColorBlock_t2652774230_CustomAttributesCacheGenerator_m_PressedColorP21CustomAttributesCache
BHf:_Convert_ToInt64_m1722087499
C1a:__ZN22RenderingCommandBuffer24PostExecuteCommandBufferER17ShaderPassContextP13RenderTexture
Cg:_localtime_r
u5e:__ZN16VirtFuncInvoker3IbP8String_tS1_iE6InvokeEjPvS1_S1_i
Laj:__Z80RuntimeInvoker_Il2CppObject_Ray_t2469606224_Single_t2076509932_Int32_t2071877448PK10MethodInfoPvPS2_
eoi:__ZL81AppDomain_t2719102437_CustomAttributesCacheGenerator_assembly_resolve_in_progressP21CustomAttributesCache
Xhi:__ZL65InterfaceTypeAttribute_t4113096249_CustomAttributesCacheGeneratorP21CustomAttributesCache
eGh:_CallbackHandler_EndInvoke_m2406225629
Fg:_strftime
pha:__ZN7Texture33SetStoredColorSpaceNoDirtyNoApplyE17TextureColorSpace
r2:__ZN12FileAccessorD2Ev
Tma:__ZN10ColorRGBAf8TransferI18StreamedBinaryReadILb0EEEEvRT_
Uyb:__ZN14VertexDataInfoC2Ev
$Qf:_Exception_GetObjectData_m2653827630
ayk:_Vector3_Equals_m2692262876_AdjustorThunk
U$j:_InternalEnumerator_1_get_Current_m2415979394_gshared
ikh:_TlsClientHello_Update_m1723542631
bVb:__ZL17Transfer_GUIStyleI18StreamedBinaryReadILb1EELb1EEvRK29SerializationCommandArgumentsR31RuntimeSerializationCommandInfo
ICc:__ZNSt3__227__insertion_sort_incompleteIR31SortCollisionEventsByGameObjectP22ParticleCollisionEventEEbT0_S5_T_
Mtj:_ScrollRect_SetDirtyCaching_m1491302821
ISk:__ZN6il2cpp6icalls8mscorlib6SystemL9IsPrivateEPK12PropertyInfo
W0d:__ZNK5physx18PxcConvexTriangles16getPolygonNormalEj
vMh:_CustomAttributeData_GetCustomAttributes_m3258419955
E5:__ZN9shadertag10InitializeEv
Dse:__ZN5physx24NpPtrTableStorageManager8canReuseEjj
b8e:_EncoderFallback__ctor_m1639180960
F6j:_InternalEnumerator_1_MoveNext_m1441038493_gshared
Cvb:__ZN15QualitySettings14QualitySetting8TransferI24GenerateTypeTreeTransferEEvRT_
uif:_Array_InternalArray__ICollection_CopyTo_TisParameterModifier_t1820634920_m4127516211_gshared
W2e:_DecoderReplacementFallback__ctor_m2344783488
NYh:_Enumerator_System_Collections_IDictionaryEnumerator_get_Key_m467957770_AdjustorThunk
eRd:__ZN5physx2Sc27ConstraintProjectionManager33processConstraintForGroupBuildingEPNS0_13ConstraintSimERNS0_20ScratchAllocatorListIS3_Lj64EEE
uu:__ZN17AnimationCurveTplI8Vector3fE8TransferI18StreamedBinaryReadILb1EEEEvRT_
rBg:_GraphicRegistry_UnregisterGraphicForCanvas_m820096873
XKe:__Z28Font_Get_Custom_PropMaterialP12Il2CppObject
Vkl:__ZN6il2cpp6icalls8mscorlib6System9Threading16NativeEventCalls19ResetEvent_internalE12Il2CppIntPtr
xBi:__ZL65EventTrigger_t1967201810_CustomAttributesCacheGenerator_delegatesP21CustomAttributesCache
sag:_Collection_1_Remove_m4136193368_gshared
CHf:_Decimal__ctor_m1770144563
Wqg:_EventTrigger_OnPointerUp_m2791622548
Vvj:_Shadow_set_useGraphicAlpha_m141905402
S9b:__ZN22BlockMemoryCacheWriter14LockCacheBlockEjPPhS1_
mel:__ZN6il2cpp2os6Thread10RunWrapperEPv
Sqc:__ZNSt3__218__insertion_sort_3IRPFbPKN5IMGUI9GUIWindowES4_EPPS2_EEvT0_SA_T_
TFj:_UInt16_ToString_m2038947049
gCk:_GenericEqualityComparer_1_Equals_m1109000020_gshared
uJd:__ZN5physx22NpParticleBaseTemplateINS_15PxParticleFluidENS_15NpParticleFluidEED2Ev
Qyi:__ZL61GUISkin_t1436893342_CustomAttributesCacheGenerator_m_textAreaP21CustomAttributesCache
jPd:__ZN5physx2Cm29ConstraintImmediateVisualizer19visualizeDoubleConeERKNS_11PxTransformEfb
cwc:__Z22TransferField_NonArrayI8JSONRead27Converter_SimpleNativeClassI8GUIStyleEEvRK23StaticTransferFieldInfoR31RuntimeSerializationCommandInfoRT0_
kWk:__ZN15dense_hashtableINSt3__24pairIK10KeyWrapperIPK10Il2CppTypeEjEES6_N6il2cpp8metadata14Il2CppTypeHashEN14dense_hash_mapIS6_jSB_NSA_17Il2CppTypeCompareENS0_9allocatorIS8_EEE9SelectKeyESD_SF_E12resize_deltaEjj
v$c:__ZN5physx6shdfnd5ArrayINS_13PxExtendedBoxENS0_19ReflectionAllocatorIS2_EEE8recreateEj
y6d:__ZN5physx20ProcessBPResultsTask11runInternalEv
Iid:__ZN5physx6shdfnd5ArrayIPvNS0_19ReflectionAllocatorINS_2Cm5BlockIS2_Lj16EEEEEE4copyINS0_15InlineAllocatorILj256ES7_EEEEvRKNS1_IS2_T_EE
kh:_llvm_eh_typeid_for
K7b:__Z13RegisterClassI10GameObjectEvv
hei:__ZL53HashValues_t2390200547_CustomAttributesCacheGeneratorP21CustomAttributesCache
suh:_X509BasicConstraintsExtension_get_PathLengthConstraint_m3004531343
Kfi:__ZL125GenericTypeParameterBuilder_t1370236603_CustomAttributesCacheGenerator_GenericTypeParameterBuilder_GetConstructors_m103067670P21CustomAttributesCache
MRd:__ZN5physx7NpScene19getActiveTransformsERjh
lfe:__ZN5physx6shdfnd5ArrayIPKNS_24PxsIndexedContactManagerENS0_19ReflectionAllocatorIS4_EEE8recreateEj
aYg:_MissingMemberException__ctor_m4277447068
VWh:_StrongNameKeyPair_System_Runtime_Serialization_ISerializable_GetObjectData_m1693082120
B1a:__ZNK19RenderEventsContext25PostExecuteCommandBuffersEiR17ShaderPassContextP13RenderTextureP19ProfilerInformationi
WLa:__ZN9GfxDevice14EndBufferWriteEP9GfxBufferj
oBk:_EqualityComparer_1__ctor_m3155445483_gshared
adl:__ZN6il2cpp2vm6Method8GetParamEPK10MethodInfoj
APg:_Int64_CompareTo_m1953686218
DBk:_GenericComparer_1__ctor_m221205314_gshared
I5k:__ZN6il2cpp6icalls8mscorlib6System2IO6MonoIO4ReadE12Il2CppIntPtrP11Il2CppArrayiiPi
hOl:_glBindVertexArray__wrapper
toe:__ZN5physx6shdfnd5ArrayINS_11RTreeNodeNQENS0_19ReflectionAllocatorIS2_EEE19resizeUninitializedEj
ufd:__ZNK5physx2Sc16InteractionScene18getLLIslandManagerEv
rJh:_DSA_Create_m3450041777
Sla:__ZN8Material8TransferI14SafeBinaryReadEEvRT_
t0d:__ZN5physx17PxcNpMemBlockPool34acquireExceptionalConstraintMemoryEj
Mqb:__ZN12CubemapArray17UploadToGfxDeviceEv
gHj:_UInt64_System_IConvertible_ToInt32_m930227577
dqa:__ZN6prcoreL17RemapGenericFloatI15TexFormatRGHalf17TexFormatRGBAHalfEEvPKNS_9InnerInfoE
dVf:_Enumerator_System_Collections_IEnumerator_Reset_m2200349770_gshared
Oeg:_Collection_1_get_Item_m3791221403_gshared
xli:__ZL54PaddingMode_t3032142640_CustomAttributesCacheGeneratorP21CustomAttributesCache
Eij:__Z75RuntimeInvoker_Void_t1841601450_ConstraintU26_t2775779428_Int32_t2071877448PK10MethodInfoPvPS2_
F1d:__ZN5physxL23PxcSweepConvexTrianglesERKNS_11PxsCCDShapeES2_RKNS_11PxTransformES5_S5_S5_fRNS_6PxVec3ES7_RNS_10PxcNpCacheERNS_18PxcNpThreadContextERKNS_2Cm23FastVertex2ShapeScalingERNS_2Gu9TriangleVEf
dAd:__ZNK5physx7NpShape16getPlaneGeometryERNS_15PxPlaneGeometryE
fvh:_X509Chain_CheckRevocationOnChain_m2441901351
V_e:_SymmetricAlgorithm_CreateDecryptor_m4240570785
Doe:__ZN5physx27InternalTriangleMeshBuilder14fillRemapTableEv
oN:__ZN11AudioSource4StopEb
Vmd:__ZN5physx6shdfnd8PoolBaseINS_13NpRigidStaticENS0_19ReflectionAllocatorIS2_EEE17releaseEmptySlabsEv
NMb:__ZN14SafeBinaryRead21TransferSTLStyleArrayI13dynamic_arrayI10Matrix4x4fLj4EEEEvRT_17TransferMetaFlags
Teg:_Collection_1_CheckWritable_m732350052_gshared
Tuf:_Byte_System_IConvertible_ToDecimal_m1036493607
Wni:__ZL47Timer_t791717973_CustomAttributesCacheGeneratorP21CustomAttributesCache
kga:__Z25GetSplashScreenBackgroundRK5RectTIfE
$Zj:_InternalEnumerator_1_System_Collections_IEnumerator_get_Current_m1679297177_gshared
YEi:__ZL65Image_t2042527209_CustomAttributesCacheGenerator_m_PreserveAspectP21CustomAttributesCache
nWj:_GUIContent__ctor_m3889310883
_6j:_DefaultComparer_Compare_m1247109616_gshared
iXh:_ResourceManager__ctor_m498829021
fLa:__ZN18GlslGpuProgramGLESD2Ev
xre:__ZThn116_NK5physx7profile8ZoneImplINS_28PxProfileNameProviderForwardEE10hasClientsEv
O9d:__ZN5physx2Gu20pcmContactCapsuleBoxERKNS0_13GeometryUnionES3_RKNS_11PxTransformES6_RKfRNS0_5CacheERNS0_13ContactBufferE
xFh:_SerializationCallbacks__ctor_m722356782
Xvc:__ZN10Matrix4x4f8TransferI8JSONReadEEvRT_
_5b:__ZN22GenericPropertyBinding8RegisterEPKc11ClassIDTypePFfPvEPFvS3_fE
t9:__ZN14dense_hash_mapIPKcPK4RTTIN11TypeManager23ConstCharPtrHashFunctorENS5_19ConstCharPtrEqualToE13stl_allocatorINSt3__24pairIKS1_S4_EEL18MemLabelIdentifier6ELi16EEE5beginEv
bog:_Comparison_1_Invoke_m2255009434_gshared
tOf:_StackTrace__ctor_m772333217
_oj:__Z93RuntimeInvoker_Il2CppObject_Vector2_t2243707579_Vector2_t2243707579_Il2CppObject_Il2CppObjectPK10MethodInfoPvPS2_
p7:__ZN17PersistentManager18ReadObjectThreadedEi
lCa:__ZN25TransformFeedbackSkinning31CleanupTransformFeedbackShadersEv
Ujl:__ZN6il2cpp6icalls8mscorlib6System7Runtime16CompilerServices14RuntimeHelpers15InitializeArrayEP11Il2CppArray12Il2CppIntPtr
r1j:_InternalEnumerator_1_System_Collections_IEnumerator_get_Current_m2851415307_gshared
Qxe:__ZNK20TextRenderingPrivate8FontImpl19GetCharacterAdvanceEjijfPj
Yml:__ZN6il2cpp6icalls8mscorlib4Mono8Security12Cryptography18KeyPairPersistence16_IsUserProtectedEP12Il2CppString
Elh:__ZN16VirtFuncInvoker1IP28HandshakeMessage_t3938752374hE6InvokeEjPvh
Jkg:_ReadOnlyCollection_1_Contains_m3936562733_gshared
Dqh:_DefaultUriParser__ctor_m4218024811
WNh:_DerivedType_GetField_m3960169619
qMf:_Decimal_System_IConvertible_ToInt16_m3159038792_AdjustorThunk
pAb:__ZN10VertexData8TransferI18StreamedBinaryReadILb0EEEEvRT_
Jmd:__ZN5physx2Sc5Scene9addStaticERNS0_10StaticCoreEPKPvjj
Jfc:__Z39DeleteLastPathNameComponentWithAnySlashRKNSt3__212basic_stringIcNS_11char_traitsIcEENS_9allocatorIcEEEE
X7g:_PKCS12_GetExistingParameters_m2413397265
fdg:_Collection_1_ClearItems_m4268731177_gshared
A9a:__ZN14PreloadManager16UpdatePreloadingEv
flb:__ZN12BaseRendererD2Ev
IGc:__ZN11NoiseModule8TransferI14SafeBinaryReadEEvRT_
wxl:__ZNKSt3__210moneypunctIcLb1EE16do_thousands_sepEv
dWf:_Enumerator__ctor_m425576865_AdjustorThunk
tYd:__ZN5physx2Sc5Scene9addShapesEPKPvjjRNS0_8RigidSimEPNS_12PxsRigidBodyERPNS0_8ShapeSimEPNS_9PxBounds3E
g1i:__Z148RuntimeInvoker_Int32_t2071877448_Il2CppObject_Int32_t2071877448_Int32_t2071877448_Il2CppObject_Int32_t2071877448_Int32_t2071877448_Int32_t2071877448PK10MethodInfoPvPS2_
Kmg:_ReadOnlyCollection_1_System_Collections_IList_Contains_m1545447998_gshared
E8d:__ZN5physx23PxcPCMContactConvexMeshERKNS_2Gu13GeometryUnionES3_RKNS_11PxTransformES6_RKfRNS_10PxcNpCacheERNS0_13ContactBufferE
qeb:__ZNK21UnityDefaultAllocatorI17LowLevelAllocatorE8ContainsEPKv
EQk:__ZNSt3__213__vector_baseI6pollfdNS_9allocatorIS1_EEED2Ev
zih:_ClientSessionInfo_get_Id_m3046630969
Tpi:__ZL78Convert_t2607082565_CustomAttributesCacheGenerator_Convert_ToUInt32_m759656532P21CustomAttributesCache
ti:_emscripten_get_main_loop_timing
WRg:_DirectoryInfo__ctor_m3750996792
Evg:_BaseMeshEffect_ModifyMesh_m2134816219
vlf:_Array_qsort_TisVector2_t2243707579_m3527759534_gshared
Bvb:__ZN24GenerateTypeTreeTransfer21TransferSTLStyleArrayINSt3__26vectorIN15QualitySettings14QualitySettingENS1_9allocatorIS4_EEEEEEvRT_17TransferMetaFlags
EWi:_ResourceRequest_t2560315377_marshal_pinvoke_cleanup
Q2f:_List_1_System_Collections_Generic_IEnumerableU3CTU3E_GetEnumerator_m166627113_gshared
WCb:__ZNSt3__26vectorI9InputAxisNS_9allocatorIS1_EEE6resizeEj
L0e:_SecurityElement_IsValidAttributeValue_m483287146
C7e:_Decoder_set_Fallback_m1780632169
kGc:__ZNK15PolynomialCurve18EvaluateIntegratedERKN4math7_float4E
gq:getTempRet0
rFc:__ZN26SizeModulePropertyBindings13GetFloatValueERK14ParticleSystemi
R3i:__Z114RuntimeInvoker_Void_t1841601450_Il2CppObject_Il2CppObject_Int32_t2071877448_Il2CppObject_Il2CppObject_Il2CppObjectPK10MethodInfoPvPS2_
MLh:_AssemblyTitleAttribute__ctor_m1696431446
nEg:_Image_AddQuad_m1603575622
Meh:_PrivateKeyInfo_RemoveLeadingZero_m3396807048
zgg:_ReadOnlyCollection_1_System_Collections_Generic_ICollectionU3CTU3E_get_IsReadOnly_m1251192075_gshared
J9g:__ZThn4_N6il2cpp2vm13ComObjectBaseI34__Il2CppComDelegate_t3311706788CCW18Il2CppIInspectableNS0_7details6ComNilES5_S5_S5_S5_S5_S5_E7ReleaseEv
DXf:_List_1_GrowIfNeeded_m185971996_gshared
b3k:__ZN6il2cpp6icalls8mscorlib6System9ThreadingL21lookup_cached_cultureEP12Il2CppThreadi
rDj:__ZN16VirtFuncInvoker1IP24DaylightTime_t3800227331iE6InvokeEjPvi
W3a:__ZN18DeferredRenderLoopD2Ev
cQh:_GenericTypeParameterBuilder_GetMethods_m1243855818
iaa:__ZNK16TypeTreeIterator4NameEv
Q1:__ZN15FileSystemEntry3SetEPKc
Hfe:__ZN5physx6shdfnd5ArrayIPNS_13PxcNpMemBlockENS0_19ReflectionAllocatorIS3_EEE6resizeEjRKS3_
e6j:_InternalEnumerator_1__ctor_m2808001655_gshared
fWe:_MACTripleDES__ctor_m884945242
sMd:__ZN5physx14NpRigidDynamic8requiresERNS_23PxProcessPxBaseCallbackE
YO:__ZN20SoundChannelInstance15ParameterBuffer5ApplyEPN4FMOD7ChannelE
uFk:__ZL24UnresolvedVirtualCall_52P12Il2CppObjectPK10MethodInfo
hBb:__ZN23SharedMeshRenderingDataD0Ev
Nxe:__ZN20TextRenderingPrivate19NativeTextGenerator9InsertTabEv
Vai:__ZL73Enum_t2459695545_CustomAttributesCacheGenerator_Enum_ToObject_m1688724857P21CustomAttributesCache
lUi:_Rect_set_y_m4294916608
SNk:__ZN15dense_hashtableINSt3__24pairIK10KeyWrapperI13dynamic_arrayIPK10Il2CppTypeLj4EEEPFvvEEES8_N6il2cpp8metadata19Il2CppSignatureHashEN14dense_hash_mapIS8_SB_SF_NSE_22Il2CppSignatureCompareENS0_9allocatorISC_EEE9SelectKeyESH_SJ_E16reset_thresholdsEv
dre:__ZN5physx7profile8ZoneImplINS_28PxProfileNameProviderForwardEE21setProfileZoneManagerEPNS_20PxProfileZoneManagerE
ERe:__ZN11UnityEngine15PlatformWrapper24GetRuntimePlatformStringEv
bj:_glIsEnabled
lXb:__ZN15CacheWriterBaseD2Ev
D9c:__ZN5physx3Cct17CapsuleController15setFootPositionERKNS_14PxExtendedVec3E
$6c:__ZN5physx2Gu33PCMCapsuleVsMeshContactGeneration13generateEEMTDERKNS_6shdfnd3aos5Vec3VES6_RKNS3_6FloatVES6_jS6_S6_PNS0_21MeshPersistentContactERj
qwd:__ZN18MultiQueryCallbackIN5physx10PxSweepHitEED0Ev
_Ff:_Convert_ToDateTime_m1251728572
kOc:__ZN8UVModuleD0Ev
fj:_emscripten_glDrawElementsInstanced
_9f:_Collection_1_System_Collections_IList_IndexOf_m51140022_gshared
ldh:_ARC4Managed_Dispose_m4102232694
Fdh:_HMAC_Initialize_m3052649104
D8a:__ZN18JobBatchDispatcherD2Ev
Pvb:__ZN9Transform17MainThreadCleanupEv
Kil:_GC_clear_hdr_marks
UIl:_glScissor__wrapper
cPl:_emscripten_glCreateShader__wrapper
REg:_InputField_get_caretSelectPositionInternal_m3523572533
nGe:_cff_fd_select_get
Chi:__ZL73CompilationRelaxationsAttribute_t238494011_CustomAttributesCacheGeneratorP21CustomAttributesCache
zlj:__Z74RuntimeInvoker_Void_t1841601450_Int32_t2071877448_KeyValuePair_2_t38854645PK10MethodInfoPvPS2_
dL:__Z13RegisterClassI18AnimatorControllerEvv
SVa:__ZL54CombineLocalShadowCasterCullignIndexListsAndDestroyJobP25LocalShadowCullingJobData
Yxj:_Text_get_minHeight_m1562513104
t_e:_SHA512Managed_processBlock_m3220567420
Sph:_NameObjectCollectionBase_get_Keys_m446053925
pj:_emscripten_glGetShaderiv
YZh:_Transform_1__ctor_m353209818_gshared
TRa:__ZZ23InitPlayerLoopCallbacksvEN41EarlyUpdateUpdateAllUnityWebStreamsstruct7ForwardEv
_P:__ZN4FMOD6System10getVersionEPj
Cge:__ZN5physx2Sc7BodySim10sleepCheckEffb
PZk:__ZN15dense_hashtableINSt3__24pairIK10KeyWrapperIPK10Il2CppTypeEjEES6_N6il2cpp8metadata14Il2CppTypeHashEN14dense_hash_mapIS6_jSB_NSA_17Il2CppTypeCompareENS0_9allocatorIS8_EEE9SelectKeyESD_SF_E15set_deleted_keyERKS8_
Q2b:__ZN5Unity9Component7PRODUCEE18MemLabelIdentifier18ObjectCreationMode
zzi:__ZL96RemoteSettings_t392466225_CustomAttributesCacheGenerator_RemoteSettings_CallOnUpdate_m1624968574P21CustomAttributesCache
igf:_Array_InternalArray__IndexOf_TisSByte_t454417549_m1427585061_gshared
FZi:__Z75RuntimeInvoker_Byte_t3683104436_Il2CppObject_Int32_t2071877448_Il2CppObjectPK10MethodInfoPvPS2_
ELe:__ZN2UI6Canvas23VirtualRedirectTransferER24GenerateTypeTreeTransfer
JEf:_Decimal_u64_m3991988111
azk:_YieldInstruction_t3462875981_marshal_pinvoke
Mrk:_Predicate_1_BeginInvoke_m2959352225_gshared
Hnk:_X509Certificate_Parse_m1764345628
X6b:__ZN8GUILayer17RemoveFromManagerEv
jwe:__ZN13TextRendering4Font13AwakeFromLoadE17AwakeFromLoadMode
mAj:__ZN16VirtFuncInvoker0I8IntPtr_tE6InvokeEjPv
SSe:__ZThn564_N18UnityConnectClient18OnAdsIdRequestDoneERK8UnityStrbS2_
oza:__ZN9GfxDevice21ReleaseSharedMeshDataEP14SharedMeshData
m9g:_SmallXmlParser_Peek_m2814840810
cOj:_CanvasRenderer_get_absoluteDepth_m4243141
PDb:__ZNSt3__27__sort5IRNS_6__lessINS_4pairIPKN5Unity4TypeE7Hash128EES8_EEPS8_EEjT0_SC_SC_SC_SC_T_
bDf:_Enumerator_Reset_m466659019
cHk:__ZL25UnresolvedVirtualCall_142P12Il2CppObjectssPK10MethodInfo
esl:_vprintf
Ktk:_UnityAction_1_EndInvoke_m2822290096_gshared
L9k:__ZNK15dense_hashtableINSt3__24pairIK10KeyWrapperIP12Il2CppObjectEN6il2cpp2gc9CachedCCWEEES5_NS7_5utils11PointerHashIS3_EEN14dense_hash_mapIS5_S9_SD_NS0_8equal_toIS5_EENS0_9allocatorISA_EEE9SelectKeyESG_SI_E10test_emptyEj
Rhl:_GC_unreachable_finalize_mark_proc
_jk:_BalancingGroup_set_Balance_m3452171919
zK:__ZZN8Animator15InitializeClassEvEN31FunctorImpl_389kDidDeleteMotion4CallEPviR11MessageData
Ag:___syscall192
Fsg:_PointerEventData_set_worldNormal_m2025727441
njl:_maybe_finalize
xUe:__ZN20HardwareInfoReporter18ReportHardwareInfoEv
ymc:__Z43RectTransform_CUSTOM_INTERNAL_get_anchorMaxP12Il2CppObjectP13Vector2fIcall
gza:__ZN9GfxDevice38ScheduleDynamicVBOGeometryJobsInternalEPFvP25DynamicVBOGeometryJobDatajEPFvS1_ES1_j16GfxPrimitiveTypeP21DynamicVBOChunkHandle
rWi:_Renderer_INTERNAL_get_bounds_m1299274192
c0a:__Z16SyncFenceNoClearRK8JobFence
Ela:__ZN8Material28UpdateHashesOnPropertyChangeEN9ShaderLab16FastPropertyNameE
knc:__Z53Register_UnityEngine_SortingLayer_GetLayerValueFromIDv
Qbb:__Z29StdTemplateConversionFunctionIhhEbPvR14SafeBinaryRead
P7h:_EqualityComparer_1_System_Collections_IEqualityComparer_Equals_m349194518_gshared
iAf:_CaseInsensitiveComparer_Compare_m1192858479
tLb:__Z18Transfer_BlittableI14SafeBinaryReadLb1E8Vector4fEvRK29SerializationCommandArgumentsR31RuntimeSerializationCommandInfo
iVg:_StreamAsyncResult_set_Done_m4272090534
FIg:_LayoutRebuilder_Clear_m2390054824
icg:_Collection_1_System_Collections_IList_Insert_m2968289909_gshared
fMh:_Default_SelectMethod_m622251293
hS:__ZN11AudioSource12AddToManagerEv
Zw:__ZN8Animator23VirtualRedirectTransferER19StreamedBinaryWriteILb0EE
Lek:_AsyncResult_get_NextSink_m1172723924
u7k:__ZN6il2cpp2vm5Image13ClassFromNameEPK11Il2CppImagePKcS6_
HEl:dynCall_vdddddd
u_b:__ZN24GenerateTypeTreeTransfer21TransferSTLStyleArrayINSt3__26vectorIN9ShaderLab14SerializedPassENS1_9allocatorIS4_EEEEEEvRT_17TransferMetaFlags
$id:__ZN5physx6shdfnd8internal8HashBaseIPNS_2Sc13ConstraintSimES5_NS0_4HashIS5_EENS1_11HashSetBaseIS5_S7_NS0_9AllocatorELb1EE6GetKeyES9_Lb1EE6createERKS5_Rb
m6:__ZL32MarkLevelGameManagerDependenciesR27GarbageCollectorThreadState
b9i:__Z49RuntimeInvoker_Void_t1841601450_UInt16_t986882611PK10MethodInfoPvPS2_
vBa:__ZNK13GfxDeviceGLES26HasActiveRandomWriteTargetEv
pnj:__Z37RuntimeInvoker_ILTokenInfo_t149559338PK10MethodInfoPvPS2_
Qqd:__ZNK5physx15NpActorTemplateINS_18PxArticulationLinkEE7getNameEv
MJl:_glGetActiveUniformsiv__wrapper
spj:__Z50RuntimeInvoker_Il2CppObject_ColorTween_t3438117476PK10MethodInfoPvPS2_
Z_c:__ZNK5physx3Cct10Controller16getInternalStateERNS_17PxControllerStateE
d8i:__Z59RuntimeInvoker_Il2CppObject_Double_t4078015681_Il2CppObjectPK10MethodInfoPvPS2_
Mr:__Z20AnimationEventToMonoRK14AnimationEventR18MonoAnimationEvent
oaj:__Z83RuntimeInvoker_Void_t1841601450_Il2CppObject_Il2CppObject_Il2CppObject_Il2CppObjectPK10MethodInfoPvPS2_
b7:__ZNK15dense_hashtableINSt3__24pairIKiiEEi21InstanceIDHashFunctorN14dense_hash_mapIiiS4_NS0_8equal_toIiEE13stl_allocatorIS3_L18MemLabelIdentifier1ELi16EEE9SelectKeyES7_SA_E13find_positionERS2_
Tqj:_Navigation_get_selectOnLeft_m3980387574_AdjustorThunk
yQj:_CustomYieldInstruction_get_Current_m1743233962
I6k:__ZN30dense_hashtable_const_iteratorI10KeyWrapperIP18Il2CppGenericClassES3_N6il2cpp8metadata22Il2CppGenericClassHashEN14dense_hash_setIS3_S6_NS5_25Il2CppGenericClassCompareENSt3__29allocatorIS3_EEE8IdentityES8_SB_E30advance_past_empty_and_deletedEv
tXd:__ZN5physx10PxsContext15setScratchBlockEPvj
IAi:__ZL74UnityEventBase_t828812576_CustomAttributesCacheGenerator_m_PersistentCallsP21CustomAttributesCache
O3h:_DefaultComparer__ctor_m2265472997_gshared
_Tj:_CustomAnimationPlayable_op_Implicit_m3677069457
RBb:__ZN4PPtrI6SpriteE8TransferI14SafeBinaryReadEEvRT_
Ydd:__ZN5physx2Cm27getDynamicGlobalPoseAlignedERKNS_11PxTransformES3_S3_RS1_
B3i:__Z45RuntimeInvoker_Il2CppObject_IntPtr_t_IntPtr_tPK10MethodInfoPvPS2_
yZb:__ZNSt3__26vectorIN9ShaderLab14SerializedPassENS_9allocatorIS2_EEE8__appendEj
kme:__ZN5physx6shdfnd5ArrayIPvNS0_19ReflectionAllocatorIN17PxcPoolMallocData10PoolData32EEEE15growAndPushBackERKS2_
$ih:_Context_get_SupportedCiphers_m2172827298
PSc:__ZN12b2WheelJoint24SolveVelocityConstraintsERK12b2SolverData
p1i:__Z170RuntimeInvoker_Int32_t2071877448_Il2CppObject_Int32_t2071877448_Int32_t2071877448_Il2CppObject_Int16_t4041245914_Int32_t2071877448_SByte_t454417549_ContextU26_t3131521781PK10MethodInfoPvPS2_
hsb:__ZN9Texture2D23VirtualRedirectTransferER18StreamedBinaryReadILb0EE
ZUc:__ZN10Collider2D8TransferI24GenerateTypeTreeTransferEEvRT_
J2e:__ZN16VirtFuncInvoker0IP23CompareInfo_t2310920157E6InvokeEjPv
cPf:_Double_System_IConvertible_ToUInt16_m286326038_AdjustorThunk
pDh:_TypeInfo__ctor_m1475908211
Okb:__ZNSt3__26__treeINS_12__value_typeIN4core12basic_stringIcNS2_20StringStorageDefaultIcEEEEjEENS_19__map_value_compareIS6_S7_NS_4lessIS6_EELb1EEE13stl_allocatorIS7_L18MemLabelIdentifier6ELi16EEE7destroyEPNS_11__tree_nodeIS7_PvEE
gvh:_X509Chain_WrapUp_m1072032285
bpk:_X509CertificateEnumerator_System_Collections_IEnumerator_MoveNext_m1448966539
pDe:_get_sfnt_table
Opf:_Object_FindObjectOfType_TisIl2CppObject_m2967490724_gshared
Q9f:_Collection_1_IsSynchronized_m3261594010_gshared
XTa:_unity_z_tr_stored_block
NYi:__Z46RuntimeInvoker_Single_t2076509932_Il2CppObjectPK10MethodInfoPvPS2_
p3e:_SecuritySafeCriticalAttribute__ctor_m2508714287
gOk:__ZN13dynamic_arrayIPK10Il2CppTypeLj4EE10reallocateEPS2_j
Hef:_Array_compare_TisIl2CppObject_m1481822507_gshared
ute:__ZN5physx2Gu20registerHeightFieldsEv
Vea:__ZN15dense_hashtableINSt3__24pairIKNS0_12basic_stringIcNS0_11char_traitsIcEE13stl_allocatorIcL18MemLabelIdentifier54ELi16EEEEP11AssetBundleEES8_11djb2_hash_tIS8_EN14dense_hash_mapIS8_SB_SE_NS0_8equal_toIS8_EENS0_9allocatorISC_EEE9SelectKeyESH_SJ_E13set_empty_keyERKSC_
$Ih:_DES_get_Key_m2584608215
BWa:__ZL22ScheduleSceneNodesJobsP25ScheduleSceneNodesJobDataj
s6k:__ZN15dense_hashtableI10KeyWrapperIP18Il2CppGenericClassES3_N6il2cpp8metadata22Il2CppGenericClassHashEN14dense_hash_setIS3_S6_NS5_25Il2CppGenericClassCompareENSt3__29allocatorIS3_EEE8IdentityES8_SB_ED2Ev
Y3d:__ZN5physx22concludeContactCoulombERKNS_23PxcSolverConstraintDescERNS_16PxcSolverContextE
fl:_emscripten_set_canvas_size
Tbi:__ZL65Il2CppArray_CustomAttributesCacheGenerator_Array_Sort_m3645766612P21CustomAttributesCache
qHd:__ZNK5physx15NpParticleFluid12getStiffnessEv
ABf:_Hashtable__ctor_m741952536
y8j:_Comparer_1__cctor_m2253684996_gshared
gZb:__ZNSt3__26vectorIN9ShaderLab20SerializedSubProgramENS_9allocatorIS2_EEE8__appendEj
j$:__ZN20DynamicHeapAllocatorI17LowLevelAllocatorE8AllocateEji
f$a:__ZN20DynamicPropertySheet15SetVectorQueuedERKN9ShaderLab16FastPropertyNameERK8Vector4fN19ShaderPropertySheet8SetFlagsE
$5e:_String_Format_m1263743648
jLj:_DefaultExecutionOrder_get_order_m1561221759
vkg:_ReadOnlyCollection_1_System_Collections_IEnumerable_GetEnumerator_m4248982967_gshared
jD:__ZN7mecanim9animation22EvaluateAvatarRetargetEPKNS0_14AvatarConstantEPKNS0_11AvatarInputEPNS0_12AvatarOutputEPNS0_12AvatarMemoryEPNS0_15AvatarWorkspaceEb
PIg:_LayoutRebuilder_GetHashCode_m2745108660
sLk:__ZN15dense_hashtableINSt3__24pairIK10KeyWrapperIPK19Il2CppGenericMethodEPK26Il2CppGenericMethodIndicesEES6_N6il2cpp8metadata23Il2CppGenericMethodHashEN14dense_hash_mapIS6_SA_SE_NSD_26Il2CppGenericMethodCompareENS0_9allocatorISB_EEE9SelectKeyESG_SI_E14squash_deletedEv
gyc:__ZL26Transfer_SimpleNativeClassI9JSONWrite10RectOffsetLb0EEvRK29SerializationCommandArgumentsR31RuntimeSerializationCommandInfo
jil:_GC_push_conditional
JEa:__ZN17GenericDynamicVBO10AllocateVBEjR21DynamicVBOChunkHandle
bZf:_List_1_get_Item_m1547593893_gshared
alj:__Z70RuntimeInvoker_Void_t1841601450_CustomAttributeNamedArgument_t94157543PK10MethodInfoPvPS2_
HRg:_Path_GetPathRoot_m1269357080
c8d:__ZL27PxcTestFacesSepAxesBackfaceRKN5physx2Gu13PolygonalDataES3_RKNS_2Cm8Matrix34ES7_RKNS4_23FastVertex2ShapeScalingESA_S7_RKNS_6PxVec3ERfRSB_RjPjSG_fSD_
xqg:_EventSystem_SetSelectedGameObject_m2211816110
i_h:_Transform_1__ctor_m4161450529_gshared
El:_glMapBufferRange
Xrb:__ZN9Texture2D8TransferI18StreamedBinaryReadILb0EEEEvRT_
Jjc:__Z31Input_CUSTOM_GetMouseButtonDowni
Ybi:__ZL65Il2CppArray_CustomAttributesCacheGenerator_Array_Sort_m1730553742P21CustomAttributesCache
DCd:__ZNK5physx7NpCloth23getExternalAccelerationEv
eZa:__ZNK9Transform16GetLocalPositionEv
kLb:__Z19scripting_array_newP11Il2CppClassjj
pwa:__ZN13LoadOperation19IntegrateTimeSlicedEi
gvb:__ZNK15QualitySettings26GetTypeInfoVirtualInternalEv
Wyh:_InterpreterFactory__ctor_m3331468903
w5d:__ZN5physx16PxsBroadPhaseMBP9updatePPUEPNS_10PxBaseTaskE
E8g:_X501__cctor_m3795360380
IBa:__ZN13GfxDeviceGLES22DispatchComputeProgramE12ObjectHandleI18ComputeProgram_TagPvE15ComputeBufferIDj
Inl:__ZN6il2cpp8metadata25Il2CppGenericClassCompare7CompareERK10KeyWrapperIP18Il2CppGenericClassES7_
BNi:_GUIStyle_set_contentOffset_m2138084868
es:__ZNK13AnimationClip15GetAverageSpeedEv
uHf:_Convert_ToInt32_m2297793940
cva:__Z17TransformAABBSlowRK4AABBRK10Matrix4x4fRS_
Vsb:__ZN15SerializeTraitsI13dynamic_arrayI7Hash128Lj8EEE19ResizeSTLStyleArrayERS2_i18MemLabelIdentifier
tmj:__Z96RuntimeInvoker_Void_t1841601450_Vector2U5BU5DU26_t1595685398_Int32_t2071877448_Int32_t2071877448PK10MethodInfoPvPS2_
Uuh:_X509Chain_Build_m1140429528
$Xb:__ZN9ShaderLab21SerializedShaderState8TransferI14SafeBinaryReadEEvRT_
JX:__ZTv0_n12_NSt3__219basic_ostringstreamIcNS_11char_traitsIcEENS_9allocatorIcEEED1Ev
qsl:_ftruncate
rZe:_RSAPKCS1SignatureFormatter_SetKey_m2365816458
Tze:__ZN13RuntimeStaticINSt3__26vectorIPN20TextRenderingPrivate17TextMeshGeneratorENS0_9allocatorIS4_EEEEE13StaticDestroyEPv
yNg:_Int16_GetHashCode_m304503362_AdjustorThunk
kHe:_cf2_stack_pushInt
UF:__ZN7mecanim9animation20DestroyLayerConstantEPNS0_13LayerConstantERNS_6memory9AllocatorE
zJd:__ZN5physx6shdfnd8PoolBaseINS_16NpParticleSystemENS0_19ReflectionAllocatorIS2_EEE12allocateSlabEv
Tae:__ZN5physx9PxTaskMgr12dispatchTaskEjb
qqj:_MaskableGraphic_SetClipRect_m3871029457
Org:_ExecuteEvents_get_cancelHandler_m1964324668
uLl:b89
tLl:b88
Iyi:__ZL70GUISettings_t622856320_CustomAttributesCacheGenerator_m_SelectionColorP21CustomAttributesCache
jLl:b81
iLl:b80
lLl:b83
S9:__ZN18ResourceImageGroup7CleanupEv
qLl:b85
Mgd:__ZN5physx2Gu36closestPtPointTetrahedronTesselationEPNS_6shdfnd3aos5Vec3VES4_S4_RjRS3_S6_
sLl:b87
rLl:b86
zv:__ZN11Quaternionf8TransferI24GenerateTypeTreeTransferEEvRT_
r8d:__ZN5physx25PxcPCMContactSphereConvexERKNS_2Gu13GeometryUnionES3_RKNS_11PxTransformES6_RKfRNS_10PxcNpCacheERNS0_13ContactBufferE
jyj:_ToggleGroup_RegisterToggle_m3118973598
Keh:_PrivateKeyInfo_Decode_m1053025782
Mwh:_X509ChainElementCollection_System_Collections_ICollection_CopyTo_m1467895312
Uhe:__ZN5physx2Cm18DelegateFanoutTaskINS_2Sc5SceneEXadL_ZNS3_20particlePostShapeGenEPNS_10PxBaseTaskEEEED0Ev
F7g:_PKCS12_Decrypt_m2457743414
aqb:__ZN8Playable19SetOutputConnectionEPS_i
rm:_glDeleteShader
UQf:_Exception_GetType_m3898489832
_pa:__ZN6prcoreL17RemapGenericFloatI15TexFormatRGHalf16TexFormatRGFloatEEvPKNS_9InnerInfoE
vxd:__ZN5physx6shdfnd8PoolBaseINS_10NpMaterialENS0_19ReflectionAllocatorIS2_EEE15disposeElementsEv
R6f:_Stack_1_Peek_m1548778538_gshared
Vfg:_Collection_1_System_Collections_IList_get_Item_m1995028750_gshared
ORa:__ZZ23InitPlayerLoopCallbacksvEN38EarlyUpdateExecuteMainThreadJobsstruct7ForwardEv
Iyk:_Vector4_Dot_m2285943745
Sqa:__ZN19RuntimeSceneManager9LoadSceneERK8UnityStrS2_S2_RK9UnityGUIDiNS_11LoadingModeE
lec:__Z27scripting_add_internal_callPKcPKv
Ijf:_Array_InternalArray__Insert_TisUriScheme_t1876590943_m2728325409_gshared
Vyi:__ZL72GUISkin_t1436893342_CustomAttributesCacheGenerator_m_verticalSliderThumbP21CustomAttributesCache
t9k:__GLOBAL__sub_I_GarbageCollector_cpp
Z4:__Z17GetPlayerSettingsv
q0c:__ZL21ContactReductionAllInRN5physx2Gu13ContactBufferEjjRKNS_7PxMat33EPKNS_6PxVec3EPKh
$hj:__Z65RuntimeInvoker_KeyValuePair_2_t38854645_Il2CppObject_Il2CppObjectPK10MethodInfoPvPS2_
LD:__ZN34BlobWriteTransferSTLStyleArrayImplI22OffsetPtrArrayTransferIiEEclERS1_17TransferMetaFlagsR9BlobWrite
opk:_X509Store_CheckStore_m1027496478
Ujj:__Z87RuntimeInvoker_Int32_t2071877448_UIVertex_t1204258818_UIVertex_t1204258818_Il2CppObjectPK10MethodInfoPvPS2_
Ygi:__ZL82MethodBase_t904190842_CustomAttributesCacheGenerator_MethodBase_Invoke_m1075809207P21CustomAttributesCache
y_j:_InternalEnumerator_1_MoveNext_m1994485778_AdjustorThunk
qdj:__Z133RuntimeInvoker_Boolean_t3825574718_Vector3U26_t425862308_Vector3U26_t425862308_Single_t2076509932_Int32_t2071877448_Int32_t2071877448PK10MethodInfoPvPS2_
dEi:__ZL62DropdownItem_t4139978805_CustomAttributesCacheGenerator_m_TextP21CustomAttributesCache
Quc:__Z33EmitSerializationCommandsForFieldI8JSONReadEvR18TransferField_InfoR32SerializationCommandQueueBuilderRP20AllowNameConversions
Xb:invoke_vffff
$Uf:_Enumerator_MoveNext_m1706162224_gshared
FBl:__ZNSt3__212basic_stringIcNS_11char_traitsIcEENS_9allocatorIcEEEC2ERKS5_jjRKS4_
IOa:__ZN15dense_hashtableINSt3__24pairIKNS0_12basic_stringIcNS0_11char_traitsIcEE13stl_allocatorIcL18MemLabelIdentifier54ELi16EEEEP20ArchiveStorageReaderEES8_11djb2_hash_tIS8_EN14dense_hash_mapIS8_SB_SE_NS0_8equal_toIS8_EES5_ISC_LS6_54ELi16EEE9SelectKeyESH_SI_E5clearEv
N5e:_String_Contains_m4017059963
Ymf:_Array_swap_TisCustomAttributeNamedArgument_t94157543_TisCustomAttributeNamedArgument_t94157543_m3600072996_gshared
J6j:_DefaultComparer_Compare_m1606207039_gshared
UNe:__ZN2UI14CanvasRenderer12SyncMaterialENS0_8SyncFlagE
BAl:__ZNSt3__26locale5__imp7installINS_7codecvtIDsc11__mbstate_tEEEEvPT_
_fh:_CipherSuite_get_ExchangeAlgorithmType_m3219223789
Kml:__ZN6il2cpp2vm9Parameter30GetDefaultParameterValueObjectEPK10MethodInfoPK13ParameterInfoPb
vkf:_Array_InternalArray__set_Item_TisLabelData_t3712112744_m2253365137_gshared
fUh:_MonoCMethod_get_Attributes_m3914742834
k8:__Z26scripting_object_get_classP12Il2CppObject
WDk:_GameState_addScorePlayer_m316510341
lRi:_MonoBehaviour_Invoke_m666563676
yNh:_ConstructorBuilder_get_DeclaringType_m4264602248
Zt:__ZNSt3__26vectorIhNS_9allocatorIhEEE8__appendEj
WMf:_Decimal_decimalDiv_m900036616
aWg:_StringReader__ctor_m643998729
dQa:__ZN14dense_hash_mapINSt3__212basic_stringIcNS0_11char_traitsIcEE13stl_allocatorIcL18MemLabelIdentifier54ELi16EEEEP20ArchiveStorageReader11djb2_hash_tIS7_ENS0_8equal_toIS7_EES4_INS0_4pairIKS7_S9_EELS5_54ELi16EEE13set_empty_keyERSF_
Brd:__ZN5physx19NpRigidBodyTemplateINS_18PxArticulationLinkEE16setRigidBodyFlagENS_15PxRigidBodyFlag4EnumEb
u7i:__Z75RuntimeInvoker_DateTime_t693205669_DateTime_t693205669_TimeSpan_t3430258949PK10MethodInfoPvPS2_
R_a:__ZN14qsort_internal31_FindAndMovePivotToLastPositionIP17RODataReplacementi19ROSorterReplacementEEvT_S4_T0_T1_
lw:__ZN14AnimationEvent8TransferI19StreamedBinaryWriteILb0EEEEvRT_
lv:__ZN7mecanim9animation9DenseClip8TransferI24GenerateTypeTreeTransferEEvRT_
gDe:_UNITY_tt_face_done_kern
Ssl:__ZNSt3__215basic_streambufIcNS_11char_traitsIcEEE4syncEv
Zck:_Context_get_DefaultContext_m2211922324
Oak:_MarshalDirectiveException__ctor_m1606841389
otc:__Z59GUIStyle_CUSTOM_Internal_GetNumCharactersThatFitWithinWidth13Il2Cpp_IntPtrP12Il2CppStringf
XKa:__Z4TrimRKNSt3__212basic_stringIcNS_11char_traitsIcEENS_9allocatorIcEEEES7_
$eh:_RSAManaged_GetPaddedValue_m2972141669
Buj:_ScrollRect_OnDrag_m1424848249
wkh:_TlsServerCertificate_ProcessAsSsl3_m277089231
aef:_Array_InternalArray__IEnumerable_GetEnumerator_TisUInt16_t986882611_m3665860884_gshared
Afa:__Z19scripting_gc_enablev
Cjk:_AnchorInfo__ctor_m617409099
mse:__ZN5physx7profile11EventBufferINS_24PxDefaultContextProviderENS_6shdfnd6MutexTINS0_26WrapperReflectionAllocatorIhEEEENS0_14ScopedLockImplIS7_EENS_24PxProfileNullEventFilterEE9stopEventEty
gbb:__Z29StdTemplateConversionFunctionIihEbPvR14SafeBinaryRead
dQh:_GenericTypeParameterBuilder_GetMethodImpl_m528545634
OPe:__Z55Register_UnityEngine_CanvasRenderer_DisableRectClippingv
yzh:_Interval_CompareTo_m2909556284_AdjustorThunk
Pyb:__ZN14SafeBinaryRead21TransferSTLStyleArrayI13dynamic_arrayI11ColorRGBA32Lj4EEEEvRT_17TransferMetaFlags
Cxl:__ZNKSt3__210moneypunctIcLb1EE13do_pos_formatEv
lmj:__Z97RuntimeInvoker_Void_t1841601450_PlayableU5BU5DU26_t2309105347_Int32_t2071877448_Int32_t2071877448PK10MethodInfoPvPS2_
arj:_Navigation_t1571958496_marshal_pinvoke
syh:_Interpreter_GetLastDefined_m2450713313
Exl:__ZNSt3__210moneypunctIwLb0EED2Ev
Sik:_Parser_ParseAssertionType_m3316669790
tvj:_Selectable_get_isPointerDown_m774209881
Zai:__ZL73Enum_t2459695545_CustomAttributesCacheGenerator_Enum_ToObject_m2460371738P21CustomAttributesCache
iFl:dynCall_viiiifii
jTi:_Plane_get_distance_m1834776091_AdjustorThunk
m7:__Z20GetPersistentManagerv
xKe:_UNITY_TT_Set_Var_Design
Yck:_Context_Finalize_m1386439645
dfa:__ZN21SystemInfoStringCache16StaticInitializeEPv
wgh:_TlsStream__ctor_m4117943603
nPd:__ZN5physx2Cm20visualizeLinearLimitERNS0_12RenderOutputEfRKNS_11PxTransformES5_fb
rfd:__ZN5physx2Sc7BodySim18internalWakeUpBaseEf
vdl:__ZN6il2cpp2gc16GarbageCollector23MakeDescriptorForObjectEPji
A9:__ZNSt3__212basic_stringIcNS_11char_traitsIcEE13stl_allocatorIcL18MemLabelIdentifier1ELi16EEE21__grow_by_and_replaceEjjjjjjPKc
JWh:_ParameterModifier_t1820634920_marshal_pinvoke
VIb:__ZNK13MonoBehaviour7GetNameEv
dkj:__Z104RuntimeInvoker_Int32_t2071877448_Il2CppObject_UICharInfo_t3056636800_Int32_t2071877448_Int32_t2071877448PK10MethodInfoPvPS2_
R4k:__ZN13dynamic_arrayIP12Il2CppObjectLj4EE9push_backEv
Mra:__ZN19ScriptingInvocation28AdjustArgumentsToMatchMethodEv
Yog:_AbstractEventData_Use_m1797212290
ioi:__ZL56AppDomainSetup_t611332832_CustomAttributesCacheGeneratorP21CustomAttributesCache
fdj:__Z76RuntimeInvoker_Boolean_t3825574718_Ray_t2469606224_RaycastHitU26_t1969197280PK10MethodInfoPvPS2_
O0k:__ZN6il2cpp2vm4Type19GetGenericParameterEPK10Il2CppType
cKc:__ZN11ShapeModule5ResetEv
oPe:__Z51Register_UnityEngine_CanvasGroup_get_blocksRaycastsv
m5j:_InternalEnumerator_1_get_Current_m2826780083_gshared
ONd:__ZN5physx20NpRigidActorTemplateINS_13PxRigidStaticEE15exportExtraDataERNS_22PxSerializationContextE
LOl:b119
Icl:__ZNK15dense_hashtableINSt3__24pairIK10KeyWrapperIP14Il2CppIUnknownEjEES5_N6il2cpp5utils11PointerHashIS3_EEN14dense_hash_mapIS5_jSB_NS0_8equal_toIS5_EENS0_9allocatorIS7_EEE9SelectKeyESE_SG_E12test_deletedEj
Nea:__ZN14dense_hash_mapINSt3__212basic_stringIcNS0_11char_traitsIcEE13stl_allocatorIcL18MemLabelIdentifier54ELi16EEEEP11AssetBundle11djb2_hash_tIS7_ENS0_8equal_toIS7_EENS0_9allocatorINS0_4pairIKS7_S9_EEEEE13set_empty_keyERSG_
RIi:__ZL105LayoutUtility_t4076838048_CustomAttributesCacheGenerator_LayoutUtility_U3CGetMinHeightU3Em__4_m1769295917P21CustomAttributesCache
Bje:__ZN5physx13BigConvexData5VLoadERNS_13PxInputStreamE
bUi:_RaycastHit2D_get_collider_m2568504212
p6j:_InternalEnumerator_1__ctor_m2782443954_AdjustorThunk
Td:_glBeginQuery
RKh:_Assembly_GetCustomAttributes_m95309865
EJi:_GUILayoutUtility_INTERNAL_CALL_Internal_GetWindowRect_m3236664463
cI:__ZN18AnimatorController19TransferRuntimeDataI24GenerateTypeTreeTransferEEvRT_
xgl:__ZN6il2cpp2vmL9ends_withEPKcS2_
DZd:__ZN5physx11NodeManager6resizeEj
qZc:__ZN10Effector2D25CheckEffectorColliderMaskEP10Collider2DS1_
jdh:_RC4__ctor_m1585026462
_0:__ZN20LocalFileSystemPosix10ToAbsoluteEPKc
FCg:_GridLayoutGroup__ctor_m1099847132
$1j:_InternalEnumerator_1_get_Current_m2286118957_AdjustorThunk
TXd:__ZN5physx2Sc5Scene24setContactModifyCallbackEPNS_23PxContactModifyCallbackE
yEf:_Convert_ToBoolean_m48997236
$Fc:__ZN15PolynomialCurve10BuildCurveERK17AnimationCurveTplIfEf
hq:__ZN6Object17MainThreadCleanupEv
nyf:_ArrayListWrapper_set_Capacity_m2792463350
Zql:_getcwd
G9e:_StringBuilder_Append_m1128243247
uTc:__ZN16b2CapsuleContact6CreateEP9b2FixtureiS1_iP16b2BlockAllocator
Djk:_AnchorInfo_get_Offset_m142119297
$db:__ZN25ThreadsafeLinearAllocatorD2Ev
BTg:_FileStream_Seek_m950719389
c$d:__ZN5physx2Sq10AABBPruner11preallocateEj
vLi:_GUISkin_get_settings_m626844463
Jca:__ZN21BillboardBatchManager16StaticInitializeEPv
zLi:_Object_get_name_m2079638459
MNl:b117
D3:__ZN12_GLOBAL__N_138ArchiveRedirectFileSystemStaticDestroyEPv
Ksk:_InvokableCall_1_add_Delegate_m3048312905_gshared
LQf:_EventHandler_Invoke_m1137722757
BNl:_emscripten_glLoadIdentity__wrapper
BQd:__ZN5physx2Sc19ShapeInstancePairLLC2ERNS0_8ShapeSimES3_RNS0_9ActorPairENS_7PxFlagsINS_10PxPairFlag4EnumEtEE
CZg:_MonoType_IsSubclassOf_m2211166238
T3k:__ZN6il2cpp6icalls8mscorlib6System5Array9GetLengthEP11Il2CppArrayi
bXh:_TypeFilter_EndInvoke_m997625354
Cv:__ZN13AnimationClip15QuaternionCurve8TransferI18StreamedBinaryReadILb0EEEEvRT_
Gag:_Collection_1_System_Collections_ICollection_CopyTo_m2859266050_gshared
l6:__ZN19RuntimeSceneManagerC2Ev
iy:__ZN7mecanim14ValueArrayCopyEPKNS_10ValueArrayEPS0_PKNS_14ValueArrayMaskE
x7j:_Comparer_1__ctor_m2876014041_gshared
Uil:_GC_continue_reclaim
lyf:_ArrayListWrapper_get_Count_m2207944952
Nwh:_X509ChainElementCollection_System_Collections_IEnumerable_GetEnumerator_m2559704689
cti:__ZL86BigInteger_t925946153_CustomAttributesCacheGenerator_BigInteger_op_Implicit_m622924526P21CustomAttributesCache
$Di:__ZL59Dropdown_t1985816271_CustomAttributesCacheGenerator_m_ValueP21CustomAttributesCache
_yh:_InterpreterFactory_set_Gap_m2761943153
auh:_PublicKey_get_Key_m126090744
Wla:__ZNSt3__26vectorINS_4pairIiiEENS_9allocatorIS2_EEE6insertENS_11__wrap_iterIPKS2_EERS7_
Hye:__ZNSt3__23mapIN20TextRenderingPrivate7FontRefEP11FT_FaceRec_NS_4lessIS2_EENS_9allocatorINS_4pairIKS2_S4_EEEEEixERS9_
qOa:__ZN17ArchiveFileSystem10AddStorageEP20ArchiveStorageReader
Hrd:__ZN5physx19NpRigidBodyTemplateINS_18PxArticulationLinkEE27setMaxDepenetrationVelocityEf
mFd:__ZN5physx2Sc9ClothCore16setStretchConfigENS_22PxClothFabricPhaseType4EnumERKNS_20PxClothStretchConfigE
QOj:_Color_Equals_m661618137
RJc:__ZN9SubModule8TransferI19StreamedBinaryWriteILb0EEEEvRT_
Ucg:__ZN21InterfaceFuncInvoker1Ib22UILineInfo_t3621277874E6InvokeEjP11Il2CppClassPvS0_
FTd:__ZN5physx15PxsParticleData13onOriginShiftERKNS_6PxVec3E
vRc:__ZNK12b2MotorJoint16GetReactionForceEf
fJa:__ZN12_GLOBAL__N_112UploadFormatE13TextureFormat
P5h:_EqualityComparer_1_System_Collections_IEqualityComparer_GetHashCode_m1203798961_gshared
LJk:__ZN6il2cpp2vm5Class15GetEnumBaseTypeEP11Il2CppClass
TRg:_DirectoryNotFoundException__ctor_m3713860966
rMc:__ZN22ParticleSystemRenderer15UpdateLocalAABBEv
f8j:_Comparer_1_get_Default_m4282764954_gshared
JSi:_Physics_Raycast_m2009151399
G2k:__ZN15dense_hashtableINSt3__24pairIK10KeyWrapperINS1_IP11Il2CppClassjEEES4_EES6_N6il2cpp8metadata14ArrayClassHashEN14dense_hash_mapIS6_S4_SB_NSA_17ArrayClassCompareENS0_9allocatorIS8_EEE9SelectKeyESD_SF_E12resize_deltaEjj
nrb:__ZNK9Texture2D16GetNpotTexelSizeEv
U_j:_InternalEnumerator_1__ctor_m245588437_gshared
NH:__ZN18StreamedBinaryReadILb1EE21TransferSTLStyleArrayI22OffsetPtrArrayTransferI9OffsetPtrIN7mecanim12statemachine21SelectorStateConstantEEEEEvRT_17TransferMetaFlags
Dxh:_Capture_get_Text_m3472127896
Qpj:_Mask_get_rectTransform_m3304369086
Wvk:_TooltipAttribute__ctor_m2640804852
qMk:__ZNK10KeyWrapperINSt3__212basic_stringIcNS0_11char_traitsIcEENS0_9allocatorIcEEEEEeqERKS7_
Cue:__ZN13dynamic_arrayItLj2EE6insertEPtPKtS3_
B9i:__Z35RuntimeInvoker_Category_t1984577050PK10MethodInfoPvPS2_
M3h:_DefaultComparer_GetHashCode_m4073394827_gshared
OEa:__ZN9GfxDevice22GetDefaultVertexBufferE26GfxDefaultVertexBufferTypej
ojg:_ReadOnlyCollection_1_System_Collections_ICollection_CopyTo_m1129689124_gshared
prl:___fseeko_unlocked
Ehj:__Z162RuntimeInvoker_Void_t1841601450_Il2CppObject_Int32_t2071877448_SByte_t454417549_SByte_t454417549_SingleU26_t4173844468_SingleU26_t4173844468_SingleU26_t4173844468PK10MethodInfoPvPS2_
B6k:__ZN15dense_hashtableI10KeyWrapperIP18Il2CppGenericClassES3_N6il2cpp8metadata22Il2CppGenericClassHashEN14dense_hash_setIS3_S6_NS5_25Il2CppGenericClassCompareENSt3__29allocatorIS3_EEE8IdentityES8_SB_E5clearEv
AEb:__ZN18StreamedBinaryReadILb1EE21TransferSTLStyleArrayI13dynamic_arrayI16SplashScreenLogoLj4EEEEvRT_17TransferMetaFlags
Deg:_Collection_1_Contains_m1999290510_gshared
Mbd:__ZN5physx3Cct17CapsuleControllerC2ERKNS_16PxControllerDescERNS_9PxPhysicsEPNS_7PxSceneE
qzb:__ZN14SafeBinaryRead21TransferSTLStyleArrayINSt3__26vectorI17BlendShapeChannelNS1_9allocatorIS3_EEEEEEvRT_17TransferMetaFlags
ega:__Z17BeginSplashScreenv
ZPj:_ControllerColliderHit_get_moveDirection_m3053186297
nyl:__ZNSt3__212basic_stringIwNS_11char_traitsIwEENS_9allocatorIwEEE6appendIPwEENS_9enable_ifIXaasr21__is_forward_iteratorIT_EE5valuesr38__libcpp_string_gets_noexcept_iteratorIS9_EE5valueERS5_E4typeES9_S9_
j$b:__ZN9ShaderLab16SerializedShader8TransferI19StreamedBinaryWriteILb0EEEEvRT_
Mmj:__Z55RuntimeInvoker_LabelFixup_t4090909514_Int32_t2071877448PK10MethodInfoPvPS2_
hF:__ZN7mecanim9animation18CreateAvatarMemoryEPKNS0_14AvatarConstantERNS_6memory9AllocatorE
WDf:_Stack_Pop_m3788808882
h9j:_Enumerator_VerifyCurrent_m4246196125_AdjustorThunk
t2h:_Dictionary_2_pick_value_m3484897877_gshared
XKf:_DateTime_op_Equality_m1867073872
bE:__ZN7mecanim8skeleton16SkeletonPoseCopyIN4math4trsXENS2_7affineXEEEvPKNS0_13SkeletonPoseTIT_EEPNS5_IT0_EE
ZQb:__Z18Transfer_BlittableI19StreamedBinaryWriteILb0EELb0EaEvRK29SerializationCommandArgumentsR31RuntimeSerializationCommandInfo
vEa:__ZN18GfxFramebufferGLES18GetFramebufferNameERK20GfxRenderTargetSetup
Dil:_GC_print_block_list
h0k:__ZN6il2cpp2vm14TypeNameParser12ParseVersionERKNSt3__212basic_stringIcNS2_11char_traitsIcEENS2_9allocatorIcEEEERtSB_SB_SB_
bUj:_CustomAnimationPlayable_OnSetPlayState_m1903832042
zrg:__ZN23InterfaceActionInvoker1IP25AxisEventData_t1524870173E6InvokeEjP11Il2CppClassPvS1_
E5k:__ZN6il2cpp6icalls8mscorlib6System2IO6MonoIO11GetFileTypeE12Il2CppIntPtrPi
Qrc:__Z30Event_Get_Custom_PropCharacterP12Il2CppObject
fHk:__ZL25UnresolvedVirtualCall_145P12Il2CppObject22ColorBlock_t2652774230S1_PK10MethodInfo
X7c:__ZN5physx6shdfnd5ArrayINS_12PxDebugPointENS0_19ReflectionAllocatorIS2_EEE15growAndPushBackERKS2_
OIl:_glGetFramebufferAttachmentParameteriv__wrapper
G0e:_SecurityElement_GetAttribute_m4288291176
v5j:_InternalEnumerator_1_System_Collections_IEnumerator_get_Current_m2389982234_gshared
zmk:_UriParser_get_DefaultPort_m1377931533
cAk:_IndexedSet_1_get_Count_m2839545138_gshared
Lua:__ZN14SafeBinaryRead20TransferTypelessDataEjPvi
Fhi:__ZL66StringFreezingAttribute_t2691375565_CustomAttributesCacheGeneratorP21CustomAttributesCache
HAc:__ZN9rapidjson13GenericReaderINS_4UTF8IcEES2_13JSONAllocatorE10ParseFalseILj1ENS_25GenericInsituStringStreamIS2_EENS_15GenericDocumentIS2_S3_S3_EEEEvRT0_RT1_
i2f:_List_1_AddCollection_m3284813601_gshared
Ufb:__ZN33AssetBundleLoadFromAsyncOperation7PerformEv
yHi:__ZL102ToggleGroup_t1030026315_CustomAttributesCacheGenerator_ToggleGroup_U3CActiveTogglesU3Em__1_m4052653494P21CustomAttributesCache
Cbj:__Z69RuntimeInvoker_Single_t2076509932_Int32_t2071877448_Int32_t2071877448PK10MethodInfoPvPS2_
X4:__Z19GetActiveColorSpacev
gJc:__ZN17SizeBySpeedModule8TransferI18StreamedBinaryReadILb0EEEEvRT_
b6h:_EqualityComparer_1__cctor_m1672307556_gshared
pBh:_SoapTypeAttribute_get_IsInteropXmlElement_m2941294827
zCe:_UNITY_tt_face_load_kern
NVf:_Enumerator_System_Collections_IEnumerator_get_Current_m3542273247_gshared
wwf:_Char_System_IConvertible_ToUInt32_m1557991717_AdjustorThunk
s6e:_Encoding_get_UTF8Unmarked_m628720656
ZJg:_NumberFormatter_RoundBits_m1545255255
H5:__Z6StrCmpPKcS0_
j4j:_InternalEnumerator_1_MoveNext_m2906956792_gshared
Tkb:__ZN18StreamedBinaryReadILb1EE21TransferSTLStyleArrayINSt3__26vectorI17SortingLayerEntryNS2_9allocatorIS4_EEEEEEvRT_17TransferMetaFlags
E0b:__Z21CheckGpuProgramUsable20ShaderGpuProgramType
AJk:__ZNK15dense_hashtableINSt3__24pairIK10KeyWrapperIPK22Il2CppGenericParameterEP11Il2CppClassEES6_N6il2cpp5utils11PointerHashIS4_EEN14dense_hash_mapIS6_S9_SE_NS0_8equal_toIS6_EENS0_9allocatorISA_EEE9SelectKeyESH_SJ_E13find_positionERS7_
Fjj:__Z55RuntimeInvoker_Boolean_t3825574718_Keyframe_t1449471340PK10MethodInfoPvPS2_
PLh:_Binder__cctor_m3736115807
$_a:__ZN13BatchRenderer5FlushEv
eDl:__ZNKSt8bad_cast4whatEv
Vtd:__ZN5physx6shdfnd5ArrayIPvNS0_19ReflectionAllocatorINS_2Cm5BlockIhLj128EEEEEE4copyINS0_15InlineAllocatorILj256ES7_EEEEvRKNS1_IS2_T_EE
Psf:_Attribute_GetHashCode_m2653962112
Exe:__ZN20TextRenderingPrivate19NativeTextGenerator5SetupEv
Nek:_AsyncResult_GetReplyMessage_m262842621
i2a:__ZNK15SharedLightData24GetFinalShadowResolutionEv
bUf:_Enumerator__ctor_m3021143890_AdjustorThunk
Bxd:__ZN5physx6shdfnd8PoolBaseINS_16NpConnectorArrayENS0_19ReflectionAllocatorIS2_EEE15disposeElementsEv
JEb:__ZN12AspectRatios8TransferI18StreamedBinaryReadILb0EEEEvRT_
Que:__ZN14PhysicsManager19CreatePvdConnectionEv
Adi:__ZL66X509ExtensionCollection_t1640144839_CustomAttributesCacheGeneratorP21CustomAttributesCache
U7b:__ZN10GameObject14CopyPropertiesERS_
BHk:__ZL25UnresolvedVirtualCall_167P12Il2CppObject19Vector3_t2243707580S1_PK10MethodInfo
Ttc:__Z44Register_UnityEngine_GUIStyle_get_fixedWidthv
IYe:_RSACryptoServiceProvider_Common_m2581564813
Sbl:__ZNSt3__214__split_bufferIN6il2cpp2os10ThreadImpl10APCRequestERNS_9allocatorIS4_EEEC2EjjS7_
W7:__ZN14SafeBinaryRead4InitERK16TypeTreeIteratorii24TransferInstructionFlags18MemLabelIdentifier
UXj:_ArrayReadOnlyList_1_GetEnumerator_m634288642_gshared
X9a:__ZNK13ScreenManager12IsFullScreenEv
Prl:_rand
ZWk:__ZN15dense_hashtableINSt3__24pairIK10KeyWrapperINS1_IPK10MethodInfoP11Il2CppClassEEEjEES9_17ReflectionMapHashIS8_EN14dense_hash_mapIS9_jSD_19ReflectionMapEqualsIS8_ENS0_9allocatorISB_EEE9SelectKeyESG_SI_E12maybe_shrinkEv
S6i:__Z51RuntimeInvoker_UInt32_t2149682021_Int16_t4041245914PK10MethodInfoPvPS2_
p_j:_InternalEnumerator_1_get_Current_m2345377791_AdjustorThunk
Kwd:__ZNK5physx12NpConstraint9getActorsERPNS_12PxRigidActorES3_
WC:__ZN11UnityEngine9Animation33SetGenericTransformPropertyValuesERKNS0_30AnimatorGenericBindingConstantERKN7mecanim10ValueArrayEP9Transform
Wzl:__ZNKSt3__28numpunctIwE16do_decimal_pointEv
Xmg:_ReadOnlyCollection_1_GetEnumerator_m2481390116_gshared
yMb:__ZN14SafeBinaryRead21TransferSTLStyleArrayINSt3__26vectorI17AnimationCurveTplIfE13stl_allocatorIS4_L18MemLabelIdentifier1ELi16EEEEEEvRT_17TransferMetaFlags
Ggc:__Z60Register_UnityEngine_AsyncOperation_set_allowSceneActivationv
eme:__ZN5physx6shdfnd8PoolBaseIN17PxcPoolMallocData10PoolData16ENS0_19ReflectionAllocatorIS3_EEE15disposeElementsEv
hqj:_CullStateChangedEvent__ctor_m4025397477
iul:__ZNSt3__26locale2id5__getEv
FEh:_ObjectManager_RegisterObject_m872610295
gWa:__Z22PrepareOptimizedPlanesPK5PlaneiPKN4math7_float4E
Ooj:__Z47RuntimeInvoker_Vector3_t2243707580_Il2CppObjectPK10MethodInfoPvPS2_
mVi:_RectOffset_t3387826427_marshal_pinvoke
ISe:__ZN11UnityEngine7Connect13ConfigHandler13ConfigChangedERK8UnityStr
mBg:_Graphic_SetVerticesDirty_m1607014370
Hca:__ZN17UniqueIDGenerator15CreatePureIndexEv
oAl:__ZNSt3__27codecvtIDsc11__mbstate_tED0Ev
Idh:_MD2__ctor_m3133818738
QJ:__ZN11UnityEngine9Animation28GenericAnimationBindingCache15DidReloadDomainEv
Cah:_AppDomain_InternalGetProcessGuid_m1278588156
FGg:_InputField_MoveRight_m386206014
_Sb:__ZN6HelperI18StreamedBinaryReadILb0EE23TransferArrayField_InfoE24SerializationFunctionForERKS2_R23StaticTransferFieldInfoPb
DRd:__ZN5physx7NpScene8addActorERNS_7PxActorE
hcf:_Array_InternalArray__ICollection_Remove_TisIl2CppObject_m2425110446_gshared
ecj:__Z83RuntimeInvoker_Il2CppObject_Il2CppObject_Vector3_t2243707580_Quaternion_t4030073918PK10MethodInfoPvPS2_
uJ:__ZN19StreamedBinaryWriteILb0EE8TransferIN7mecanim9animation23BlendDirectDataConstantEEEvRT_PKc17TransferMetaFlags
Ftj:_ScrollRect_set_inertia_m2575649134
ZQg:_BinaryReader_ReadBoolean_m2892291883
FRc:__ZNK12b2MouseJoint17GetReactionTorqueEf
hli:__ZL66DSASignatureDeformatter_t2187578719_CustomAttributesCacheGeneratorP21CustomAttributesCache
Qac:__ZN4Mesh24UpdateSubMeshVertexRangeEi
z8i:__Z91RuntimeInvoker_Boolean_t3825574718_Il2CppObject_Il2CppObject_Il2CppObject_Int32_t2071877448PK10MethodInfoPvPS2_
cqc:__Z14GUIClipTextureP9Texture2DPhiiii
ku:__ZN14SafeBinaryRead21TransferSTLStyleArrayI13dynamic_arrayI11KeyframeTplI11QuaternionfELj4EEEEvRT_17TransferMetaFlags
AZj:_InternalEnumerator_1_Dispose_m1064404287_AdjustorThunk
cHa:__ZNSt3__26vectorI27ComputeShaderBuiltinSamplerNS_9allocatorIS1_EEE21__push_back_slow_pathIKS1_EEvRT_
Yhj:__Z95RuntimeInvoker_Void_t1841601450_ObjectU5BU5DU26_t3223402458_Int32_t2071877448_Int32_t2071877448PK10MethodInfoPvPS2_
zkh:_TlsServerCertificate_validateCertificates_m1988583701
e6i:__Z52RuntimeInvoker_DateTime_t693205669_Int16_t4041245914PK10MethodInfoPvPS2_
ulk:_Uri__ctor_m3927533881
Sci:__ZL61DllImportAttribute_t3000813225_CustomAttributesCacheGeneratorP21CustomAttributesCache
l5:__ZNK9Transform18TransformDirectionERK8Vector3f
Zhe:__ZN5physx21PxsBodyTransformVault6updateEv
PQa:__ZNK17ArchiveFileSystem12GetAssetGUIDERK13FileEntryData
w0b:__ZNSt3__26vectorIN9ShaderLab20SerializedSubProgram15MatrixParameterENS_9allocatorIS3_EEE21__push_back_slow_pathIKS3_EEvRT_
JWj:_GUILayoutEntry_SetHorizontal_m1828181654
Vba:__ZN13RuntimeStaticINSt3__23setIPFvP11Il2CppClassR23CachedSerializationDataRbENS0_4lessIS8_EENS0_9allocatorIS8_EEEEE16StaticInitializeEPv
R$c:__ZL29GeomMTDCallback_CapsuleConvexRN5physx6PxVec3ERfRKNS_10PxGeometryERKNS_11PxTransformES5_S8_
gxl:__ZNKSt3__210__time_put8__do_putEPwRS1_PK2tmcc
D6h:_EqualityComparer_1_get_Default_m1852501307_gshared
jY:__ZNKSt3__23mapINS_12basic_stringIcNS_11char_traitsIcEENS_9allocatorIcEEEES6_NS_4lessIS6_EENS4_INS_4pairIKS6_S6_EEEEE16__find_equal_keyERPNS_16__tree_node_baseIPvEERSA_
eaj:__Z94RuntimeInvoker_Void_t1841601450_Il2CppObject_ByteU5BU5DU26_t790777611_ByteU5BU5DU26_t790777611PK10MethodInfoPvPS2_
lIb:__ZN10MonoScript23VirtualRedirectTransferER17RemapPPtrTransfer
KCl:__ZNK10__cxxabiv120__si_class_type_info27has_unambiguous_public_baseEPNS_19__dynamic_cast_infoEPvi
JLg:_NumberFormatInfo_get_PercentNegativePattern_m1162448153
iei:__ZL56SyncHashtable_t1343674558_CustomAttributesCacheGeneratorP21CustomAttributesCache
YHb:__ZN24RingBufferMemoryFileData9SetLengthEy
_Gl:_glTexSubImage3D__wrapper
Pxh:_FactoryCache_Add_m2602974721
jTa:__Z21WriteImageAsyncThreadPv
Tba:__ZL16GetInterfaceImpl18UnityInterfaceGUID
cKk:__ZN6il2cpp2vmL17SetupFieldOffsetsENS0_15FieldLayoutKindEP11Il2CppClassjRKNSt3__26vectorIjNS4_9allocatorIjEEEE
AXf:_List_1_System_Collections_IList_get_Item_m936612973_gshared
QK:__ZNSt3__26vectorI8UnityStrNS_9allocatorIS1_EEE26__swap_out_circular_bufferERNS_14__split_bufferIS1_RS3_EE
v_:__ZN13EmscriptenWWW7GetSizeEv
Qfl:__ZN6il2cpp6icalls8mscorlib6System15MonoCustomAttrs27GetCustomAttributesInternalEP12Il2CppObjectP20Il2CppReflectionTypeb
Bu:__ZN7mecanim9animation18ClipMuscleConstant8TransferI18StreamedBinaryReadILb1EEEEvRT_
Gxc:__ZN8JSONRead21TransferSTLStyleArrayI13dynamic_arrayI8Vector3fLj4EEEEvRT_18MemLabelIdentifier17TransferMetaFlags
PEh:_ObjectReader_ReadAssembly_m869834280
f_c:__ZNK5physx3Cct13BoxController11getPositionEv
kob:__ZN22RenderingCommandBufferD0Ev
VKd:__ZN5physx14NpRigidDynamicC2ERKNS_11PxTransformE
pmg:_ReadOnlyCollection_1_System_Collections_IList_get_Item_m1831743662_gshared
Gfg:_Collection_1_IsSynchronized_m971497175_gshared
E3c:__Z27sweepCCTBox_HeightFieldGeomRKN5physx10PxGeometryERKNS_11PxTransformERKNS_2Gu3BoxERKNS_6PxVec3EfRNS_10PxSweepHitENS_7PxFlagsINS_9PxHitFlag4EnumEtEEf
Scf:_ExecuteEvents_Execute_TisIl2CppObject_m4168308247_gshared
hxj:_Text_get_cachedTextGeneratorForLayout_m1357670532
tO:__ZL31InitializeAudioScriptingClassesv
$Ya:__Z14SortGUIByDepthP10GUIElementS0_
XNg:_NumberFormatter_NumberToString_m126384393
UKl:_emscripten_glVertexAttrib4fv__wrapper
ri:_glBindSampler
Efk:_LogicalCallContext__ctor_m3173272863
z$c:__ZN5physx3Cct9SweepTest18updateTouchedGeomsEPKNS0_30InternalCBData_FindTouchedGeomERKNS0_13UserObstaclesERKNS_17PxExtendedBounds3ERKNS_19PxControllerFiltersERKNS_6PxVec3E
jYg:_MonoCustomAttrs__cctor_m2608447972
KNg:_Int32_FindSign_m3803672540
MXh:_Enumerator_System_Collections_IEnumerator_Reset_m70453843_AdjustorThunk
rLi:_GUISkin_get_scrollView_m2941173958
tse:_PxCloseExtensions
I1:__ZNK20LocalFileSystemPosix21GetAvailableDiskSpaceEPKcRy
sr:__ZNSt3__26__treeIiNS_4lessIiEENS_9allocatorIiEEE7destroyEPNS_11__tree_nodeIiPvEE
osk:_Predicate_1__ctor_m2995226103_gshared
mgh:_CipherSuite_InitializeCipher_m229247572
XFc:__ZN11ForceModule25CalculateProceduralBoundsER10MinMaxAABBRK10Matrix4x4ff
Dya:__ZNK9GfxDevice14GetWorldMatrixEv
ZVh:_MonoProperty_GetGetMethod_m1100580870
W1h:_Dictionary_2__ctor_m1950568359_gshared
RXh:_Enumerator_System_Collections_IDictionaryEnumerator_get_Key_m1214978221_AdjustorThunk
AS:__ZN11SoundHandle13CreateChannelEb
Isb:__ZN14SafeBinaryRead21TransferSTLStyleArrayI13dynamic_arrayI12LightmapDataLj4EEEEvRT_17TransferMetaFlags
Wah:_ArgumentException__ctor_m3312963299
Zhb:__ZN21AssetBundleFileSystem11CreateAsDirER13FileEntryData
mZb:__ZNSt3__26vectorIN9ShaderLab20SerializedSubProgram16TextureParameterENS_9allocatorIS3_EEE6assignIPS3_EENS_9enable_ifIXaasr21__is_forward_iteratorIT_EE5valuesr16is_constructibleIS3_NS_15iterator_traitsISA_E9referenceEEE5valueEvE4typeESA_SA_
O8b:__Z16CreateGameObjectRKNSt3__212basic_stringIcNS_11char_traitsIcEENS_9allocatorIcEEEEPKcz
Tbl:__ZNSt3__26vectorIN6il2cpp2os10ThreadImpl10APCRequestENS_9allocatorIS4_EEE26__swap_out_circular_bufferERNS_14__split_bufferIS4_RS6_EE
drk:_U3CCreateWhereIteratorU3Ec__Iterator1D_1_MoveNext_m3533253043_gshared
I$j:_InternalEnumerator_1_System_Collections_IEnumerator_Reset_m2726857860_AdjustorThunk
mNb:__ZN9Scripting36IsSystemCollectionsGenericDictionaryEP11Il2CppClass
sxh:_X509SubjectKeyIdentifierExtension__ctor_m3887138480
VTf:_Enumerator_System_Collections_IEnumerator_get_Current_m2853089017_AdjustorThunk
QSc:__ZN12b2WheelJoint24SolvePositionConstraintsERK12b2SolverData
_Ed:__ZNK5physx2Sc9ClothCore20getNbCollisionPlanesEv
hh:_emscripten_exit_fullscreen
uYd:__ZN5physx6shdfnd5ArrayINS_9PxBounds3ENS0_15InlineAllocatorILj192ENS0_19ReflectionAllocatorIS2_EEEEE8recreateEj
P4d:__ZNK5physx23PxsBroadPhaseContextSap7getTypeEv
dke:__ZNK5physx13GuMeshFactory17getNbHeightFieldsEv
GEg:_InputField_get_mesh_m3276583786
zak:_GCHandle_Free_m1639542352_AdjustorThunk
gjh:_Context_set_ClientRandom_m631392719
Odl:__ZN6il2cpp6icalls8mscorlib6System6String19InternalAllocateStrEi
xxc:__Z29Transfer_Blittable_ArrayFieldI8JSONRead11QuaternionfEvRT_R9ArrayInfoRK23StaticTransferFieldInfo
Hji:__ZL65SoapParameterAttribute_t2780084514_CustomAttributesCacheGeneratorP21CustomAttributesCache
q$d:__ZNK5physx2Gu12OBBAABBTestsILb1EEclENS_6shdfnd3aos5Vec3VES5_
Vbj:__Z47RuntimeInvoker_Vector4_t2243707581_Il2CppObjectPK10MethodInfoPvPS2_
U_c:__ZN5physx3Cct9SweepTestD2Ev
bmb:__ZN9Behaviour8TransferI18StreamedBinaryReadILb0EEEEvRT_
Xgk:_Enumerator_System_Collections_IEnumerator_get_Current_m1429268283
WPj:_ControllerColliderHit_get_transform_m3183428555
g8c:__ZN26IntersectAnyVsMeshCallbackILi0ELb0EED2Ev
tpl:___toread
BZ:__ZN19CloudServiceHandler10QueueEventEPN11UnityEngine15CloudWebService14CloudEventInfoE
tDl:___cxa_is_pointer_type
JEg:_InputField_get_shouldHideMobileInput_m3694613599
eIa:__ZN4gles20DestroyRenderSurfaceEP7ApiGLESP17RenderSurfaceGLES
UTf:_Enumerator_System_Collections_IEnumerator_get_Current_m2853089017_gshared
M7k:__ZN15dense_hashtableINSt3__24pairIK10KeyWrapperINS1_IPKcS4_EEEiEES6_24NamespaceAndNamePairHashN14dense_hash_mapIS6_iS9_26NamespaceAndNamePairEqualsNS0_9allocatorIS8_EEE9SelectKeyESB_SD_E8min_sizeEjj
jea:__ZN17MessageIdentifier13StaticDestroyEPv
JAl:__ZNSt3__26locale5__imp7installINS_7num_putIcNS_19ostreambuf_iteratorIcNS_11char_traitsIcEEEEEEEEvPT_
Aoc:__Z34Transform_CUSTOM_SetAsFirstSiblingP12Il2CppObject
M2c:__ZN12_GLOBAL__N_141SphereMeshContactGenerationCallback_ScaleD0Ev
Pdj:__Z69RuntimeInvoker_Boolean_t3825574718_TextGenerationSettings_t2543476768PK10MethodInfoPvPS2_
L9c:__ZN5physx3Cct17CapsuleController16setContactOffsetEf
cWf:_Enumerator_get_Current_m827571811_AdjustorThunk
zna:__ZN17PersistentManager40GlobalToLocalSerializedFileIndexInternalERK26SerializedObjectIdentifier
gpg:_BaseEventData_get_selectedObject_m3551206992
Q0g:_SimpleCollator_CompareOrdinal_m2176988387
iAi:__ZL47Rect_t3681755626_CustomAttributesCacheGeneratorP21CustomAttributesCache
BRf:_CCGregorianCalendar_GetYear_m1289900195
kwd:__ZN12GeomQueryAnyIN5physx10PxSweepHitEE7geomHitERKNS0_2Sq17SceneQueryManagerERKNS0_15MultiQueryInputERKNS3_9ShapeDataERKNS0_10PxGeometryERKNS0_11PxTransformENS0_7PxFlagsINS0_9PxHitFlag4EnumEtEEjPS1_fbPNS0_9PxBounds3E
VNg:_Int16_ToString_m2592645088
hDa:__ZN13TranslateGLES4InitERK12GraphicsCaps16GfxDeviceLevelGL
_Tb:__Z29Transfer_Blittable_ArrayFieldI18StreamedBinaryReadILb0EE10ColorRGBAfEvRT_R9ArrayInfoRK23StaticTransferFieldInfo
W1c:__ZN43CapsuleHeightfieldContactGenerationCallback7onEventEjPj
nqe:__ZThn4_N12MemoryStream4readEPvj
DGh:_SerializationInfoEnumerator_Reset_m2206466680
_kj:__Z48RuntimeInvoker_Void_t1841601450_Slot_t2267560602PK10MethodInfoPvPS2_
E$b:__ZNSt3__26__treeINS_12__value_typeI8UnityStriEENS_19__map_value_compareIS2_S3_NS_4lessIS2_EELb1EEENS_9allocatorIS3_EEE4findIS2_EENS_15__tree_iteratorIS3_PNS_11__tree_nodeIS3_PvEEiEERKT_
N2k:__ZNK15dense_hashtableINSt3__24pairIK10KeyWrapperIP11Il2CppClassES4_EES5_N6il2cpp8metadata16SZArrayClassHashEN14dense_hash_mapIS5_S4_SA_NS9_19SZArrayClassCompareENS0_9allocatorIS7_EEE9SelectKeyESC_SE_E10test_emptyERK24dense_hashtable_iteratorIS7_S5_SA_SG_SC_SE_E
oSa:__ZZ23InitPlayerLoopCallbacksvEN33PostLateUpdateInputEndFramestruct7ForwardEv
EJj:_AnimationEvent_get_objectReferenceParameter_m3565420672
mCk:_GenericEqualityComparer_1_Equals_m1934771410_gshared
tei:__ZL57DebuggingModes_t2073970606_CustomAttributesCacheGeneratorP21CustomAttributesCache
uYg:__ZN16VirtFuncInvoker0IP12MethodInfo_tE6InvokeEjPv
THb:__ZN24RingBufferMemoryFileDataD0Ev
mcg:_Collection_1_System_Collections_IList_get_IsFixedSize_m993584401_gshared
dGb:__ZNSt3__26vectorIN30RuntimeInitializeOnLoadManager15ClassMethodInfoE13stl_allocatorIS2_L18MemLabelIdentifier12ELi16EEE8__appendEj
COd:__ZN5physx6shdfnd8internal8HashBaseIPNS_13NpVolumeCacheES4_NS0_4HashIS4_EENS1_11HashSetBaseIS4_S6_NS0_9AllocatorELb0EE6GetKeyES8_Lb0EE15reserveInternalEj
gaj:__Z84RuntimeInvoker_Il2CppObject_Il2CppObject_Il2CppObject_Il2CppObject_Int32_t2071877448PK10MethodInfoPvPS2_
znl:__ZN6il2cpp2os6Memory12AlignedAllocEjj
mzd:__ZN5physx6shdfnd8internal8HashBaseIPKNS_6PxBaseES5_NS0_4HashIS5_EENS1_11HashSetBaseIS5_S7_NS0_9AllocatorELb0EE6GetKeyES9_Lb0EE6createERKS5_Rb
u3d:__ZN5physx28solveFrictionCoulombPreBlockEPKNS_23PxcSolverConstraintDescEjRNS_16PxcSolverContextE
fnf:_Array_swap_TisPlayable_t3667545548_m817366036_gshared
qNh:_TypeBuilder_get_is_created_m736553860
MVj:_GameObject_set_layer_m2712461877
Teh:_RSAManaged__ctor_m1370411656
lTb:__Z18Transfer_BlittableI18StreamedBinaryReadILb0EELb1E10ColorRGBAfEvRK29SerializationCommandArgumentsR31RuntimeSerializationCommandInfo
ume:__ZN5physx7Cooking19computeHullPolygonsERKNS_20PxSimpleTriangleMeshERNS_19PxAllocatorCallbackERjRPNS_6PxVec3ES6_RPjS6_RPNS_13PxHullPolygonE
Fec:__ZL27GetComponentsImplementationILb0ELi0EEbR10GameObjectbRK17CompareParametersRK39GetComponentsImplementation_ReturnValue
qI:__ZN7mecanim9animation21BlendTreeNodeConstant8TransferI24GenerateTypeTreeTransferEEvRT_
$rj:_Raycast3DCallback_EndInvoke_m3234280377
Q8:__Z18BuildScriptClassIdP11Il2CppClass
Zjk:_BalancingGroup__ctor_m2474435406
Vud:__ZN5physx12NpConstraint12actorDeletedEPNS_12PxRigidActorE
Yxg:_ColorTweenCallback__ctor_m3619686788
naa:__ZL16ReadTypeTreeImplILb0EEbR8TypeTreeRK16TypeTreeIteratorRPKhS6_i
swj:__ZN18VirtActionInvoker1IfE6InvokeEjPvf
CJ:__ZN25RuntimeAnimatorControllerD2Ev
cvf:_Byte_System_IConvertible_ToInt32_m1032609763_AdjustorThunk
H0b:__ZN9ShaderLab7ProgramD0Ev
Fdd:__ZN5physx2Sc8ShapeSim18reinsertBroadPhaseEv
wnk:_PKCS12_GetSymmetricAlgorithm_m3196291685
SAa:__ZN9GfxDevice15BeginFrameStatsEv
Eic:__Z42Register_UnityEngine_RectOffset_set_bottomv
xyf:_ArrayListWrapper_IndexOf_m3574835167
ktd:__ZN5physx2Sc5Scene11removeShapeERNS0_8ShapeSimEb
A4a:__ZN28LightProbeProxyVolumeContext8CopyFromERKS_
Hvk:_Texture_Internal_GetHeight_m2775530157
Tvg:_U3COnFinishSubmitU3Ec__Iterator0_System_Collections_Generic_IEnumeratorU3CobjectU3E_get_Current_m1823105495
mba:__ZN23TransformChangeDispatch32QueueTransformChangeIfHasChangedER18TransformHierarchy
L_e:_SymmetricAlgorithm_get_FeedbackSize_m544664262
uYk:__ZNK15dense_hashtableINSt3__24pairIK10KeyWrapperINS1_IPK12PropertyInfoP11Il2CppClassEEEjEES9_17ReflectionMapHashIS8_EN14dense_hash_mapIS9_jSD_19ReflectionMapEqualsIS8_ENS0_9allocatorISB_EEE9SelectKeyESG_SI_E5beginEv
e3a:__ZN18DeferredRenderLoop15RenderFinalPassEP13RenderTextureS1_
Atl:__ZNSt3__213basic_ostreamIcNS_11char_traitsIcEEE6sentryD2Ev
fIa:__ZN7ApiGLES18DeleteRenderbufferERj
phd:__ZN5physx6shdfnd5ArrayIPvNS0_15InlineAllocatorILj256ENS0_19ReflectionAllocatorINS_16NpConnectorArrayEEEEEE15growAndPushBackERKS2_
ZGa:__ZL23ProgramUniformMatrix4fvPK7ApiGLESjiihPKv
Tni:__ZL67ThreadInterruptedException_t63303933_CustomAttributesCacheGeneratorP21CustomAttributesCache
b7d:__ZN5physx14SingleAABBTaskC2Ev
H3j:_InternalEnumerator_1_MoveNext_m3629145604_gshared
VYb:__ZN9ShaderLab20SerializedSubProgram15MatrixParameter8TransferI14SafeBinaryReadEEvRT_
ctf:_BitConverter_AmILittleEndian_m2716658112
Hec:__ZL27GetComponentsImplementationILb0ELi1EEbR10GameObjectbRK17CompareParametersRK39GetComponentsImplementation_ReturnValue
HJe:_Round_Down_To_Grid
Qzj:_UTF8Decoder__ctor_m1460357288
Aja:__ZN13RenderTexture7ReleaseEv
Qhk:_PatternCompiler_EmitBranchEnd_m3390109636
PEf:_Convert_ToByte_m1201588964
b1c:__ZNK5physx2Cm23FastVertex2ShapeScaling20transformQueryBoundsERNS_6PxVec3ES3_RNS_7PxMat33E
ugc:__Z36AsyncOperation_Get_Custom_PropIsDoneP12Il2CppObject
UKa:__ZN22CreateGpuProgramOutput12CreateParamsEv
eHh:_RuntimeMethodHandle_GetHashCode_m2682236001_AdjustorThunk
D6k:__ZN15dense_hashtableI10KeyWrapperIP18Il2CppGenericClassES3_N6il2cpp8metadata22Il2CppGenericClassHashEN14dense_hash_setIS3_S6_NS5_25Il2CppGenericClassCompareENSt3__29allocatorIS3_EEE8IdentityES8_SB_E12expand_arrayEjN21dense_hash_map_traits17integral_constantIbLb0EEE
Mrd:__ZNK5physx18NpArticulationLink11getChildrenEPPNS_18PxArticulationLinkEj
vbk:_ActivationServices_AllocateUninitializedClassInstance_m3410698501
i0k:__ZNSt3__26vectorIiNS_9allocatorIiEEE21__push_back_slow_pathIiEEvOT_
YCa:__ZNK14GfxContextGLES13GetDefaultFBOEv
Sgl:_GC_promote_black_lists
rcf:_Array_InternalArray__ICollection_Remove_TisSByte_t454417549_m2474211570_gshared
kEg:_Image_AddQuad_m1600600902
wfe:__Z15atomIntegrationfPKPN5physx11PxsBodyCoreEPKPNS_12PxsRigidBodyEjPKNS_2Cm13SpatialVectorEPNS_13PxcSolverBodyEPNS_17PxcSolverBodyDataEPS9_RjSH_
CFe:_ps_hints_t1stem3
HNd:__ZN5physx13NpRigidStatic11createShapeERKNS_10PxGeometryEPKPNS_10PxMaterialEtNS_7PxFlagsINS_11PxShapeFlag4EnumEhEE
lxb:__ZN18StreamedBinaryReadILb1EE21TransferSTLStyleArrayI13dynamic_arrayI12SpriteVertexLj4EEEEvRT_17TransferMetaFlags
PTk:_il2cpp_class_is_enum
Poh:_AuthorityKeyIdentifierExtension_get_Identifier_m3535568551
Kpf:_GameObject_AddComponent_TisIl2CppObject_m3813873105_gshared
Ala:__ZNSt3__23mapIN9ShaderLab16FastPropertyNameEN18UnityPropertySheet11UnityTexEnvENS_4lessIS2_EENS_9allocatorINS_4pairIKS2_S4_EEEEEixERS9_
sQg:_IntPtr_ToString_m428195821_AdjustorThunk
rld:__ZN5physx11NpAggregate22removeActorAndReinsertERNS_7PxActorEb
Yme:__ZZL19ExtractHullPolygonsRjRN5physx2Gu9ContainerERKNS0_17ConvexHullBuilderEPS2_S3_EN5Local9FloodFillES3_PKNS0_11AdjTriangleEjPb
Tcg:_Collection_1_System_Collections_IList_Contains_m1897568526_gshared
JPh:_FieldBuilder_get_FieldType_m2267463269
xsf:_SimpleEnumerator_Clone_m3032847657
Khk:_PatternCompiler_EmitInfo_m597931026
LOk:__ZN6il2cpp2vm13MetadataCache34GetTypeInfoFromTypeDefinitionIndexEi
dch:_ModulusRing_Multiply_m3113924743
Rnc:__Z47Texture2D_CUSTOM_INTERNAL_CALL_GetPixelBilinearP12Il2CppObjectffR10ColorRGBAf
Vih:_Context_get_ServerSettings_m225713600
gj:_emscripten_glVertexAttrib4f
hVf:_Enumerator_System_Collections_IEnumerator_get_Current_m3461301268_AdjustorThunk
htk:_InvokableCall_1_remove_Delegate_m3576859071_gshared
dhg:_ReadOnlyCollection_1_System_Collections_IEnumerable_GetEnumerator_m531171980_gshared
Qve:__ZL28RegisterModuleICalls_Physicsv
g0b:__ZNSt3__26vectorIN20GpuProgramParameters14ConstantBufferENS_9allocatorIS2_EEE8__appendEj
Hmf:_Array_Sort_TisUILineInfo_t3621277874_m3105833015_gshared
YEb:__ZN15ResourceManager23VirtualRedirectTransferER18StreamedBinaryReadILb1EE
Fo:FUNCTION_TABLE_vf
a_g:_MonoType_GetGenericArguments_m2708198481
h_a:__ZN11HaloManager21ReleaseGeometryJobMemEP25DynamicVBOGeometryJobData
GXf:_List_1_AddEnumerable_m2489692396_gshared
$nd:__ZN5physx14NpArticulation26setMaxProjectionIterationsEj
bbd:__ZN5physx3Cct15ObstacleContext14removeObstacleEj
kyi:__ZL93TextGenerator_t647235000_CustomAttributesCacheGenerator_TextGenerator_Dispose_cpp_m1755131202P21CustomAttributesCache
Zyk:_WaitForSecondsRealtime__ctor_m1734539010
iAj:_WaitHandle__ctor_m1256161634
tA:__ZN7mecanim12statemachine24CreateStateMachineMemoryEPKNS0_20StateMachineConstantERNS_6memory9AllocatorE
XAa:__ZN9GfxDevice18SetGlobalDepthBiasEff
sek:_Identity_get_ChannelSink_m3989446673
IRk:__ZN6il2cpp6icalls8mscorlib6System8MonoType12get_AssemblyEP20Il2CppReflectionType
jHc:__ZN4PPtrI12MeshRendererE8TransferI14SafeBinaryReadEEvRT_
rug:__ZN16VirtFuncInvoker3IP25AxisEventData_t1524870173fffE6InvokeEjPvfff
PAg:_FontData_get_richText_m2013560754
A2e:_SecurityException_get_PermissionType_m3543350822
tj:_emscripten_glGetPointerv
wwk:_Transform_set_position_m2469242620
RUj:_GenericMixerPlayable_Destroy_m3608330239_AdjustorThunk
gLd:__ZNK5physx15NpActorTemplateINS_14PxRigidDynamicEE13getActorFlagsEv
EE:__ZN8Animator22ApplyBuiltinRootMotionEv
_qe:__ZN5physx7profile8ZoneImplINS_28PxProfileNameProviderForwardEE17handleBufferFlushEPKhj
Vvl:__ZNKSt3__28time_getIcNS_19istreambuf_iteratorIcNS_11char_traitsIcEEEEE11do_get_yearES4_S4_RNS_8ios_baseERjP2tm
old:__ZN5physx2Sc5ActorC2ERNS0_16InteractionSceneEhNS0_14IslandNodeInfo4TypeE
KWe:_RandomNumberGenerator_Create_m2275686895
ZFd:__ZN5physx15NpActorTemplateINS_7PxClothEED2Ev
vfi:__ZL55StreamReader_t2360341767_CustomAttributesCacheGeneratorP21CustomAttributesCache
vOh:_DerivedType_get_UnderlyingSystemType_m3904230233
qsg:_PointerEventData_get_rawPointerPress_m448871540
Y2i:__Z135RuntimeInvoker_IntPtr_t_Il2CppObject_Int32_t2071877448_Int32_t2071877448_Int32_t2071877448_Int32_t2071877448_MonoIOErrorU26_t1029615899PK10MethodInfoPvPS2_
CEd:__ZN5physx2Sc9ClothCore16setRestPositionsEPKNS_6PxVec4E
Zqc:__ZN5IMGUI14GUIWindowStateD2Ev
Eeb:__ZL13MotionHandleriPK27EmscriptenDeviceMotionEventPv
Wvh:_X509Certificate2Collection__ctor_m819526826
Nub:__ZN8Renderer10SetVisibleEb
UN:__ZN12AudioManager5ResetEv
BJk:__ZNK15dense_hashtableINSt3__24pairIK10KeyWrapperIPK22Il2CppGenericParameterEP11Il2CppClassEES6_N6il2cpp5utils11PointerHashIS4_EEN14dense_hash_mapIS6_S9_SE_NS0_8equal_toIS6_EENS0_9allocatorISA_EEE9SelectKeyESH_SJ_E12test_deletedEj
udh:_KeyBuilder_Key_m3814433741
Xah:_ArgumentException__ctor_m158205422
aff:_Array_compare_TisVector3_t2243707580_m3709184876_gshared
jDg:_HorizontalLayoutGroup_SetLayoutHorizontal_m3237355818
kqa:__ZN6prcoreL17RemapGenericFloatI17TexFormatRGBAHalf15TexFormatRGHalfEEvPKNS_9InnerInfoE
Tdl:__ZN6il2cpp6icalls8mscorlib6System11Environment20GetWindowsFolderPathEi
zHi:__ZL60AspectRatioFitter_t3114550109_CustomAttributesCacheGeneratorP21CustomAttributesCache
Lz:__ZN7mecanim5human18HumanPoseBlendNodeERNS0_9HumanPoseEPS1_f
xFe:_UNITY_FT_RoundFix
p0b:__ZN9ShaderLab20SerializedSubProgram15AddTextureParamEPKcii16TextureDimension
Yw:__ZNK8Animator26GetTypeInfoVirtualInternalEv
BW:__ZN23CloudWebServicesManager23VirtualRedirectTransferER17RemapPPtrTransfer
JDc:__ZL15AccumulateNoiseILb1ELi2EEN4math8floatNx2ERKNS0_8floatNx3ERKfiS6_S6_
UFi:__ZL78MaskableGraphic_t540192618_CustomAttributesCacheGenerator_m_OnCullStateChangedP21CustomAttributesCache
N3c:__ZNK5physx2Gu15HeightFieldUtil12traceSegmentI24ConvexVsHeightfieldSweepLb0ELb0ELb1EEEvRKNS_6PxVec3ES6_PT_PS5_
vHb:__Z23AppendPathNameExtensionRKNSt3__212basic_stringIcNS_11char_traitsIcEENS_9allocatorIcEEEES7_
Hje:__ZNK5physx12PxConvexMesh19getConcreteTypeNameEv
m4c:__ZN5physx2Gu19gjkLocalPenetrationINS0_9TriangleVENS0_17ShrunkConvexHullVEEEjRKT_RKT0_RKNS_6shdfnd3aos6FloatVERNSB_5Vec3VESG_SG_RSC_PhSI_Rhb
FFk:__ZL24UnresolvedVirtualCall_63P12Il2CppObjectS0_S0_S0_PK10MethodInfo
FQ:__ZN4FMOD6System17setSoftwareFormatEi17FMOD_SOUND_FORMATii18FMOD_DSP_RESAMPLER
U5c:__ZN5physx2Gu15GJKLocalRayCastERNS0_9TriangleVERNS0_4BoxVERKNS_6shdfnd3aos6FloatVERKNS6_5Vec3VESC_RS7_RSA_SE_fb
jne:__ZN5physx18AdjacenciesBuilderC2Ev
S2h:_Dictionary_2_System_Collections_ICollection_get_IsSynchronized_m960517203_gshared
Ddd:__ZN5physx2Sc13ShapeIterator4initERKNS0_8ActorSimE
Vql:_write
Nhl:_GC_set_mark_bit
TEj:_Type_MakeByRefType_m1323101575
BNe:__ZN2UI6Canvas27UpdateEventIndexesRecursiveERi
ny:__ZN7mecanim9animation18EvaluateRootMotionERKNS0_18ClipMuscleConstantERKNS0_15ClipMuscleInputEPKfS8_RNS0_12MotionOutputEb
wFg:_InputField_set_characterLimit_m4114734597
yBe:_UNITY_FT_Outline_New
_el:__ZNSt3__218uninitialized_copyIPNS_4pairIK10KeyWrapperIPK19Il2CppGenericMethodEP10MethodInfoEESB_EET0_T_SD_SC_
T6h:_EqualityComparer_1_System_Collections_IEqualityComparer_Equals_m1738053269_gshared
nbg:_Collection_1__ctor_m1566657168_gshared
lSb:__Z19TransferField_ArrayI19StreamedBinaryWriteILb0EE27Converter_SimpleNativeClassI8GUIStyleEEvRK23StaticTransferFieldInfoR31RuntimeSerializationCommandInfoRT0_
DVe:__ZN18VirtActionInvoker1IP22ByteU5BU5D_t3397334013E6InvokeEjPvS1_
ltj:_Scrollbar_SetDirection_m3264558284
Czd:__ZN5physx14NpArticulationC2Ev
FLl:_emscripten_glCopyTexSubImage2D__wrapper
v0:__ZNK13ScreenManager12GetIsFocusedEv
kHi:__ZL70SpriteState_t1353336012_CustomAttributesCacheGenerator_m_PressedSpriteP21CustomAttributesCache
_Ch:_RemotingServices_RegisterInternalChannels_m1827304423
WLi:_GUIStyle_get_onNormal_m1675201777
Qr:__ZL32CleanupAnimationScriptingClassesv
QMc:__ZN22ParticleSystemRenderer16UpdateCachedMeshEv
rQk:__ZNSt3__213__vector_baseIN6il2cpp2os19SocketHandleWrapperENS_9allocatorIS3_EEED2Ev
y3g:_ASN1_get_Length_m3359111015
lLi:_GUISkin_get_verticalScrollbarThumb_m649633186
ZNi:_GUIStyleState_Cleanup_m705006206
lIc:__ZN12LightsModule8TransferI24GenerateTypeTreeTransferEEvRT_
Ac:invoke_viiffi
$Aj:_Thread_GetCachedCurrentUICulture_m5590127
zqb:__ZNK12CubemapArray20GetRuntimeMemorySizeEv
gyk:_Vector3_Dot_m3161182818
pMa:__ZN9GfxDevice5FlushEv
NZb:__Z14resize_trimmedINSt3__26vectorIN9ShaderLab18SerializedPropertyENS0_9allocatorIS3_EEEEEvRT_j
j5f:_List_1_CheckMatch_m4018158235_gshared
Sjj:__Z91RuntimeInvoker_Int32_t2071877448_UICharInfo_t3056636800_UICharInfo_t3056636800_Il2CppObjectPK10MethodInfoPvPS2_
QQd:__ZN5physx6shdfnd8PoolBaseINS_2Sc9ActorPairENS0_19ReflectionAllocatorIS3_EEE12allocateSlabEv
O4i:__Z89RuntimeInvoker_Boolean_t3825574718_Il2CppObject_Il2CppObject_StreamingContext_t1417235061PK10MethodInfoPvPS2_
Ruf:_Byte_System_IConvertible_ToDateTime_m1583041031
dga:__ZNSt3__26__treeINS_12__value_typeINS_12basic_stringIcNS_11char_traitsIcEENS_9allocatorIcEEEEiEENS_19__map_value_compareIS7_S8_NS_4lessIS7_EELb1EEENS5_IS8_EEE4findIS7_EENS_15__tree_iteratorIS8_PNS_11__tree_nodeIS8_PvEEiEERKT_
KFk:__ZL24UnresolvedVirtualCall_68P12Il2CppObjectS0_iS0_S0_S0_S0_S0_S0_PK10MethodInfo
cAb:__ZN10VertexData8TransferI24GenerateTypeTreeTransferEEvRT_
Fel:__ZN13Il2CppHashMapIPK19Il2CppGenericMethodP10MethodInfoN6il2cpp8metadata23Il2CppGenericMethodHashENS6_26Il2CppGenericMethodCompareENSt3__29allocatorINS9_4pairIK10KeyWrapperIS2_ES4_EEEEEC2EjRKS7_RKS8_
r7g:_EncryptedData_get_EncryptionAlgorithm_m1301274243
Yvi:__ZL68DrivenTransformProperties_t2488747555_CustomAttributesCacheGeneratorP21CustomAttributesCache
BVa:__ZL10CullLightsRK22SceneCullingParametersR11CullResults
kAg:_Dropdown__cctor_m264401557
eQi:_Mathf_Clamp_m3542052159
Qrf:_Array_IndexOf_m2819632474
q8j:_Comparer_1__cctor_m3996541505_gshared
oA:__ZN7mecanim12statemachine20GetBlendTreeConstantERKNS0_13StateConstantEi
EOc:__ZZN14ParticleSystem15InitializeClassEvEN16cleanupAfterLoad7ForwardEv
TRd:__ZN5physx7NpScene21setDominanceGroupPairEhhRKNS_20PxDominanceGroupPairE
W8b:__Z40GetTemporaryCachePathApplicationSpecificv
jza:__ZN9GfxDevice16EndAsyncJobFrameEv
rEg:_Image_get_minWidth_m1809071077
azl:__ZNKSt3__27codecvtIcc11__mbstate_tE11do_encodingEv
sCe:_UNITY_tt_face_load_hhea
PHb:__ZN24RingBufferMemoryFileData11SetGrowableEb
lSj:_PersistentCall__ctor_m2079279187
nEf:_Convert_ToBase64String_m1936815455
ol:___syscall3
JJd:__ZNK5physx15NpActorTemplateINS_16PxParticleSystemEE7getNameEv
rl:___syscall6
xAa:__ZN9GfxDevice15GetNextCPUFenceEv
tl:___syscall4
gNf:_Decimal_ToString_m759431975
Kdg:_Collection_1_System_Collections_IList_get_IsFixedSize_m2204750039_gshared
wue:__ZN8Collider7PRODUCEE18MemLabelIdentifier18ObjectCreationMode
HGk:__ZL25UnresolvedVirtualCall_119P12Il2CppObjectiaPK10MethodInfo
Svg:_ColorBlock_get_fadeDuration_m987725262
MFi:__ZL195U3CMouseDragOutsideRectU3Ec__Iterator1_t2599668326_CustomAttributesCacheGenerator_U3CMouseDragOutsideRectU3Ec__Iterator1_System_Collections_Generic_IEnumeratorU3CobjectU3E_get_Current_m2602955272P21CustomAttributesCache
eal:__ZN6il2cpp2vm3RCW14QueryInterfaceILb1EEEP14Il2CppIUnknownP15Il2CppComObjectRK10Il2CppGuid
LWc:__ZNSt3__26__sortIR24RayHitsByDepthComparitorP12RaycastHit2DEEvT0_S5_T_
XZi:__Z59RuntimeInvoker_UnicodeCategory_t682236799_Int16_t4041245914PK10MethodInfoPvPS2_
u_f:_List_1_AddCollection_m3266731889_gshared
Nji:__ZL59ITrackingHandler_t2759960940_CustomAttributesCacheGeneratorP21CustomAttributesCache
Jl:_emscripten_glShaderBinary
yBj:_DelegatePInvokeWrapper_ThreadStart_t3437517264
ulf:_Array_qsort_TisVector2_t2243707579_TisVector2_t2243707579_m3308480721_gshared
Tqf:_Array_InternalArray__RemoveAt_m1126483634
y1:__ZNK20LocalFileSystemPosix6ExistsERK13FileEntryData
I0j:_InternalEnumerator_1_Dispose_m4038440306_AdjustorThunk
ejj:__Z50RuntimeInvoker_Void_t1841601450_Color32_t874517518PK10MethodInfoPvPS2_
ujd:__ZN5physx35NpArticulationJointGetBodiesFromScbERNS_3Scb17ArticulationJointERPNS0_4BodyES5_
hek:_SynchronizationAttribute_ReleaseLock_m2873780842
VMf:_DivideByZeroException__ctor_m280382972
aje:__ZNK5physx2Sc15ClothFabricCore16getTetherLengthsEPfj
vCi:__ZL114PointerEventData_t1599784723_CustomAttributesCacheGenerator_PointerEventData_get_pointerCurrentRaycast_m1374279130P21CustomAttributesCache
aRi:_Mesh_get_colors32_m4153271224
bYc:__ZNK17Physics2DSettings26GetTypeInfoVirtualInternalEv
VQe:__Z58Register_UnityEngine_Canvas_GetETC1SupportedCanvasMaterialv
cTi:_Physics2D_INTERNAL_CALL_GetRayIntersectionAll_m161475998
Qu:__ZN17AnimationCurveTplIfE8TransferI18StreamedBinaryReadILb1EEEEvRT_
qLf:_DateTimeOffset_GetHashCode_m3312197462_AdjustorThunk
OSe:__ZN18UnityConnectClientD2Ev
msh:_ServicePoint_set_UseNagleAlgorithm_m2618011464
hFg:_InputField_get_textComponent_m2074509413
gTk:_il2cpp_set_data_dir
JWd:__ZN5physx2Sc13ConstraintSim8getForceERNS_6PxVec3ES3_
Klk:_Uri_get_IsUnc_m2111738174
sjb:__ZN16LevelGameManager23VirtualRedirectTransferER19StreamedBinaryWriteILb0EE
Czb:__Z32TransferEnumWithNameForceIntSizeI14SafeBinaryRead16GfxPrimitiveTypeEvRT_RT0_PKc17TransferMetaFlags
U6j:_DefaultComparer__ctor_m1961329658_gshared
hSh:_ParameterBuilder_get_Attributes_m2421099277
lwk:_TouchScreenKeyboard_get_done_m406461410
VXi:_DataUtility_INTERNAL_CALL_GetPadding_m1621366113
Srb:__ZN18StreamedBinaryReadILb1EE21TransferResourceImageE19ActiveResourceImagePKcR13StreamingInfoPvj
RKi:_GUISkin_get_toggle_m4153935270
B$c:__ZN5physx15PxGeometryQuery18computePenetrationERNS_6PxVec3ERfRKNS_10PxGeometryERKNS_11PxTransformES6_S9_
$Re:__ZN11UnityEngine15PlatformWrapper30GetGraphicsDriverLibraryStringEv
XYh:_Enumerator_VerifyState_m262343092_AdjustorThunk
ive:__ZN5Unity12PhysicsQueryC2Ev
W_f:_List_1_get_Count_m1752597149_gshared
Deh:_EncryptedPrivateKeyInfo_Decode_m1706190306
l0h:_ValueCollection_GetEnumerator_m401908452_gshared
ASb:__Z18Transfer_BlittableI18StreamedBinaryReadILb0EELb0E4AABBEvRK29SerializationCommandArgumentsR31RuntimeSerializationCommandInfo
STc:__ZNSt3__227__insertion_sort_incompleteIR26ColliderIdentityComparitorPP10Collider2DEEbT0_S6_T_
ede:__ZN5physx10PxsContext13updateIslandsEfPNS_10PxBaseTaskE
bQj:_ControllerColliderHit_t4070855101_marshal_pinvoke
uIf:_Convert_ToUInt16_m1665900934
Iog:_Converter_2_BeginInvoke_m898151494_gshared
T6i:__Z52RuntimeInvoker_UInt32_t2149682021_Double_t4078015681PK10MethodInfoPvPS2_
ZHc:__ZN11ColorModule8TransferI24GenerateTypeTreeTransferEEvRT_
c5a:__Z14DrawGUITextureRK5RectTIfEP7Texture11ColorRGBA32P8Materiali
oxj:_Text_get_supportRichText_m3291105891
VVi:_RectTransform_GetParentSize_m1571597933
HD:__ZN9BlobWrite8TransferI22OffsetPtrArrayTransferIKN4math7_float4EEEEvRT_PKc17TransferMetaFlags
vmg:_ReadOnlyCollection_1_get_Count_m336636247_gshared
Uia:__ZN15TextureSettings8TransferI24GenerateTypeTreeTransferEEvRT_
oUj:_Playables_GetInputWeightValidated_m2453142047
A$i:__Z52RuntimeInvoker_Decimal_t724701077_Double_t4078015681PK10MethodInfoPvPS2_
Ugk:_MatchCollection_GetEnumerator_m3516985966
Oyc:__ZN9JSONWrite8TransferI4AABBEEvRT_PKc17TransferMetaFlags
Zyj:_UTF7Encoding__ctor_m2365939916
BPa:__ZN25MultiBlocksMemoryFileData9SetLengthEy
pT:__Z30GetAudioSpatializerDefinitionsR13dynamic_arrayIP29AudioEffectInternalDefinitionLj4EE
Wuk:_TextGenerationSettings_Equals_m3944651893_AdjustorThunk
fqj:_MatEntry__ctor_m3650167335
ygj:__Z143RuntimeInvoker_Void_t1841601450_Il2CppObject_Vector2_t2243707579_Vector2_t2243707579_Color32_t874517518_Vector2_t2243707579_Vector2_t2243707579PK10MethodInfoPvPS2_
hge:__ZNK18ScBeforeSolverTask7getNameEv
WTc:__ZN10Collider2D13AwakeFromLoadE17AwakeFromLoadMode
crb:__ZNK9Texture2D20GetRuntimeMemorySizeEv
ZEj:_TypeInitializationException__ctor_m2993591639
r3d:__ZN5physx14solve1D4_BlockEPKNS_23PxcSolverConstraintDescEjRNS_16PxcSolverContextE
r6h:_EqualityComparer_1__ctor_m3788663378_gshared
Rm:_emscripten_glUniform2iv
bli:__ZL46DES_t1353513560_CustomAttributesCacheGeneratorP21CustomAttributesCache
_$c:__ZL33GeomMTDCallback_ConvexHeightFieldRN5physx6PxVec3ERfRKNS_10PxGeometryERKNS_11PxTransformES5_S8_
tpi:__ZL79Convert_t2607082565_CustomAttributesCacheGenerator_Convert_ToSingle_m2156102599P21CustomAttributesCache
sye:_UNITY_FT_Outline_Transform
FLi:_SkinChangedDelegate_BeginInvoke_m4259161711
Lnc:__Z60Register_UnityEngine_Sprites_DataUtility_Internal_GetMinSizev
sKk:__ZN6il2cpp2vm5Class10GetMethodsEP11Il2CppClassPPv
hUi:_Rect_get_x_m1393582490_AdjustorThunk
Vbi:__ZL65Il2CppArray_CustomAttributesCacheGenerator_Array_Sort_m3500510484P21CustomAttributesCache
C1e:_Hash_GetObjectData_m315532943
uDa:__ZN7ApiGLES17DeleteFramebufferERN2gl6HandleILNS0_10ObjectTypeE9EEES3_
fKk:__ZN13dynamic_arrayIP11Il2CppClassLj4EE7reserveEj
UJa:__ZN15UniformTFMethod13MapBoneBufferEj
Rhh:_RecordProtocol_SendAlert_m2816808523
BMe:__ZN2UI14CanvasRendererD2Ev
i1j:_InternalEnumerator_1_get_Current_m3296972783_gshared
y8d:__ZN5physx26PxcPCMContactCapsuleConvexERKNS_2Gu13GeometryUnionES3_RKNS_11PxTransformES6_RKfRNS_10PxcNpCacheERNS0_13ContactBufferE
YMf:_Decimal_CompareTo_m2454501434
nWg:_SynchronizedReader_Read_m1399666181
zUh:_MonoEvent_get_Name_m2796714646
lfa:__Z9SetupArgviPPKc
mef:_Array_InternalArray__IEnumerable_GetEnumerator_TisHitInfo_t1761367055_m2486283755_gshared
wAc:__ZN9rapidjson13GenericReaderINS_4UTF8IcEES2_13JSONAllocatorE11ParseObjectILj0ENS_19GenericStringStreamIS2_EENS_15GenericDocumentIS2_S3_S3_EEEEvRT0_RT1_
Luf:_Convert_ToBoolean_m2032547942
Czg:_OptionData__ctor_m743450704
Zih:_Context_get_SentConnectionEnd_m3114190867
smd:__ZN5physx10PxsContext17addParticleSystemEPNS_15PxsParticleDataERKNS_26PxvParticleSystemParameterEb
okd:__ZN5physx3Scb5Scene13addRigidNoSimINS0_4BodyELb1ELb1EEEvRT_RNS0_13ObjectTrackerE
ekb:__ZN12ImmediatePtrI10GameObjectE8TransferI19StreamedBinaryWriteILb0EEEEvRT_
Dqb:__ZN12CubemapArray23VirtualRedirectTransferER24GenerateTypeTreeTransfer
SEk:__ZL24UnresolvedVirtualCall_22P12Il2CppObjectS0_iS0_S0_S0_PK10MethodInfo
Raa:__ZN12FileAccessor4OpenER15FileSystemEntry14FilePermission16FileAutoBehavior
Vfl:__ZN6il2cpp2os9Directory6CreateERKNSt3__212basic_stringIcNS2_11char_traitsIcEENS2_9allocatorIcEEEEPi
Nma:__ZN4PPtrI6ShaderE8TransferI18StreamedBinaryReadILb0EEEEvRT_
k5c:__ZL19sweepBoxVsTrianglesjPKN5physx10PxTriangleERKNS_2Gu3BoxERKNS_6PxVec3EfRNS_10PxSweepHitENS_7PxFlagsINS_9PxHitFlag4EnumEtEEbPKj
eIk:__ZL25UnresolvedVirtualCall_198P12Il2CppObject23SpriteState_t1353336012PK10MethodInfo
isg:_PointerEventData_set_clickTime_m3931922487
jWj:_WindowFunction__ctor_m977095815
RJg:_NumberFormatter_AppendNonNegativeNumber_m629862866
Dna:__ZNSt3__26vectorINS_4pairIN9ShaderLab16FastPropertyNameEN18UnityPropertySheet11UnityTexEnvEEENS_9allocatorIS6_EEE21__push_back_slow_pathIKS6_EEvRT_
cRa:__ZN15ArchiveReadFile5WriteEyPKvPy
t9j:_ResourceInfo__ctor_m2401359321_AdjustorThunk
tBf:_Hashtable__ctor_m392789568
KAj:_Mutex_CreateMutex_internal_m2352956576
_yj:_UTF7Encoding__cctor_m4192443836
Gcj:__Z73RuntimeInvoker_Boolean_t3825574718_Playable_t3667545548_Int32_t2071877448PK10MethodInfoPvPS2_
_ea:__ZN13RuntimeStaticI15ApplicationInfoE13StaticDestroyEPv
Xsc:__Z31GUIStyle_CUSTOM_SetFontInternalP12Il2CppObjectS0_
A:tempValue
Vbb:__Z29StdTemplateConversionFunctionIaiEbPvR14SafeBinaryRead
Snl:__ZN6il2cpp8metadata24Il2CppGenericContextHash4HashEPK20Il2CppGenericContext
yvb:__ZN15QualitySettings8TransferI18StreamedBinaryReadILb1EEEEvRT_
kNg:_Int16_System_IConvertible_ToSingle_m3277935657
S6:__Z29scripting_class_from_fullnamePKcS0_S0_
Ktg:_StandaloneInputModule_get_inputMode_m1415645893
mVc:__ZN10Collider2D23VirtualRedirectTransferER18StreamedBinaryReadILb1EE
wK:__ZZN8Animator15InitializeClassEvEN32FunctorImpl_386kTransformChanged4CallEPviR11MessageData
dvi:__ZL97GameObject_t1756533147_CustomAttributesCacheGenerator_GameObject_GetComponentInParent_m1235194528P21CustomAttributesCache
Zrj:_Raycast3DCallback_Invoke_m2271859924
LEi:__ZL98Graphic_t2426225576_CustomAttributesCacheGenerator_Graphic_set_useLegacyMeshGeneration_m3023904722P21CustomAttributesCache
h0c:__ZN5physx2Gu29ConvexVsMeshContactGeneration20generateLastContactsEv
rPc:__ZN14ParticleSystem7PRODUCEE18MemLabelIdentifier18ObjectCreationMode
ahd:__ZNK5physx2Gu22SupportMapRelativeImplINS0_4BoxVEE14doSupportSweepERKNS_6shdfnd3aos5Vec3VE
swl:__ZNSt3__220__get_up_to_n_digitsIcNS_19istreambuf_iteratorIcNS_11char_traitsIcEEEEEEiRT0_S5_RjRKNS_5ctypeIT_EEi
tT:__ZN11AudioSource19CreateOpenALRolloffEfff
fDe:_UNITY_FT_Stream_ReadAt
kwi:__ZL111Object_t1021602117_CustomAttributesCacheGenerator_Object_DestroyImmediate_m3563317232____allowDestroyingAssets1P21CustomAttributesCache
Cej:__Z132RuntimeInvoker_Void_t1841601450_Rect_t3681755626_Il2CppObject_Int32_t2071877448_Int32_t2071877448_Int32_t2071877448_SByte_t454417549PK10MethodInfoPvPS2_
DHd:__ZN5physx2Sc17ParticleSystemSim16getParticleStateEv
nfe:__ZN5physx6shdfnd5ArrayINS_25PxsCompoundContactManagerENS0_19ReflectionAllocatorIS2_EEE8recreateEj
xMi:_GUIStyle_get_lineHeight_m2132859383
qSb:__Z46EmitSerializationCommandsForManagedObjectFieldI18StreamedBinaryReadILb0EEEvRK18TransferField_InfoR32SerializationCommandQueueBuilderRP20AllowNameConversions
fkj:__Z102RuntimeInvoker_Int32_t2071877448_Il2CppObject_UIVertex_t1204258818_Int32_t2071877448_Int32_t2071877448PK10MethodInfoPvPS2_
yxi:__ZL82Physics2D_t2540166467_CustomAttributesCacheGenerator_Physics2D_Raycast_m1220041042P21CustomAttributesCache
Iig:_ReadOnlyCollection_1_System_Collections_Generic_IListU3CTU3E_RemoveAt_m2137782652_gshared
JSj:_UnityEvent_FindMethod_Impl_m3303953986
nj:_glReadBuffer
cFj:_UInt16_System_IConvertible_ToBoolean_m887616848
lKa:__Z26TransformVerticesInnerLoopILb1ELb1ELb1EEvPhRK10Matrix4x4fRK10Matrix3x3fjPKhiiiS8_ii25GfxTransformVerticesFlags
j6d:__ZN5physx14PxsAABBManagerC2ERNS_2Cm13EventProfilerERNS_19PxcScratchAllocatorE
jui:__ZL120ScriptableObject_t1975622470_CustomAttributesCacheGenerator_ScriptableObject_Internal_CreateScriptableObject_m1778903390P21CustomAttributesCache
UU:__ZN11AudioModule22CreateAudioClipFromWWWEP10IWWWStreamPKcbbi
tZi:__Z142RuntimeInvoker_Boolean_t3825574718_Il2CppObject_Int32_t2071877448_Il2CppObject_SByte_t454417549_UInt32U26_t2197289955_ExceptionU26_t1467204777PK10MethodInfoPvPS2_
A9e:_StringBuilder_set_Length_m3039225444
Edg:_Collection_1_System_Collections_IList_Contains_m3870109702_gshared
Bbf:_Array_InternalArray__ICollection_Contains_TisRaycastResult_t21186376_m3188614988_gshared
fJf:_CultureAwareComparer_GetHashCode_m3681260951
AOe:__Z13RegisterClassIN2UI11CanvasGroupEEvv
rAk:_U3CStartU3Ec__Iterator0__ctor_m951808111_gshared
Pf:_emscripten_glClear
gsj:_Selectable__ctor_m1440593935
c1a:__ZN15SHConstantCacheC2ER13BatchRendererR15RenderLoopStats
eQa:__ZN14dense_hash_mapINSt3__212basic_stringIcNS0_11char_traitsIcEE13stl_allocatorIcL18MemLabelIdentifier54ELi16EEEEP20ArchiveStorageReader11djb2_hash_tIS7_ENS0_8equal_toIS7_EES4_INS0_4pairIKS7_S9_EELS5_54ELi16EEE15set_deleted_keyERSF_
lzf:_SynchronizedArrayListWrapper_get_Count_m4104930530
Dbi:__ZL65Il2CppArray_CustomAttributesCacheGenerator_Array_Clear_m782967417P21CustomAttributesCache
pDl:___cxa_guard_abort
PMh:_CustomAttributeTypedArgument_t1498197914_marshal_pinvoke_back
e9:__ZN14MessageHandler28MessageIDToMessageIdentifierEi
brh:_HttpRequestCreator_Create_m3607509610
Jyi:__ZL50GUISkin_t1436893342_CustomAttributesCacheGeneratorP21CustomAttributesCache
mGk:__ZL24UnresolvedVirtualCall_98P12Il2CppObject8IntPtr_tPK10MethodInfo
k6f:_List_1_Shift_m3824049528_gshared
NDh:_ArrayFixupRecord__ctor_m3659990982
jjh:_Context_get_RandomCS_m3946020109
zai:__ZL72IntPtr_t_CustomAttributesCacheGenerator_IntPtr_op_Inequality_m3044532593P21CustomAttributesCache
szg:_Dropdown_get_onValueChanged_m3334401942
Mkl:__ZN6il2cpp2vm10WaitHandle19NewManualResetEventEb
sjg:_ReadOnlyCollection_1_System_Collections_IList_Contains_m3707723158_gshared
EWk:__ZNK15dense_hashtableINSt3__24pairIK10KeyWrapperIPK10Il2CppTypeEjEES6_N6il2cpp8metadata14Il2CppTypeHashEN14dense_hash_mapIS6_jSB_NSA_17Il2CppTypeCompareENS0_9allocatorIS8_EEE9SelectKeyESD_SF_E10test_emptyERK30dense_hashtable_const_iteratorIS8_S6_SB_SH_SD_SF_E
rni:__ZL95UnicodeEncoding_t4081757012_CustomAttributesCacheGenerator_UnicodeEncoding_GetBytes_m1575298215P21CustomAttributesCache
trk:_Nullable_1_ToString_m1238126148_AdjustorThunk
ee:emscriptenWebGLGetUniform
np:FUNCTION_TABLE_iiiiiiiiiii
o7c:__ZN5physx2Gu19sweepCapsuleCapsuleERKNS0_7CapsuleES3_RKNS_6PxVec3EfRfRS4_S8_jRt
L1d:__ZN5physx2Gu29EPASupportMapPairRelativeImplINS0_9TriangleVENS0_11ConvexHullVEED0Ev
Iua:__Z32TransferEnumWithNameForceIntSizeI14SafeBinaryRead13TextureFormatEvRT_RT0_PKc17TransferMetaFlags
mGi:__ZL86Scrollbar_t3248359358_CustomAttributesCacheGenerator_Scrollbar_ClickRepeat_m3403943364P21CustomAttributesCache
qTj:_Playables_CheckInputBounds_m2953342617
AXa:__ZL10CleanUpJobP20CullingGroupsJobData
hwf:_Convert_ToInt32_m3683486440
w2c:__ZN5physx2Gu22computeMTD_PlaneConvexERNS_6PxVec3ERfRKNS_7PxPlaneERKNS_20PxConvexMeshGeometryERKNS_11PxTransformE
Q$a:__Z20IsRunningNativeTestsv
J2j:_InternalEnumerator_1_System_Collections_IEnumerator_get_Current_m2035754659_AdjustorThunk
Aje:__ZN5physx13BigConvexData4LoadERNS_13PxInputStreamE
X4a:__ZN13RenderManager15BatchModeUpdateEv
MXk:__ZN15dense_hashtableINSt3__24pairIK10KeyWrapperINS1_IPK11Il2CppImageP11Il2CppClassEEEjEES9_17ReflectionMapHashIS8_EN14dense_hash_mapIS9_jSD_19ReflectionMapEqualsIS8_ENS0_9allocatorISB_EEE9SelectKeyESG_SI_E5clearEv
Rrk:_Predicate_1_EndInvoke_m973058386_gshared
Bvi:__ZL52LayerMask_t3188175821_CustomAttributesCacheGeneratorP21CustomAttributesCache
kqg:_RaycasterManager_RemoveRaycasters_m3465850111
fyb:__ZN14SafeBinaryRead21TransferSTLStyleArrayI13dynamic_arrayI8Vector2fLj4EEEEvRT_17TransferMetaFlags
yna:__ZN17PersistentManager51InstanceIDToLocalSerializedObjectIdentifierInternalEiR31LocalSerializedObjectIdentifier
WWh:_StrongNameKeyPair_System_Runtime_Serialization_IDeserializationCallback_OnDeserialization_m2330221363
xtd:__ZN5physx2Sc8ActorSim24postDominanceGroupChangeEv
o7i:__Z116RuntimeInvoker_Boolean_t3825574718_Il2CppObject_Int32_t2071877448_Int32_t2071877448_Il2CppObject_Int32U26_t455636984PK10MethodInfoPvPS2_
Id:_glVertexAttribIPointer
tIj:_UnhandledExceptionEventHandler_EndInvoke_m2207457167
PVk:__ZN15dense_hashtableINSt3__24pairIK10KeyWrapperINS1_IPK9FieldInfoP11Il2CppClassEEEjEES9_17ReflectionMapHashIS8_EN14dense_hash_mapIS9_jSD_19ReflectionMapEqualsIS8_ENS0_9allocatorISB_EEE9SelectKeyESG_SI_EC2ERKSL_j
v0h:_Dictionary_2_System_Collections_ICollection_get_IsSynchronized_m304009368_gshared
hKh:_HMAC_set_HashName_m457235014
pud:__ZN5physx2Cm8PtrTable5clearERNS0_22PtrTableStorageManagerE
CX:__ZNSt3__215basic_stringbufIcNS_11char_traitsIcEENS_9allocatorIcEEE7seekoffExNS_8ios_base7seekdirEj
Maf:_Array_InternalArray__ICollection_Contains_TisTableRange_t2011406615_m605506746_gshared
_Xf:_List_1_Sort_m785723827_gshared
cIf:_Decimal_op_Explicit_m729046406
_ad:__ZN5physx3Cct15ObstacleContext7releaseEv
GBg:_Graphic_OnEnable_m2900261811
X2d:__ZN5physx27solveFrictionBlockWriteBackEPKNS_23PxcSolverConstraintDescEjRNS_16PxcSolverContextEPNS_25PxcThresholdStreamElementEjPi
HIh:_CryptographicUnexpectedOperationException__ctor_m3552441227
tyf:_ArrayListWrapper_Clear_m321161741
KGg:_InputField_LineDownCharacterPosition_m2690468785
eDe:_UNITY_ft_glyphslot_alloc_bitmap
anj:__Z56RuntimeInvoker_ContentType_t1028629049_Int32_t2071877448PK10MethodInfoPvPS2_
Lmf:_Array_Sort_TisVector2_t2243707579_TisVector2_t2243707579_m2582252549_gshared
cHj:_UInt64_System_IConvertible_ToDouble_m2828923873
z2i:__Z45RuntimeInvoker_Il2CppObject_Int16_t4041245914PK10MethodInfoPvPS2_
JHk:__ZL25UnresolvedVirtualCall_175P12Il2CppObject20Playable_t3667545548S1_PK10MethodInfo
Vtj:_ScrollRect_set_verticalScrollbarVisibility_m2424788384
i1f:_List_1_System_Collections_IList_set_Item_m1129584681_gshared
AEe:_ft_raster1_render
Kmc:__Z57Register_UnityEngine_RectTransform_INTERNAL_set_anchorMaxv
cYf:_List_1_set_Capacity_m491101164_gshared
ABl:__ZNKSt3__221__basic_string_commonILb1EE20__throw_length_errorEv
O9e:_StringBuilder_Insert_m1733097906
iaj:__Z88RuntimeInvoker_Void_t1841601450_Il2CppObject_Int32_t2071877448_Il2CppObject_Il2CppObjectPK10MethodInfoPvPS2_
Ej:_JS_SystemInfo_GetMemory
j1k:__ZN14dense_hash_mapI10KeyWrapperINSt3__24pairIP11Il2CppClassjEEES4_N6il2cpp8metadata14ArrayClassHashENS8_17ArrayClassCompareENS1_9allocatorINS2_IKS6_S4_EEEEEC2EjRKS9_RKSA_
t8j:_Comparer_1__ctor_m1157133632_gshared
Pnh:_SslStreamBase_get_HashStrength_m480059173
EIa:__ZN18GfxFramebufferGLES13ReadbackImageER14ImageReferenceiiiiii
CWk:__ZN30dense_hashtable_const_iteratorINSt3__24pairIK10KeyWrapperIPK10Il2CppTypeEjEES6_N6il2cpp8metadata14Il2CppTypeHashEN14dense_hash_mapIS6_jSB_NSA_17Il2CppTypeCompareENS0_9allocatorIS8_EEE9SelectKeyESD_SF_EppEv
n$h:_ValueCollection_System_Collections_Generic_ICollectionU3CTValueU3E_Clear_m3271993638_gshared
N4:__ZN13RuntimeStaticI11WindManagerE13StaticDestroyEPv
Roa:__ZN6prcoreL12RemapGenericI17TexFormatARGB888815TexFormatRGB565EEvPKNS_9InnerInfoE
jP:__ZN4FMOD7Channel19setReverbPropertiesEPK29FMOD_REVERB_CHANNELPROPERTIES
F8:__ZN13MonoBehaviour22GetScriptFullClassNameEv
uUk:_il2cpp_object_get_class
ufe:__ZN5physx6shdfnd4sortIPNS_15PxsContactPatchENS_27SortBoundsPredicateManifoldENS0_19ReflectionAllocatorIS3_EEEEvPT_jRKT0_RKT1_j
Efi:__ZL111DerivedType_t1016359113_CustomAttributesCacheGenerator_DerivedType_MakeGenericType_m742223168____typeArguments0P21CustomAttributesCache
P_a:__ZN13BatchRendererC2ER15RenderLoopStatsRK15RenderNodeQueuebb
lrh:_ServicePointManager_FindServicePoint_m3137356168
Jj:_emscripten_glGetVertexAttribfv
Cta:__ZN20SphericalHarmonicsL211AddWeightedERKS_f
D4j:_InternalEnumerator_1_MoveNext_m725174512_gshared
VQd:__ZN5physx2Sc24ElementInteractionMarker12onDeactivateEj
Xsg:_PointerInputModule_GetPointerData_m1695674453
zMi:__Z14bankers_roundff
POb:__Z19TransferField_ArrayI17RemapPPtrTransfer27Converter_SimpleNativeClassI8GUIStyleEEvRK23StaticTransferFieldInfoR31RuntimeSerializationCommandInfoRT0_
X5:__ZL22StaticInitializeShaderPv
_If:_Convert_ToUInt64_m345450801
wrk:_Predicate_1_BeginInvoke_m2559992383_gshared
Vcl:__ZN6il2cpp2vm3RCW7CleanupEP15Il2CppComObject
Nyc:__ZN9JSONWrite8TransferI10ColorRGBAfEEvRT_PKc17TransferMetaFlags
nlj:__Z52RuntimeInvoker_Void_t1841601450_Keyframe_t1449471340PK10MethodInfoPvPS2_
Bpe:__ZN14PhysicsManager23VirtualRedirectTransferER19StreamedBinaryWriteILb0EE
zBl:__ZNSt13runtime_errorC2EPKc
Tmc:__Z35Register_UnityEngine_Resources_Loadv
cMb:__Z19TransferField_ArrayI14SafeBinaryRead16Converter_StringEvRK23StaticTransferFieldInfoR31RuntimeSerializationCommandInfoRT0_
dsl:_rename
ejl:_GC_exit_check
t_g:_NotSupportedException__ctor_m3232764727
Ts:__ZN7mecanim9animation9DenseClip8TransferI14SafeBinaryReadEEvRT_
Aqh:_TypeConverterAttribute_Equals_m2330345916
a1c:__ZNK5physx2Gu15OBBTriangleTest10obbTriTestERKNS_6PxVec3ES4_S4_
jEk:_moveStars__ctor_m100814441
v7:__Z20UnlockObjectCreationv
RKf:_DateTime_ToString_m1117481977
y9i:__Z55RuntimeInvoker_Il2CppObject_RegexOptionsU26_t3063574985PK10MethodInfoPvPS2_
MRg:_MonoIO_CreateDirectory_m379525469
jLb:__Z34scripting_class_array_element_sizeP11Il2CppClass
yD:__ZN9BlobWrite8TransferI22OffsetPtrArrayTransferI9OffsetPtrIN7mecanim12statemachine18StateMachineMemoryEEEEEvRT_PKc17TransferMetaFlags
BAe:_UNITY_ft_smooth_renderer_class_pic_free
U3f:_List_1_System_Collections_IList_Remove_m3763718607_gshared
YLj:_Bounds_get_center_m129401026
Gf:_emscripten_glStencilOpSeparate
X4e:_String_Concat_m2000667605
oQk:__ZN6il2cpp2os19SocketHandleWrapperC2ERKS1_
Hfl:__ZN6il2cpp2vm6String8NewUtf16EPKDsi
Qbl:__ZN6il2cpp2os10ThreadImpl12QueueUserAPCEPFvPvES2_
pBl:__ZNSt3__211__call_onceERVmPvPFvS2_E
jM:__Z32TransferEnumWithNameForceIntSizeI14SafeBinaryReadN10SampleClip17CompressionFormatEEvRT_RT0_PKc17TransferMetaFlags
Aye:__ZN20TextRenderingPrivate15DynamicFontData36GetFaceForCharacterIfAvailableInFontERKNS_7FontRefERKNSt3__26vectorI4PPtrIN13TextRendering4FontEE13stl_allocatorIS9_L18MemLabelIdentifier34ELi16EEEEj
$bd:__ZN5physx12PxControllerD2Ev
V6c:__ZNK5physx2Gu15HeightFieldUtil12traceSegmentI25CapsuleTraceSegmentReportLb0ELb0ELb1EEEvRKNS_6PxVec3ES6_PT_PS5_
G9c:__ZN5physx3Cct17CapsuleController13setStepOffsetEf
$Je:_UNITY_FT_Hypot
x7d:__ZN5physx10PxsContext23prepareCMDiscreteUpdateEPNS_10PxBaseTaskE
ftf:_BitConverter_ToInt64_m1329623425
a4b:__ZN8RendererC2E12RendererType18MemLabelIdentifier18ObjectCreationMode
Ull:__ZN6il2cpp2vm13ComObjectBaseINS0_13ManagedObjectE18Il2CppIInspectableNS0_7details6ComNilES5_S5_S5_S5_S5_S5_E6AddRefEv
Hmi:__ZL95ASCIIEncoding_t3022927988_CustomAttributesCacheGenerator_ASCIIEncoding_GetByteCount_m1396020051P21CustomAttributesCache
Std:__ZN5physx6shdfnd5ArrayIPvNS0_19ReflectionAllocatorINS_2Cm5BlockIhLj256EEEEEE4copyINS0_15InlineAllocatorILj256ES7_EEEEvRKNS1_IS2_T_EE
Ovl:__ZNSt3__28time_getIcNS_19istreambuf_iteratorIcNS_11char_traitsIcEEEEED2Ev
_f:_emscripten_glGetError
YP:__Z14FMOD_FILE_SeekPvjS_
mfk:_MethodCall_get_Properties_m1893707917
Wai:__ZL72Enum_t2459695545_CustomAttributesCacheGenerator_Enum_ToObject_m604645223P21CustomAttributesCache
xxd:__ZN5physx6shdfnd8PoolBaseINS_11NpAggregateENS0_19ReflectionAllocatorIS2_EEE15disposeElementsEv
aZh:_ShimEnumerator_get_Entry_m2387156530_gshared
h6c:__ZThn4_N16RayRTreeCallbackILi1ELb1EE14processResultsEjPj
CHk:__ZL25UnresolvedVirtualCall_168P12Il2CppObject19Vector3_t2243707580PK10MethodInfo
M5a:__ZNK13RenderTexture32CalculateNeedsInvertedProjectionEv
Oad:__ZN5physx2Gu17RadixSortBuffered4SortEPKfj
gg:emscriptenWebGLGet
YUi:_Rect_GetHashCode_m559954498_AdjustorThunk
v5b:__ZN12CubemapArray11InitTextureEiii13TextureFormatb
fpa:__ZN6prcoreL18BlitIntegerToFloatERK14ImageReferenceRS0_
nxi:__ZL93Physics_t634932869_CustomAttributesCacheGenerator_Physics_RaycastAll_m410413656____layerMask2P21CustomAttributesCache
Hsh:__ZN16VirtFuncInvoker1IP8String_tiE6InvokeEjPvi
xOa:__ZNK15Lz4Decompressor20DecompressStreamInitEPPv
L9f:_Collection_1_set_Item_m3803272710_gshared
fRi:_Mesh_SetUVs_m841280343
MVh:_MonoMethodInfo_t3646562144_marshal_pinvoke_cleanup
Fuh:_X509Certificate2_get_SignatureAlgorithm_m3069898012
arh:_HttpRequestCreator__ctor_m2513916021
Bgd:__ZN27ConvexVsMeshOverlapCallbackC2ERKN5physx2Gu10ConvexMeshERKNS0_11PxMeshScaleERKNS0_2Cm23FastVertex2ShapeScalingERKNS0_11PxTransformESE_bRKNS1_3BoxE
rcc:__Z18SetIParticleSystemP15IParticleSystem
hNi:_GUIStyle_INTERNAL_CALL_Internal_CalcSizeWithConstraints_m1203344891
iE:__ZN7mecanim5human13HumanFixTwistEPKNS0_5HumanEPNS_8skeleton13SkeletonPoseTIN4math4trsXEEES9_iiRKf
v0a:__ZL24AssignProjectorQueuesJobP30AssignProjectorQueuesJobHeader
rCj:_TimeSpan_get_Hours_m3804628138
MGk:__ZL25UnresolvedVirtualCall_124P12Il2CppObjectPK10MethodInfo
OAg:_FontData_set_alignByGeometry_m2819509290
bik:_Regex__ctor_m3250610064
m0b:__ZN9ShaderLab20SerializedSubProgram14SetConstBufferEPKci
MKc:__ZN11ShapeModule9ResetSeedERK27ParticleSystemReadOnlyState
$ah:_ArgumentNullException__ctor_m911049464
bUh:_TargetParameterCountException__ctor_m2760108938
wve:__ZN13PhysicsModule17SetRigidBodyStateER9RigidbodyRKN8IPhysics14RigidBodyStateE
ytk:_InvokableCall_4_Find_m1467690987_gshared
Zng:_Comparison_1_Invoke_m345024424_gshared
AGe:_cf2_getStdVW
clg:_ReadOnlyCollection_1_System_Collections_IList_Insert_m3936197025_gshared
MQf:_EventHandler_BeginInvoke_m3027583606
V$:__Z40DebugStringToFilePostprocessedStacktraceRK21DebugStringToFileData
z_d:__ZN5physx2Sq12BucketPruner11shiftOriginERKNS_6PxVec3E
Vwc:__Z29Transfer_Blittable_ArrayFieldI8JSONReadjEvRT_R9ArrayInfoRK23StaticTransferFieldInfo
j5j:_InternalEnumerator_1__ctor_m3220229132_AdjustorThunk
Rjd:__ZN5physx6shdfnd5ArrayIPNS_2Sc16ArticulationCoreENS0_19ReflectionAllocatorIS4_EEE15growAndPushBackERKS4_
eYi:_StateMachineBehaviour_OnStateEnter_m1095276890
aSi:_Object_GetInstanceID_m1920497914
Rdk:_ContextAttribute__ctor_m4006843177
yH:__ZN18StreamedBinaryReadILb1EE21TransferSTLStyleArrayI13dynamic_arrayI4PPtrI13AnimationClipELj4EEEEvRT_17TransferMetaFlags
j2j:_InternalEnumerator_1_get_Current_m314017974_AdjustorThunk
Og:__setLetterbox
Pna:__ZNSt3__26__treeINS_12__value_typeIN9ShaderLab16FastPropertyNameEfEENS_19__map_value_compareIS3_S4_NS_4lessIS3_EELb1EEENS_9allocatorIS4_EEE12__find_equalIS3_EERPNS_16__tree_node_baseIPvEENS_21__tree_const_iteratorIS4_PNS_11__tree_nodeIS4_SE_EEiEESH_RKT_
Vde:__ZN5physx19normalizePartitionsERNS_6shdfnd5ArrayIjNS0_19ReflectionAllocatorIjEEEEPNS_23PxcSolverConstraintDescEPKNS_13PxcSolverBodyEjjS5_
rvk:_TextGenerator_Populate_Internal_m1817393161
Udi:__ZL57CollectionBase_t1101587467_CustomAttributesCacheGeneratorP21CustomAttributesCache
X1c:__ZN18ContactCapsuleMesh20processTriangleCacheILj16EEEbRN5physx2Gu13TriangleCacheIXT_EEE
uzb:__ZNSt3__26vectorI17BlendShapeChannelNS_9allocatorIS1_EEE6assignINS_11__wrap_iterIPS1_EEEENS_9enable_ifIXaasr21__is_forward_iteratorIT_EE5valuesr16is_constructibleIS1_NS_15iterator_traitsISA_E9referenceEEE5valueEvE4typeESA_SA_
THg:_LayoutElement_set_preferredWidth_m3072758716
uuk:_UnityEvent_1_AddListener_m1708363187_gshared
oth:_AsnEncodedData_ToString_m724151831
m5a:__ZN11TimeManager11GetRealtimeEv
F8f:_Collection_1_System_Collections_IList_get_IsFixedSize_m2408637569_gshared
xtf:__ZN21InterfaceFuncInvoker1IdP12Il2CppObjectE6InvokeEjP11Il2CppClassPvS1_
yfd:__ZN5physx2Sc16InteractionScene25removeFromActiveActorListERNS0_5ActorE
wdc:__Z15WeldVertexArrayR13dynamic_arrayI8Vector3fLj4EERS_I13BoneInfluenceLj16EERS_ItLj2EES7_
lUh:_MonoMethodInfo_GetDeclaringType_m4186531677
rBh:_SoapTypeAttribute_SetReflectionObject_m1566293812
n4h:_DefaultComparer__ctor_m418731767_gshared
HF:__ZN4PPtrI6AvatarE8TransferI18StreamedBinaryReadILb0EEEEvRT_
eGc:__ZNK11MinMaxCurve20FindMinMaxIntegratedEv
Xbd:__ZN5physx3Ext21InertiaTensorComputer6rotateERKNS_7PxMat33E
sCk:_Enumerator_System_Collections_IEnumerator_Reset_m2573763156_AdjustorThunk
hDh:_RemotingServices_CreateClientProxy_m1631035355
IHj:_UInt64_ToString_m2892887310
XHk:__ZL25UnresolvedVirtualCall_189P12Il2CppObjectaPK10MethodInfo
_ce:__ZN5physx22PxcDiscreteNarrowPhaseERNS_18PxcNpThreadContextERNS_13PxcNpWorkUnitE
mua:_stbir_resize
cBb:__ZN4PPtrI4MeshE8TransferI14SafeBinaryReadEEvRT_
CTc:__ZN24b2ChainAndCapsuleContact6CreateEP9b2FixtureiS1_iP16b2BlockAllocator
_Oa:__Z37ReadDirectoryInfo_UnityWebAndUnityRawR12FileAccessorRKN20ArchiveStorageHeader6HeaderERNS1_13DirectoryInfoE
Ldf:_Array_InternalArray__IEnumerable_GetEnumerator_TisInt64_t909078037_m1219751804_gshared
C5:__ZNSt3__26__treeINS_12__value_typeIPKciEENS_19__map_value_compareIS3_S4_15compare_tstringIS3_ELb1EEENS_9allocatorIS4_EEE7destroyEPNS_11__tree_nodeIS4_PvEE
Oci:__ZL96RuntimeTypeHandle_t2330101084_CustomAttributesCacheGenerator_RuntimeTypeHandle_Equals_m452760426P21CustomAttributesCache
v3h:_Dictionary_2_ToTValue_m1381983709_gshared
k_g:_MulticastDelegate_KPM_m1592985119
wAl:__ZNSt3__26locale5__imp7installINS_5ctypeIcEEEEvPT_
cUi:_RaycastHit2D_get_collider_m2568504212_AdjustorThunk
ngg:_Collection_1_ConvertItem_m3941916604_gshared
mNe:__ZN2UI6Canvas26MarkAllNestedCanvasesDirtyEv
vKa:__ZN16GeometryJobTasks20ScheduleGeometryJobsER9GfxDevicePFvP15GeometryJobDataEPK22GeometryJobInstructionjb
wab:__ZN25PathNamePersistentManagerD2Ev
o7:__ZN17PersistentManager48IntegrateObjectAndUnlockIntegrationMutexInternalEi
XH:__ZN15SerializeTraitsI9OffsetPtrIN7mecanim9animation19Blend2dDataConstantEEE8TransferI18StreamedBinaryReadILb1EEEEvRS4_RT_
Mlg:_ReadOnlyCollection_1_System_Collections_IList_get_IsReadOnly_m3872065502_gshared
ggi:__ZL112TypeBuilder_t3308873219_CustomAttributesCacheGenerator_TypeBuilder_MakeGenericType_m4282022646____typeArguments0P21CustomAttributesCache
rpj:__Z89RuntimeInvoker_Il2CppObject_Scene_t1684909666_Scene_t1684909666_Il2CppObject_Il2CppObjectPK10MethodInfoPvPS2_
DXc:__ZN9b2Fixture11SynchronizeEP12b2BroadPhaseRK11b2TransformS4_
rJl:_emscripten_glGetFramebufferAttachmentParameteriv__wrapper
hVa:__ZN13RendererScene15InitializeUmbraEv
pKj:_AnimatorTransitionInfo_IsName_m2561957738_AdjustorThunk
nta:__Z28CalculateGlobalMatrixInverse23TransformAccessReadOnly
Xyc:__ZN4PPtrI6ObjectE8TransferI9JSONWriteEEvRT_
xyl:__ZNSt3__29money_putIwNS_19ostreambuf_iteratorIwNS_11char_traitsIwEEEEED0Ev
Ssg:_PointerEventData_ToString_m1218584363
bql:___ctype_toupper_loc
Yvf:_Char_System_IConvertible_ToChar_m1489061093_AdjustorThunk
gzj:_UTF7Encoding_GetCharCount_m2589913583
RHd:__ZNK5physx15PxsParticleData15getWorldBoundsVEv
GUa:_UNITY_png_write_sCAL_s
tAh:__ZN21InterfaceFuncInvoker0IP8String_tE6InvokeEjP11Il2CppClassPv
oUg:_MemoryStream_CalculateNewCapacity_m3533542025
TAi:__ZL66ExcludeFromDocsAttribute_t665825653_CustomAttributesCacheGeneratorP21CustomAttributesCache
T7c:__ZN12_GLOBAL__N_124HfTrianglesEntityReport27onEventEjPj
Pwf:_Char_IsUpper_m4083577610
pKd:__ZN5physx22NpParticleBaseTemplateINS_16PxParticleSystemENS_16NpParticleSystemEE17setStaticFrictionEf
UZj:_InternalEnumerator_1_Dispose_m318835130_AdjustorThunk
Nlk:_Uri_Reduce_m2577728307
SCj:_TimeSpan_Equals_m4102942751_AdjustorThunk
ilj:__Z59RuntimeInvoker_Void_t1841601450_X509ChainStatus_t4278378721PK10MethodInfoPvPS2_
m$h:_ValueCollection_System_Collections_Generic_ICollectionU3CTValueU3E_Add_m1903672223_gshared
Mzl:__ZNSt3__25ctypeIcE13classic_tableEv
zLc:__ZN15CollisionModule8AllocateERK27ParticleSystemReadOnlyStateR19ParticleSystemState
wM:__ZN4FMOD6SoundI7releaseEv
OMd:__ZN5physx20NpRigidActorTemplateINS_14PxRigidDynamicEE15setActorSimFlagEb
pBb:__ZN14SpriteRenderer13AwakeFromLoadE17AwakeFromLoadMode
utg:_MouseButtonEventData__ctor_m618518000
B7h:_EqualityComparer_1_get_Default_m3222318365_gshared
Pyl:__ZNKSt3__27codecvtIDic11__mbstate_tE5do_inERS1_PKcS5_RS5_PDiS7_RS7_
PPa:__ZN10MemoryFile9SetLengthEy
jJ:__ZN7mecanim10ValueArray8TransferI19StreamedBinaryWriteILb0EEEEvRT_
DLc:__ZN11ShapeModule17DidModifyMeshDataEv
gSc:__ZNK15b2RevoluteJoint10GetAnchorBEv
rad:__ZNK5physx3Cct26CharacterControllerManager16getNbControllersEv
di:_glTexStorage2D
$$b:__ZNK9ShaderLab10SubProgram14EnsureCompiledEv
XFh:_ObjectManager_RecordFixup_m3572285566
Rcf:_ExecuteEvents_CanHandleEvent_TisIl2CppObject_m1201779629_gshared
Lei:__ZL55DaylightTime_t3800227331_CustomAttributesCacheGeneratorP21CustomAttributesCache
qse:__ZN5physx7profile10DataBufferINS_6shdfnd6MutexTINS0_26WrapperReflectionAllocatorIhEEEENS0_14ScopedLockImplIS6_EEE17handleBufferFlushEPKhj
XCf:_SortedList_InitTable_m460350503
b$j:_InternalEnumerator_1_get_Current_m4279678504_AdjustorThunk
qr:__ZNK16LevelGameManager7GetNameEv
H8f:_Collection_1_System_Collections_IList_get_Item_m2415649949_gshared
XQh:_ILTokenInfo_t149559338_marshal_pinvoke_cleanup
Keg:_Collection_1_Remove_m2358120395_gshared
Vg:_JS_SystemInfo_HasWebGL
QSe:__ZN18UnityConnectClient15GetCloudServiceEv
pPb:__Z18Transfer_BlittableI24GenerateTypeTreeTransferLb0EiEvRK29SerializationCommandArgumentsR31RuntimeSerializationCommandInfo
Gge:__ZN5physx20PxsConstraintProjectEPKNS_13PxsConstraintEbf
xAd:__ZN5physx7NpShape7setFlagENS_11PxShapeFlag4EnumEb
lQk:__ZN6il2cpp2os19SocketHandleWrapperD2Ev
gTc:__ZN15b2CircleContact6CreateEP9b2FixtureiS1_iP16b2BlockAllocator
eJl:_emscripten_glBufferData__wrapper
rkb:__ZN10TagManager32RegisterDefaultTagsAndLayerMasksEv
GAk:_TweenRunner_1_StopTween_m2135918118_gshared
bdg:__ZN21InterfaceFuncInvoker1I22UILineInfo_t3621277874iE6InvokeEjP11Il2CppClassPvi
_$h:_ValueCollection_get_Count_m4142113966_gshared
Bzi:__ZL118AttributeHelperEngine_t958797062_CustomAttributesCacheGenerator_AttributeHelperEngine_GetRequiredComponents_m120894667P21CustomAttributesCache
Dce:__ZN5physx2Sc35ParticleElementRbElementInteraction12onDeactivateEj
bTj:_Playable_CheckInputBounds_m1095657528
Yvl:__ZNKSt3__220__time_get_c_storageIcE8__monthsEv
OAj:_SynchronizationLockException__ctor_m549086841
Oxf:_ArrayList_InsertRange_m1478230997
gDa:__ZN4gles8InitCapsEP7ApiGLESP12GraphicsCapsR16GfxDeviceLevelGL
Atf:__ZN21InterfaceFuncInvoker1IP8String_tP12Il2CppObjectE6InvokeEjP11Il2CppClassPvS3_
koa:__ZN6prcore14BlitImageFloatERK14ImageReferenceRS0_NS0_8BlitModeE
Asf:_Swapper_EndInvoke_m677693941
pob:__Z24CalculateVertexLightDataRK15SharedLightDataR14GfxVertexLight
tQi:_Matrix4x4_Equals_m1321236479_AdjustorThunk
Mi:_glEnable
Eib:__ZNK13Lz4Compressor29CalculateCompressedBufferSizeEj
dRk:__ZN6il2cpp2vm19SocketPollingThreadC2Ev
U_d:__ZN5physx2Sq10AABBPrunerC2Eb
_Gh:_RuntimeMethodHandle__ctor_m2437574937_AdjustorThunk
jWd:__ZN5physx2Sq8AABBTreeC2Ev
tFj:_UInt16_System_IConvertible_ToInt64_m2835280558_AdjustorThunk
S6g:__ZN18VirtActionInvoker2IP22ByteU5BU5D_t3397334013S1_E6InvokeEjPvS1_S1_
Yti:__ZL53g_UnityEngine_Assembly_CustomAttributesCacheGeneratorP21CustomAttributesCache
esk:_Predicate_1_BeginInvoke_m3926587117_gshared
JNc:__ZN11TrailModuleD2Ev
elc:__ZN13MonoBehaviour22StartCoroutineManaged2EP12Il2CppObject
xLh:_AssemblyName_get_Name_m1815759940
Pyg:_DefaultControls_CreateToggle_m1568873127
G5f:_List_1__cctor_m1022807427_gshared
Idi:__ZL63KeyNotFoundException_t1722175009_CustomAttributesCacheGeneratorP21CustomAttributesCache
f3h:_Dictionary_2_InitArrays_m2270022740_gshared
AEf:_Convert_ToBoolean_m2188088811
DRe:__ZN11UnityEngine7Connect15DeviceInfoEvent16CollectExtraInfoEv
q7i:__Z115RuntimeInvoker_Boolean_t3825574718_Il2CppObject_Int32_t2071877448_Il2CppObject_SByte_t454417549_Int32U26_t455636984PK10MethodInfoPvPS2_
TTj:_CustomAnimationPlayable__ctor_m2580931540
Ije:__ZN5physx2Gu10ConvexMeshD2Ev
Z9e:_UnicodeEncoding_GetChars_m3765282346
eQg:_IntPtr__ctor_m4104029105
lki:__ZL114BinaryFormatter_t1866979105_CustomAttributesCacheGenerator_BinaryFormatter_get_DefaultSurrogateSelector_m219714691P21CustomAttributesCache
Gbg:_Collection_1_Clear_m4150923953_gshared
hsl:_atol
Pkl:__ZN6il2cpp6icalls8mscorlib6System10Reflection9FieldInfo25internal_from_handle_typeE12Il2CppIntPtrS5_
XGf:_Convert_ToDouble_m4236754739
Umh:_SslClientStream_get_PrivateKeyCertSelectionDelegate_m3715949545
dAg:_Dropdown_CreateItem_m2702141380
pga:__ZNK6Sprite24GetRenderDataForPlayModeEv
pei:__ZL48Stack_t1043988394_CustomAttributesCacheGeneratorP21CustomAttributesCache
rp:FUNCTION_TABLE_viifi
up:FUNCTION_TABLE_viiff
Jdd:__ZNK5physx2Sc8ShapeSim10getBodySimEv
wUh:_MonoEvent_GetAddMethod_m4289563120
xci:__ZL37Type_t_CustomAttributesCacheGeneratorP21CustomAttributesCache
oKe:_UNITY_tt_face_free_hdmx
S$k:__ZN6il2cpp2vm14TypeNameParser5ParseEb
Nrj:_ReflectionMethodsCache__ctor_m1835220
kjl:_GC_check_finalizer_nested
dTj:_Playable_INTERNAL_CALL_IsValidInternal_m3509544226
s6i:__Z51RuntimeInvoker_Int16_t4041245914_Single_t2076509932PK10MethodInfoPvPS2_
Pdi:__ZL71SynchronizedArrayListWrapper_t3317806524_CustomAttributesCacheGeneratorP21CustomAttributesCache
Wtd:__ZN5physx6shdfnd5ArrayIPvNS0_19ReflectionAllocatorINS_2Cm5BlockIhLj128EEEEEE15growAndPushBackERKS2_
YUe:__ZN23UnityPurchasingSettingsC2Ev
rPf:_Double_ToString_m1864290157
k9a:__ZNK9Transform13GetWorldScaleEv
R1j:_InternalEnumerator_1_get_Current_m4154059426_AdjustorThunk
Yid:__ZN5physx2Sc11Interaction10onActivateEj
C6c:__ZNK5physx2Gu29EPASupportMapPairRelativeImplINS0_4BoxVENS0_11ConvexHullVEE6getDirEv
dBd:__ZN5physx14NpShapeManager15setupSceneQueryERNS_2Sq17SceneQueryManagerERKNS_12PxRigidActorERKNS_7NpShapeE
Qca:__ZNSt3__26__treeINS_12__value_typeI18VertexChannelsInfo16MeshVertexFormatEENS_19__map_value_compareIS2_S4_NS_4lessIS2_EELb1EEE13stl_allocatorIS4_L18MemLabelIdentifier16ELi16EEE12__find_equalIS2_EERPNS_16__tree_node_baseIPvEENS_21__tree_const_iteratorIS4_PNS_11__tree_nodeIS4_SF_EEiEESI_RKT_
xeg:_Collection_1_System_Collections_IList_get_Item_m1122792492_gshared
sua:__ZL37stbir__resample_horizontal_downsampleP11stbir__infoiPf
s3i:__Z78RuntimeInvoker_IntPtr_t_Il2CppObject_Int32U26_t455636984_ModuleU26_t4102634234PK10MethodInfoPvPS2_
Rra:__ZNK5Unity9Component38MarkGameObjectAndComponentDependenciesER27GarbageCollectorThreadState
Bge:__ZN22ScAfterIntegrationTask11runInternalEv
Hld:__ZNK5physx2Sc9ClothCore23getExternalAccelerationEv
QTa:_UNITY_png_write_data
LT:__ZNK7Texture21GetShadowSamplingModeEv
G5c:__ZN5physx2Gu13coarseCullingERKNS_6PxVec3ES3_ffRKNS_10PxTriangleE
K0:__ZN13ScreenManager21OnWindowRegainedFocusEv
BTb:__Z18Transfer_BlittableI18StreamedBinaryReadILb0EELb1EdEvRK29SerializationCommandArgumentsR31RuntimeSerializationCommandInfo
wNj:_WillRenderCanvases_BeginInvoke_m1914028027
MSg:_FileStream_get_CanRead_m4148920720
ZXk:__ZN6il2cpp2gc19AppendOnlyGCHashMapINSt3__24pairIPK12PropertyInfoP11Il2CppClassEEP24Il2CppReflectionProperty17ReflectionMapHashIS9_E19ReflectionMapEqualsIS9_EE11TryGetValueERKS9_PSB_
dde:__ZN5physx2Sc5Scene29processNarrowPhaseTouchEventsEv
yFa:__ZN4crnd12symbol_codec32decode_receive_static_data_modelERNS_25static_huffman_data_modelE
zUj:_Playables_GetTimeValidated_m788360268
gqb:__ZN18ScriptingArguments8AddFloatEf
eLg:_GregorianCalendar_set_CalendarType_m2438362222
gyg:_FloatTween_get_targetValue_m2120061648_AdjustorThunk
NTj:_AnimatorControllerPlayable_get_node_m127621219_AdjustorThunk
Slj:__Z71RuntimeInvoker_Void_t1841601450_Int32_t2071877448_UriScheme_t1876590943PK10MethodInfoPvPS2_
Lbf:_Array_InternalArray__ICollection_Contains_TisVector2_t2243707579_m3625698589_gshared
Knd:__ZN5physx6shdfnd5ArrayIPvNS0_15InlineAllocatorILj256ENS0_19ReflectionAllocatorINS_18NpArticulationLinkEEEEEE15growAndPushBackERKS2_
iyc:__Z18Transfer_BlittableI9JSONWriteLb0EaEvRK29SerializationCommandArgumentsR31RuntimeSerializationCommandInfo
QW:__ZN11UnityEngine15CloudWebService14DataDispatcher34OnSessionContainerArchivedAndReadyERNS0_16SessionContainerE
tUc:__ZN7b2World11CreateJointEPK10b2JointDef
hHb:__ZN13EmscriptenWWW10OnResponseEPviS0_jPc
_Cl:__ZNSt13runtime_errorD0Ev
yCc:__ZN23ParticleSystemParticles20SetUsesTriggerEventsEb
ebd:__ZNK5physx3Cct15ObstacleContext11getObstacleEj
Hgh:_CipherSuiteCollection__ctor_m2154226461
LQb:__Z18Transfer_BlittableI19StreamedBinaryWriteILb0EELb0E8Vector3fEvRK29SerializationCommandArgumentsR31RuntimeSerializationCommandInfo
bVi:_RectOffset__ctor_m2227510254
lLj:_AudioClip_get_length_m3881628918
XBe:_gray_move_to
RVk:__ZN15dense_hashtableINSt3__24pairIK10KeyWrapperINS1_IPK9FieldInfoP11Il2CppClassEEEjEES9_17ReflectionMapHashIS8_EN14dense_hash_mapIS9_jSD_19ReflectionMapEqualsIS8_ENS0_9allocatorISB_EEE9SelectKeyESG_SI_ED2Ev
_1a:__Z34GetNonInterpolatedLightAttenuationRK17LightProbeContextjPK15SharedLightData
CSj:_UnityAction_BeginInvoke_m407736228
Lfg:_Collection_1_System_Collections_IEnumerable_GetEnumerator_m4174600764_gshared
$ek:_ConstructionCall_InitDictionary_m4046452035
EYk:__ZN6il2cpp2vm10Reflection14GetEventObjectEP11Il2CppClassPK9EventInfo
ngj:__Z43RuntimeInvoker_VerticalWrapMode_t3668245347PK10MethodInfoPvPS2_
$hh:_TlsStream_Write_m2271546135
H2:__ZN20LocalFileSystemPosixD0Ev
Lfc:__Z23GetGlobalBoolPreferencePKcb
rSf:_CultureInfo_ConstructInternalLocaleFromCurrentLocale_m1342751405
M6i:__Z50RuntimeInvoker_UInt16_t986882611_Int16_t4041245914PK10MethodInfoPvPS2_
dDc:__Z25GetTransformationMatricesPN4math8float3x3ES1_bbRK10Matrix4x4fS4_
Ehb:__ZN21AssetBundleFileSystem5WriteER13FileEntryDatayPvPy
s9e:_Latin1Encoding_GetString_m3553289597
XJc:__ZN4PPtrI14ParticleSystemE8TransferI19StreamedBinaryWriteILb0EEEEvRT_
XOc:__ZL22DrawParticlesWithPivotILb1EEvPhRK22ParticleSystemTempDataRK26ParticleSystemRendererData32ParticleSystemGeometryJobModulesRK23ParticleSystemParticlesRK31ParticleSystemParticlesTempData
JZd:__ZN5physx13IslandManager6resizeEj
tDe:_tt_cmap_init
yb:invoke_viidi
gVf:_Enumerator_System_Collections_IEnumerator_get_Current_m3461301268_gshared
XXh:_Enumerator_get_Current_m1020413567_AdjustorThunk
uYf:_List_1_System_Collections_IList_get_IsFixedSize_m1122077912_gshared
Bmj:__Z48RuntimeInvoker_Link_t865133271_Int32_t2071877448PK10MethodInfoPvPS2_
W2b:__ZN9TextAssetC2E18MemLabelIdentifier18ObjectCreationMode
Cid:__ZN5physx6shdfnd8PoolBaseINS_2Cm5BlockIPvLj16EEENS0_19ReflectionAllocatorIS5_EEE17releaseEmptySlabsEv
oXf:_List_1_System_Collections_ICollection_CopyTo_m2020941110_gshared
$Qj:_Display_RecreateDisplayList_m3412638488
bqi:__ZL79Convert_t2607082565_CustomAttributesCacheGenerator_Convert_ToUInt64_m2215781574P21CustomAttributesCache
boj:__Z52RuntimeInvoker_KeyValuePair_2_t38854645_Il2CppObjectPK10MethodInfoPvPS2_
cSb:__ZN19StreamedBinaryWriteILb0EE21TransferSTLStyleArrayINSt3__26vectorINS2_12basic_stringIcNS2_11char_traitsIcEE13stl_allocatorIcL18MemLabelIdentifier1ELi16EEEES7_ISA_LS8_1ELi16EEEEEEvRT_17TransferMetaFlags
gPl:_emscripten_glCheckFramebufferStatus__wrapper
Qbd:__ZL20updateMassAndInertiabRN5physx11PxRigidBodyEPKfjPKNS_6PxVec3Eb
xvc:__Z18Transfer_BlittableI8JSONReadLb0EdEvRK29SerializationCommandArgumentsR31RuntimeSerializationCommandInfo
Ase:__ZN5physx24NpPtrTableStorageManagerC2Ev
lH:__ZN7mecanim9animation21BlendTreeNodeConstant35Transfer_4_0_BackwardsCompatibilityI14SafeBinaryReadEEvRT_
POl:_glCreateShader__wrapper
PQe:__Z44Register_UnityEngine_Canvas_set_sortingOrderv
gBj:_Thread_ClrState_m822263449
c1g:_SimpleCollator_LastIndexOfOrdinalIgnoreCase_m550798345
aVk:__ZN15dense_hashtableINSt3__24pairIK10KeyWrapperINS1_IPK14Il2CppAssemblyP11Il2CppClassEEEjEES9_17ReflectionMapHashIS8_EN14dense_hash_mapIS9_jSD_19ReflectionMapEqualsIS8_ENS0_9allocatorISB_EEE9SelectKeyESG_SI_E13clear_deletedER30dense_hashtable_const_iteratorISB_S9_SD_SK_SG_SI_E
CQk:__ZN6il2cpp2vm21ThreadPoolCompartment13QueueWorkItemEP17Il2CppAsyncResult
xn:FUNCTION_TABLE_viiiiiifiii
Eya:__ZNK9GfxDevice13GetViewMatrixEv
zSd:__ZN5physx7NpScene15flushSimulationEb
rzd:__ZN5physx6shdfnd8PoolBaseINS_10NpMaterialENS0_19ReflectionAllocatorIS2_EEE12allocateSlabEv
laa:__ZN8TypeTree8BlobReadERPKhS1_ib
ogc:__Z36CreateScriptingArrayFromUnityObjectsI13dynamic_arrayIP6ObjectLj4EEEP11Il2CppArrayRKT_i
msa:__ZN18LoadSceneOperation23GetAllowSceneActivationEv
wja:__ZN15SerializeTraitsI14ConstantStringE8TransferI19StreamedBinaryWriteILb0EEEEvRS0_RT_
lqa:__ZN11prophecysdk4half7convertEi
wlb:__ZN6CameraD0Ev
D2g:_ModulusRing_Multiply_m386339435
fea:__ZN31CanvasBatchIntermediateRenderer16StaticInitializeEPv
DCg:_GraphicRaycaster_U3CRaycastU3Em__0_m3971200721
Uig:_ReadOnlyCollection_1_System_Collections_IList_RemoveAt_m3004588099_gshared
DGf:_Decimal_op_Implicit_m4246329390
bbh:_ArgumentNullException__ctor_m2252076819
u7a:__ZN10GameObjectC2E18MemLabelIdentifier18ObjectCreationMode
_Ae:_raccess_guess_apple_double
Nwk:_Transform_INTERNAL_set_localScale_m3680777866
Aph:_ListDictionary_GetEnumerator_m1511032609
IOh:_TypeBuilder_get_FullName_m1626507516
sFh:_SerializationInfo__ctor_m4016423422
FGa:__ZL18ProgramUniform1uivPK7ApiGLESjiihPKv
lFc:__ZN27ShapeModulePropertyBindings13GetFloatValueERK14ParticleSystemi
G5b:__ZN14Texture2DArray13RebuildMipMapEv
lLk:__ZN13Il2CppHashSetIPK17Il2CppGenericInstN6il2cpp8metadata21Il2CppGenericInstHashENS4_24Il2CppGenericInstCompareENSt3__29allocatorI10KeyWrapperIS2_EEEEC2EjRKS5_RKS6_
FLb:__Z18Transfer_BlittableI14SafeBinaryReadLb1EaEvRK29SerializationCommandArgumentsR31RuntimeSerializationCommandInfo
sdl:__ZN6il2cpp2gc16GarbageCollector14RemoveWeakLinkEPPv
n0b:__ZN9ShaderLab20SerializedSubProgram14AddVectorParamEPKcii15ShaderParamTypei
WOe:__ZN2UI14CanvasRenderer12CleanupClassEv
Grd:__ZNK5physx19NpRigidBodyTemplateINS_18PxArticulationLinkEE27getMinCCDAdvanceCoefficientEv
dmg:_ReadOnlyCollection_1_System_Collections_IEnumerable_GetEnumerator_m1734360860_gshared
R4h:_DefaultComparer__ctor_m1052417779_gshared
w2e:_SystemException__ctor_m2688248668
I9j:_ResourceSet_ReadResources_m1669023823
A8g:_PKCS12_RemoveCertificate_m1590055870
P$k:__ZN6il2cpp2vm6Thread7SetNameEP12Il2CppThreadP12Il2CppString
Lfi:__ZL117GenericTypeParameterBuilder_t1370236603_CustomAttributesCacheGenerator_GenericTypeParameterBuilder_Equals_m2498927509P21CustomAttributesCache
Lwi:__ZL107Collision_t2876846408_CustomAttributesCacheGenerator_Collision_t2876846408____frictionForceSum_PropertyInfoP21CustomAttributesCache
mq:__ZN6Object23VirtualRedirectTransferER19StreamedBinaryWriteILb1EE
Vfa:__ZN13ScreenManager18SetAllowCursorLockEb
aGb:__ZN30RuntimeInitializeOnLoadManager15ClassMethodInfo8TransferI14SafeBinaryReadEEvRT_
D7k:__ZNK15dense_hashtableINSt3__24pairIK10KeyWrapperINS1_IPKcS4_EEEiEES6_24NamespaceAndNamePairHashN14dense_hash_mapIS6_iS9_26NamespaceAndNamePairEqualsNS0_9allocatorIS8_EEE9SelectKeyESB_SD_E13find_positionERS7_
$ld:__ZNK5physx2Sc10ClothShape8isActiveEv
YBc:__ZN23ParticleSystemParticles14element_assignEjj
LIb:__ZN9TextAsset8TransferI14SafeBinaryReadEEvRT_
HHi:__ZL73CanvasScaler_t2574720772_CustomAttributesCacheGenerator_m_ScreenMatchModeP21CustomAttributesCache
rV:__ZL22InitializeModule_Audiov
m_d:__ZN5physx2Sq11PruningPoolD0Ev
WVc:__ZN16Physics2DManager13DynamicUpdateEv
adb:__ZN16MemoryFileSystem8IsLockedERK13FileEntryData
e6d:__ZN3MBP15removeBoxPrunerEj
sxk:_Vector2_get_Item_m2792130561_AdjustorThunk
dUh:_MonoCMethod_Invoke_m931478014
P9j:_SatelliteContractVersionAttribute__ctor_m2605651717
ul:_emscripten_glBindRenderbuffer
Jsc:__Z32GUIStyle_Set_Custom_PropClippingP12Il2CppObjecti
O7e:_DecoderExceptionFallbackBuffer_GetNextChar_m1727394816
$il:_GC_dirty_init
Mrf:_Array_Copy_m1969461849
xEh:_MessageFormatter_ReadMethodResponse_m4134629501
tal:__ZN6il2cpp2vm5Field14GetValueObjectEP9FieldInfoP12Il2CppObject
f8e:_EncoderExceptionFallback_GetHashCode_m2071009120
zQf:_Environment_get_OSVersion_m1247315981
l0a:__ZN23ForwardShaderRenderLoop23RenderForwardShadowMapsEPK11ActiveLightbN6Camera10RenderFlagER17ShaderPassContext
e3c:__ZL15SweepBoxCapsulePKN5physx3Cct9SweepTestEPKNS0_11SweptVolumeEPKNS0_11TouchedGeomERKNS_14PxExtendedVec3ERKNS_6PxVec3ERNS0_12SweptContactE
hda:__ZN6Object17FindObjectsOfTypeEPKN5Unity4TypeER13dynamic_arrayIPS_Lj4EEb
p9b:__ZNSt3__26vectorINS_4pairIiiEE13stl_allocatorIS2_L18MemLabelIdentifier1ELi16EEE21__push_back_slow_pathIKS2_EEvRT_
Axh:_Capture_get_Length_m1952322390
czc:__ZN9JSONWrite8TransferI4PPtrI9Texture2DEEEvRT_PKc17TransferMetaFlags
Cwl:__ZNKSt3__220__time_get_c_storageIwE7__weeksEv
kJb:__ZN13MonoBehaviour17RemoveFromManagerEv
hga:__ZN14GraphicsHelper5ClearEjRK10ColorRGBAffjR17ShaderPassContext
Khe:__ZN5physx2Sc19ParticlePacketShapeD2Ev
dPe:__ZL23RegisterModuleICalls_UIv
Mvb:__ZL11DecodeValuePPKcS0_
uZh:_ShimEnumerator_MoveNext_m2013866013_gshared
$_:__ZN13MemoryManagerC2Ev
Vbc:__ZN12SkinMeshInfo10DeallocateEPS_
Twk:_Transform_SetParent_m1963830867
tw:__ZN15SerializeTraitsI22OffsetPtrArrayTransferIN7mecanim13ValueConstantEEE8TransferI19StreamedBinaryWriteILb0EEEEvRS3_RT_
pRa:__ZN20ArchiveStorageReader28AcquireAndPrefillUnusedBlockEjPNS_11CacheResultE
u9f:__ZN21InterfaceFuncInvoker1I40CustomAttributeTypedArgument_t1498197914iE6InvokeEjP11Il2CppClassPvi
P7i:__Z78RuntimeInvoker_Il2CppObject_SByte_t454417549_SByte_t454417549_SByte_t454417549PK10MethodInfoPvPS2_
z5b:__Z12NHxRoughnessIA4_tEvP9Texture2DPT_iiii
awk:_Touch_get_phase_m196706494_AdjustorThunk
jgk:_MethodDictionary_get_SyncRoot_m673971424
j9:__ZN16ScriptingManager27NativeTypeForScriptingClassEP11Il2CppClass
Fda:__ZN18AsyncUploadManagerD2Ev
Gwb:__ZN9Transform5ResetEv
vPb:__Z22TransferField_NonArrayI24GenerateTypeTreeTransfer16Converter_StringEvRK23StaticTransferFieldInfoR31RuntimeSerializationCommandInfoRT0_
qIb:__ZN9TextAsset9SetScriptERK8UnityStr
xPc:__ZL35RegisterModuleICalls_ParticleSystemv
Nfa:__Z17MainLoopKeepalivePv
tld:__ZN5physx7NpScene16addActorInternalERNS_7PxActorE
Mgk:_MatchCollection__ctor_m1944681790
OVe:_HMACSHA512__ctor_m1667460019
rXa:__Z24ScheduleCullingAllGroupsR8JobFenceRK22SceneCullingParameters4PPtrI6CameraERK13CullingOutputRK13dynamic_arrayIP12CullingGroupLj4EERKS_
b$e:_ToBase64Transform_get_OutputBlockSize_m949275583
$Zg:_MonoType_ToString_m473949831
xWa:__Z14CalcHullBoundsPK8Vector3fPKhhRK5PlaneRK10Matrix4x4fR10MinMaxAABB
mCh:_RealProxy__ctor_m2147093603
YTi:_RaycastHit2D_get_point_m442317739_AdjustorThunk
tWb:__ZN11PreloadData39ShouldIgnoreInGarbageDependencyTrackingEv
K3f:_List_1__ctor_m3511181530_gshared
c$a:__Z19SetupLODFadeKeywordR17ShaderPassContexti
YCe:_UNITY_FT_Stream_ReadFields
djg:_ReadOnlyCollection_1_get_Count_m2180604490_gshared
VKg:_DateTimeFormatInfo_GetAllDateTimePatternsInternal_m1587126173
Fhl:_GC_set_fl_marks
$Ia:__ZL25CheckCopyTextureArgumentsRK7ApiGLESP11GLESTextureS3_
zFc:__ZN24UVModulePropertyBindings13AddPropertiesER10vector_mapIi22ParticleModulePropertyNSt3__24lessIiEENS2_9allocatorINS2_4pairIiS1_EEEEE
Ada:__ZN13dynamic_arrayI26EnlightenSystemInformationLj8EE6insertEPS0_PKS0_S4_
QCe:_tt_name_entry_ascii_from_utf16
m_g:_MulticastNotSupportedException__ctor_m2164514827
BJf:_DateTime_System_IConvertible_ToChar_m2489529194_AdjustorThunk
gQb:__Z29Transfer_Blittable_ArrayFieldI24GenerateTypeTreeTransferyEvRT_R9ArrayInfoRK23StaticTransferFieldInfo
FXf:__ZN23InterfaceActionInvoker2IP24ObjectU5BU5D_t3614634134iE6InvokeEjP11Il2CppClassPvS1_i
Fpe:__ZN14PhysicsManager23VirtualRedirectTransferER18StreamedBinaryReadILb1EE
BP:__ZN4FMOD7SystemI9playSoundE17FMOD_CHANNELINDEXPNS_5SoundEbPPNS_7ChannelE
vve:__ZN13PhysicsModule31GetColliderComponentsInChildrenERK10GameObjectbbR13dynamic_arrayIPN5Unity9ComponentELj4EE
OBi:__ZL78ExecuteEvents_t1693084770_CustomAttributesCacheGenerator_U3CU3Ef__mgU24cache10P21CustomAttributesCache
a3:__GLOBAL__sub_I_runtime_graphics_mesh2_lump_cpp
mAi:__ZL68PreferBinarySerialization_t2472773525_CustomAttributesCacheGeneratorP21CustomAttributesCache
RCd:__ZNK5physx7NpCloth16getStretchConfigENS_22PxClothFabricPhaseType4EnumE
JTj:_AnimationPlayableUtilities_SetInputValidated_m2748997465
Xv:__ZN18StreamedBinaryReadILb0EE21TransferSTLStyleArrayI13dynamic_arrayI12PPtrKeyframeLj4EEEEvRT_17TransferMetaFlags
ZWf:_List_1_Remove_m2616693989_gshared
Tyb:__ZN10VertexData13SwapEndianessEv
xsl:_realloc
CEc:__ZN27ColorModulePropertyBindings13GetFloatValueERK14ParticleSystemi
Ioc:__Z57Register_UnityEngine_Transform_INTERNAL_get_localRotationv
OFb:__ZN30RuntimeInitializeOnLoadManager23VirtualRedirectTransferER17RemapPPtrTransfer
_Fl:dynCall_viif
PUh:_MonoField_get_DeclaringType_m1591666235
zYj:_InternalEnumerator_1__ctor_m2111763266_AdjustorThunk
Vzh:_Enumerator_MoveNext_m4234629003
v$a:__ZN29MotionVectorRenderLoopScratchD2Ev
Ivg:_ButtonClickedEvent__ctor_m938038541
Dge:__ZN5physx2Sc24ConstraintProjectionTree11projectPoseERNS0_19ConstraintGroupNodeE
NNb:__ZL26Transfer_SimpleNativeClassI17RemapPPtrTransfer8GradientLb0EEvRK29SerializationCommandArgumentsR31RuntimeSerializationCommandInfo
QB:__ZN17AnimationPlayable26DisconnectNoTopologyChangeEPS_i
JRk:__ZN6il2cpp6icalls8mscorlib6System8MonoType14get_attributesEP20Il2CppReflectionType
qgb:__Z43DestroyWithoutLoadingButDontDestroyFromFilei
Dve:__ZN13PhysicsModule29GetColliderMaterialInstanceIDER8Collider
cZg:_MonoType_GetDefaultConstructor_m925465120
ird:__ZNK5physx20NpRigidActorTemplateINS_18PxArticulationLinkEE14getConstraintsEPPNS_12PxConstraintEjj
UOe:__ZZN2UI14CanvasRenderer15InitializeClassEvEN34FunctorImpl_802kCanvasGroupChanged4CallEPviR11MessageData
gEl:dynCall_viiiiiffi
Cxi:__ZL95Physics2D_t2540166467_CustomAttributesCacheGenerator_Physics2D_Raycast_m2303387255____distance2P21CustomAttributesCache
Zc:_emscripten_glBlendFuncSeparate
lQh:_GenericTypeParameterBuilder_IsPrimitiveImpl_m1198748291
C6:__Z20scripting_string_newPKc
$mc:__Z43Material_CUSTOM_Internal_CreateWithMaterialP12Il2CppObjectS0_
bmc:__Z86Register_UnityEngine_Experimental_Director_Playable_INTERNAL_CALL_SetPlayStateInternalv
FRg:_Directory_GetCurrentDirectory_m44486537
k3i:__Z45RuntimeInvoker_RuntimeFieldHandle_t2331729674PK10MethodInfoPvPS2_
E7k:__ZNK24NamespaceAndNamePairHashclERKNSt3__24pairIPKcS3_EE
BMk:__ZNK15dense_hashtableINSt3__24pairIK10KeyWrapperINS0_12basic_stringIcNS0_11char_traitsIcEENS0_9allocatorIcEEEEEP11Il2CppClassEES9_N6il2cpp5utils11StringUtils12StringHasherIS8_EEN14dense_hash_mapIS9_SC_SI_NS0_8equal_toIS9_EENS6_ISD_EEE9SelectKeyESL_SM_E5beginEv
Pfb:__ZN29AssetBundleLoadAssetOperation34CollectFullPreloadDataDependenciesER13dynamic_arrayIiLj4EE
Y6f:_Collection_1_System_Collections_ICollection_CopyTo_m1047946700_gshared
yoj:__Z36RuntimeInvoker_Enumerator_t975728254PK10MethodInfoPvPS2_
MHf:_Convert_ToInt64_m4057339019
Ird:__ZNK5physx19NpRigidBodyTemplateINS_18PxArticulationLinkEE27getMaxDepenetrationVelocityEv
vth:_AsnEncodedData_Default_m4197142414
Eke:__ZThn8_N5physx2Gu11HeightFieldD1Ev
b2k:__ZNSt3__218uninitialized_copyIPNS_4pairIK10KeyWrapperIP11Il2CppClassES4_EES8_EET0_T_SA_S9_
aNd:__ZN5physx19NpRigidBodyTemplateINS_14PxRigidDynamicEED0Ev
ypd:__ZNK5physx19PxArticulationJoint19getConcreteTypeNameEv
lN:__ZN17AudioCustomFilterD2Ev
Frc:__ZN11IMGUIModule26SetDeveloperConsoleVisibleEb
mrc:__ZNK8GUIStyle13GetLineHeightEv
bIa:__ZN18GfxFramebufferGLES18ReleaseFramebufferEP17RenderSurfaceBaseP14GfxContextGLES
edk:_Context_GetDynamicPropertyCollection_m1987747444
Iuh:_X509Certificate2_get_Version_m1927399907
Hwc:__Z18Transfer_BlittableI8JSONReadLb1EiEvRK29SerializationCommandArgumentsR31RuntimeSerializationCommandInfo
jEg:_Image_RadialCut_m3229543088
UZ:__ZN19CloudServiceHandler34HandleSaveFileWebRequestPlayerLoopEv
rC:__ZN7mecanim21ValueArrayReverseCopyEPKNS_18ValueArrayConstantEPKNS_10ValueArrayES2_PS3_PKi
bN:__Z31GetParentSampleClipFromInstancePN11SoundHandle8InstanceE
D3b:__ZNK28RectTransformPropertyBinding13GetFloatValueERKN11UnityEngine9Animation10BoundCurveE
F8c:__ZN5physx11PxHitBufferINS_12PxOverlapHitEE14processTouchesEPKS1_j
gOd:__ZL22addOrRemoveRigidObjectILb0ELb0ELb0ELb1EN5physx3Scb11RigidStaticEEvRNS0_2Sc5SceneERT3_b
tol:__ZN6il2cpp2os16ThreadLocalValue8GetValueEPPv
y4j:_InternalEnumerator_1_System_Collections_IEnumerator_Reset_m196087328_AdjustorThunk
ecg:__ZN18VirtActionInvoker2Ii22UICharInfo_t3056636800E6InvokeEjPviS0_
mn:FUNCTION_TABLE_iiiiifiif
b_e:_SHA384Managed_Initialize_m712692291
uZj:_InternalEnumerator_1__ctor_m2688327768_gshared
_Rf:_CompareInfo_get_LCID_m3346446356
Fbg:_Collection_1_Add_m123318341_gshared
Mhi:__ZL60CallingConvention_t3354538265_CustomAttributesCacheGeneratorP21CustomAttributesCache
$$e:__ZN21InterfaceFuncInvoker2IP8String_tS1_P12Il2CppObjectE6InvokeEjP11Il2CppClassPvS1_S3_
_oc:__Z52Object_CUSTOM_GetOffsetOfInstanceIDInCPlusPlusObjectv
Oid:__ZN5physx6shdfnd4sortIPvNS0_4LessIS2_EENS0_19ReflectionAllocatorINS_2Cm5BlockIS2_Lj8EEEEEEEvPT_jRKT0_RKT1_j
ZT:__ZN9AudioClip15InitializeClassEv
_yd:__ZNK5physx9NpPhysics11getNbShapesEv
eq:setThrew
I$i:__Z36RuntimeInvoker_IntPtr_t_Il2CppObjectPK10MethodInfoPvPS2_
r5b:__ZL21BuildEmptyCubeTexturePKci11ColorRGBA3217TextureColorSpace
aYb:__ZN14SafeBinaryRead21TransferSTLStyleArrayINSt3__26vectorIN9ShaderLab20SerializedSubProgramENS1_9allocatorIS4_EEEEEEvRT_17TransferMetaFlags
zUe:__ZN13RuntimeStaticI20HardwareInfoReporterE10InitializeEv
_tg:_StandaloneInputModule_set_cancelButton_m2642677329
Cwc:__Z15Transfer_StringI8JSONReadLb1EEvRK29SerializationCommandArgumentsR31RuntimeSerializationCommandInfo
Cpa:__ZN6prcoreL17RemapGenericFloatI17TexFormatRGBFloat15TexFormatRGHalfEEvPKNS_9InnerInfoE
r_a:__Z25DoForwardShaderRenderLoopR17RenderLoopContextR13dynamic_arrayI16RenderObjectDataLj4EERK11CullResultsbbbN6Camera10RenderFlagE
KLc:__ZN28ParticleSystemSubEmitterData4InitEP14ParticleSystemi
vV:__Z31AudioClip_Get_Custom_PropLengthP12Il2CppObject
H7g:_PKCS12_GetSymmetricAlgorithm_m1812022677
yzj:_UTF8Encoding_GetByteCount_m2372933408
bdk:_Context_get_NeedsContextSink_m1907794755
fCe:_UNITY_ft_service_list_lookup
tdh:_ARC4Managed_GenerateKey_m716135508
uOb:__Z18Transfer_BlittableI17RemapPPtrTransferLb1E11ColorRGBA32EvRK29SerializationCommandArgumentsR31RuntimeSerializationCommandInfo
S7j:__ZN16VirtFuncInvoker2Ii40CustomAttributeTypedArgument_t1498197914S0_E6InvokeEjPvS0_S0_
Y1c:__ZN5physx2Gu20intersectTriangleBoxERKNS_6PxVec3ES3_S3_S3_S3_
_fd:__ZN5physx6shdfnd5ArrayIPvNS0_19ReflectionAllocatorINS_2Sc18TriggerInteractionEEEE15growAndPushBackERKS2_
Vxd:__ZN5physx10NpMaterial8setFlagsENS_7PxFlagsINS_14PxMaterialFlag4EnumEtEE
Zdb:__ZN13BaseAllocator13TryDeallocateEPv
URb:__Z29Transfer_Blittable_ArrayFieldI19StreamedBinaryWriteILb0EEfEvRT_R9ArrayInfoRK23StaticTransferFieldInfo
xrf:_Array_CreateInstance_m1054139389
xKi:_GUIStyleState_GetGUIStyleState_m2816150617
PZj:_InternalEnumerator_1__ctor_m967618647_AdjustorThunk
Kcb:__ZN16MemoryFileSystem5WriteER13FileEntryDatayPvPy
xDg:_LayoutGroup_GetAlignmentOnAxis_m1783063916
Kmb:__ZNSt3__26vectorIN12FlareManager10FlareEntryENS_9allocatorIS2_EEE21__push_back_slow_pathIKS2_EEvRT_
hMh:_Default_check_arguments_with_score_m1714931543
qOj:_Collision_get_impactForceSum_m521972354
uZe:_SHA1_Create_m4086509717
E0i:__Z57RuntimeInvoker_Il2CppObject_RuntimeTypeHandle_t2330101084PK10MethodInfoPvPS2_
Muk:_UnityEvent_1_GetDelegate_m3098147632_gshared
yVh:_MonoMethodInfo_GetMethodInfo_m3298558752
IN:__ZN13AudioListener17RemoveFromManagerEv
Ud:_glAttachShader
hAg:_Dropdown_SetAlpha_m2769981009
Uqe:__ZN5physx6shdfnd8internal8HashBaseINS0_4PairIKtPKcEEtNS0_4HashItEENS1_11HashMapBaseItS6_S9_NS_7profile26WrapperReflectionAllocatorIS6_EEE6GetKeyESD_Lb1EE6createERS4_Rb
cTa:__ZNK6Camera19GetProjectionMatrixEv
Irk:_Predicate_1_BeginInvoke_m1856151290_gshared
$he:__ZNK5physx2Cm12DelegateTaskINS_2Sc5SceneEXadL_ZNS3_18clothPreprocessingEPNS_10PxBaseTaskEEEE7getNameEv
sTd:__ZNK5physx7NpScene24getWakeCounterResetValueEv
rMd:__ZN5physx20NpRigidActorTemplateINS_14PxRigidDynamicEE17resolveReferencesERNS_24PxDeserializationContextE
ykg:_ReadOnlyCollection_1_System_Collections_IList_Contains_m673434054_gshared
eJk:__ZN15dense_hashtableINSt3__24pairIK10KeyWrapperIPK22Il2CppGenericParameterEP11Il2CppClassEES6_N6il2cpp5utils11PointerHashIS4_EEN14dense_hash_mapIS6_S9_SE_NS0_8equal_toIS6_EENS0_9allocatorISA_EEE9SelectKeyESH_SJ_E8min_sizeEjj
abj:__Z139RuntimeInvoker_Il2CppObject_Il2CppObject_Int32_t2071877448_SByte_t454417549_SByte_t454417549_SByte_t454417549_SByte_t454417549_Il2CppObjectPK10MethodInfoPvPS2_
pOf:_StackTrace__ctor_m2404985356
L8d:__ZN5physx2Gu32PCMConvexVsMeshContactGeneration20generateLastContactsEv
x8:__Z38PreallocateObjectFromPersistentManagerib
PJf:_DateTime_System_IConvertible_ToSingle_m3927769066
oyl:__ZNSt3__211__money_getIwE13__gather_infoEbRKNS_6localeERNS_10money_base7patternERwS8_RNS_12basic_stringIcNS_11char_traitsIcEENS_9allocatorIcEEEERNS9_IwNSA_IwEENSC_IwEEEESJ_SJ_Ri
dyd:__ZThn12_N5physx10NpMaterialD0Ev
krb:__ZNK9Texture2D20GetUnscaledTextureIDEv
iU:__ZN9AudioClip7PRODUCEE18MemLabelIdentifier18ObjectCreationMode
cBl:__ZNSt3__26vectorIPNS_6locale5facetENS_15__sso_allocatorIS3_Lj28EEEE26__swap_out_circular_bufferERNS_14__split_bufferIS3_RS5_EE
XHf:_Convert_ToSByte_m883113940
noe:__ZN5physx6shdfnd4sortIjNS_19SortBoundsPredicateENS0_19ReflectionAllocatorIjEEEEvPT_jRKT0_RKT1_j
dMl:_glFenceSync__wrapper
b_g:_MonoType_get_ContainsGenericParameters_m3229732653
DAd:__ZN5physx7NpShape14onRefCountZeroEv
XEc:__ZNK14ParticleSystem7GetLoopEv
sgf:_Array_InternalArray__IndexOf_TisContactPoint_t1376425630_m3651364246_gshared
eFi:__ZL53InputField_t1631627530_CustomAttributesCacheGeneratorP21CustomAttributesCache
Qll:__ZN6il2cpp2vm13ComObjectBaseINS0_13ManagedObjectE18Il2CppIInspectableNS0_7details6ComNilES5_S5_S5_S5_S5_S5_E16__CreateInstanceEP12Il2CppObject
Nbe:__ZN5physx2Cm18DelegateFanoutTaskINS_2Sc5SceneEXadL_ZNS3_14postBroadPhaseEPNS_10PxBaseTaskEEEED0Ev
Mne:__ZL15TestContainmentRKN5physx6PxVec3EPKfjPKNS_2Gu15HullPolygonDataE
prb:__ZNK9Texture2D26CanReuploadDataToGfxDeviceEv
aUb:__ZN18StreamedBinaryReadILb0EE21TransferSTLStyleArrayI13dynamic_arrayI4AABBLj4EEEEvRT_17TransferMetaFlags
nFj:_UInt16_System_IConvertible_ToDouble_m4100549304_AdjustorThunk
T2i:__Z116RuntimeInvoker_Il2CppObject_Il2CppObject_Il2CppObject_Int32_t2071877448_Int32_t2071877448_MonoIOErrorU26_t1029615899PK10MethodInfoPvPS2_
Nsa:__Z29ClearRepeatingLogMessageStatev
eqc:__ZN13TextRendering17TextMeshGenerator13GetTextOffsetERK5RectTIfE
ZCk:_HashSet_1_OnDeserialization_m1222146673_gshared
Nke:__ZN5physx2Gu11HeightField12loadFromDescERKNS_17PxHeightFieldDescEb
F3e:_Single_System_IConvertible_ToInt16_m962677079
Xca:__ZN21EnlightenSceneMappingaSERKS_
Qeg:_Collection_1_SetItem_m546457615_gshared
Mol:__ZNK6il2cpp8metadata21Il2CppGenericInstHashclEPK17Il2CppGenericInst
T3e:_Single_System_IConvertible_ToUInt32_m2447833283
_kg:_ReadOnlyCollection_1_System_Collections_IList_Add_m3806843030_gshared
aNa:__ZN7ApiGLESD2Ev
O6a:__ZN9Transform47ClearTransformHierarchyAndApplyToSerializedDataEv
x1j:_InternalEnumerator_1_get_Current_m4083613828_AdjustorThunk
nPc:__ZN14qsort_internal31_FindAndMovePivotToLastPositionIP16ParticleSortDataiPFbRKS1_S4_EEEvT_S7_T0_T1_
yQd:__ZN5physx6shdfnd8PoolBaseINS_2Gu30LargePersistentContactManifoldENS0_19ReflectionAllocatorIS3_EEE12allocateSlabEv
Nxd:__ZNK5physx10NpMaterial17getReferenceCountEv
kXe:_RijndaelManaged_GenerateKey_m3366247933
lRg:_BinaryReader_ReadUInt64_m1893783375
nMj:_Bounds_op_Equality_m2161830280
Dab:__ZN17PersistentManager9AddStreamEv
vGl:dynCall_fidi
Itc:__Z47Register_UnityEngine_GUIStyle_set_imagePositionv
Pce:__ZN5physx20getVertexEdgeIndicesERKNS_2Gu11HeightFieldEjjjPNS_8EdgeDataE
jtc:__Z49GUIStyle_CUSTOM_INTERNAL_CALL_Internal_DrawCursor13Il2Cpp_IntPtrRK5RectTIfEP12Il2CppObjectiRK10ColorRGBAf
Btj:_ScrollRect_set_movementType_m3292965850
soi:__ZL59AttributeTargets_t1984597432_CustomAttributesCacheGeneratorP21CustomAttributesCache
FVd:__ZN5physx6shdfnd5ArrayIPNS_2Sc8BodyCoreENS0_19ReflectionAllocatorIS4_EEE6resizeEjRKS4_
tVi:_RectTransform_set_anchorMin_m4247668187
uad:__ZN5physx3Cct26CharacterControllerManager16createControllerERNS_9PxPhysicsEPNS_7PxSceneERKNS_16PxControllerDescE
TY:__ZN11UnityEngine15CloudWebService14RestDownloaderD2Ev
pbb:__Z29StdTemplateConversionFunctionIjhEbPvR14SafeBinaryRead
gob:__ZN22RenderingCommandBufferC2ERKS_
tqe:__ZNK12PhysXRaycast12BatchOverlapER13dynamic_arrayI15BatchedOverlapsLj4EEPP8Colliderj
HWf:_List_1_GrowIfNeeded_m2986672263_gshared
XXj:_ArrayReadOnlyList_1_Remove_m2325516426_gshared
GBf:_Hashtable_get_Count_m830088216
hfc:__ZNK13MonoBehaviour13GetScriptTypeEv
Dha:__ZN13RenderTexture12SetDimensionE16TextureDimension
UWi:_ScriptableObject_CreateInstance_m3921674852
MLj:_GameObject_Internal_AddComponentWithType_m214735204
Ke:_SDL_FreeRW
MYd:__ZN5physx6shdfnd8PoolBaseINS_2Cm5BlockIhLj128EEENS0_19ReflectionAllocatorIS4_EEE15disposeElementsEv
DZe:_SHA1Internal_FillBuff_m891541953
Hri:__ZL62ResolveEventHandler_t3842432458_CustomAttributesCacheGeneratorP21CustomAttributesCache
PId:__ZN5physx3Scb14ParticleSystem14setRestOffsetsEjRKNS_16PxStrideIteratorIKjEERKNS2_IKfEE
GS:__ZN20SoundChannelInstance8getDelayE14FMOD_DELAYTYPEPjS1_
phb:__ZN21AssetBundleFileSystemC2EPKc
g0i:__Z61RuntimeInvoker_Void_t1841601450_Il2CppObject_Int64_t909078037PK10MethodInfoPvPS2_
mFg:_InputField_set_customCaretColor_m3534590098
Ltj:_ScrollRect_set_viewport_m323693490
twa:__ZN10UnitySceneD0Ev
lKg:_NumberFormatter_FormatExponential_m3975285307
Uwe:__ZNSt3__26vectorIN20TextRenderingPrivate8FontImpl13CharacterInfoE13stl_allocatorIS3_L18MemLabelIdentifier1ELi16EEE8__appendEj
u:tempBigInt
Se:_emscripten_glVertexAttrib1fv
rYb:__ZNSt3__26vectorIN9ShaderLab20SerializedSubProgram12UAVParameterENS_9allocatorIS3_EEE7reserveEj
dpf:_Array_InternalArray__get_Item_TisTypeTag_t141209596_m1747911007_gshared
oJj:_AnimationCurve_Init_m1486386337
wPj:_Component_GetComponents_m3712441745
sUd:__ZN5physx13NpVolumeCacheC2EPNS_2Sq17SceneQueryManagerEjj
Kjd:__ZThn24_N5physx2Sc20ArticulationJointSimD1Ev
YFg:_InputField_get_selectionAnchorPosition_m466595604
Rni:__ZL99Thread_t241561612_CustomAttributesCacheGenerator_Thread_t241561612____ExecutionContext_PropertyInfoP21CustomAttributesCache
T7e:_DecoderReplacementFallback_get_DefaultString_m3399348550
quk:_UnityAction_4_Invoke_m3312096275_gshared
SIi:__ZL111LayoutUtility_t4076838048_CustomAttributesCacheGenerator_LayoutUtility_U3CGetPreferredHeightU3Em__5_m1524880643P21CustomAttributesCache
Qmj:__Z57RuntimeInvoker_ResourceInfo_t3933049236_Int32_t2071877448PK10MethodInfoPvPS2_
JLk:__ZN15dense_hashtableINSt3__24pairIK10KeyWrapperIPK19Il2CppGenericMethodEPK26Il2CppGenericMethodIndicesEES6_N6il2cpp8metadata23Il2CppGenericMethodHashEN14dense_hash_mapIS6_SA_SE_NSD_26Il2CppGenericMethodCompareENS0_9allocatorISB_EEE9SelectKeyESG_SI_E13set_empty_keyERKSB_
QId:__ZN5physx2Sc18ParticleSystemCore14setRestOffsetsEjRKNS_16PxStrideIteratorIKjEERKNS2_IKfEE
n2c:__ZN5physx2Gu16testPolyDataAxisERKNS0_8CapsuleVERKNS0_13PolygonalDataEPNS0_12SupportLocalERKNS_6shdfnd3aos6FloatVERSB_RNSA_5Vec3VE
_Vi:_RectTransformUtility_ScreenPointToRay_m1842507230
o5a:__ZN16ReflectionProbes16UpdateSampleDataEv
l0i:__Z71RuntimeInvoker_Int32_t2071877448_Il2CppObject_Il2CppObject_Il2CppObjectPK10MethodInfoPvPS2_
vDc:__Z9UpdateTplIL27ParticleSystemCurveEvalMode1EEvRK11MinMaxCurveR23ParticleSystemParticlesjjPKN4math8floatNx3E
Bmd:__ZN5physx2Sc17ParticleSystemSimD0Ev
J6k:__ZNK15dense_hashtableI10KeyWrapperIP18Il2CppGenericClassES3_N6il2cpp8metadata22Il2CppGenericClassHashEN14dense_hash_setIS3_S6_NS5_25Il2CppGenericClassCompareENSt3__29allocatorIS3_EEE8IdentityES8_SB_E10test_emptyERK30dense_hashtable_const_iteratorIS3_S3_S6_SD_S8_SB_E
O8j:_Enumerator_VerifyState_m2118679243_gshared
PWb:__ZN14SafeBinaryRead21TransferSTLStyleArrayI10vector_setI4PPtrI10MonoScriptENSt3__24lessIS4_EE13stl_allocatorIS4_L18MemLabelIdentifier76ELi16EEEEEvRT_17TransferMetaFlags
j4i:__Z103RuntimeInvoker_Il2CppObject_Il2CppObject_StreamingContext_t1417235061_ISurrogateSelectorU26_t2635255864PK10MethodInfoPvPS2_
_ak:_SafeHandle_Finalize_m1839546519
Fxb:__ZN14Texture2DArray5ResetEv
ixc:__ZN8JSONRead21TransferSTLStyleArrayINSt3__26vectorI10RectOffset13stl_allocatorIS3_L18MemLabelIdentifier1ELi16EEEEEEvRT_S5_17TransferMetaFlags
A5j:_InternalEnumerator_1_MoveNext_m252820768_AdjustorThunk
Mdk:_Context_AllocateNamedDataSlot_m3200404053
VZa:__ZN14BatchAllocator6CommitE18MemLabelIdentifier
Gth:_X509EnhancedKeyUsageExtension_Decode_m3866320499
hKg:_NumberFormatter_AppendIntegerStringWithGroupSeparator_m1401773574
u4f:_List_1_Remove_m1237648310_gshared
Wfh:_CipherSuite_get_ServerHMAC_m3566778727
vei:__ZL64DebuggerBrowsableState_t944457511_CustomAttributesCacheGeneratorP21CustomAttributesCache
of:_JS_Sound_Play
IHk:__ZL25UnresolvedVirtualCall_174P12Il2CppObject23RaycastResult_t21186376S1_PK10MethodInfo
yEg:_Image_IsRaycastLocationValid_m864962354
FMj:_Camera_INTERNAL_CALL_ViewportToWorldPoint_m3505854934
xvl:__ZNSt3__219__libcpp_asprintf_lEPPcP15__locale_structPKcz
EXb:__ZN9ShaderLab16SerializedShader8TransferI14SafeBinaryReadEEvRT_
tva:__ZN5Mutex7TryLockEv
s$i:__Z51RuntimeInvoker_Int16_t4041245914_Decimal_t724701077PK10MethodInfoPvPS2_
sYj:_InternalEnumerator_1_get_Current_m2151132603_gshared
iOj:_Collision_get_collider_m3340328360
kE:__ZN7mecanim8skeleton13SkeletonAlignEPKNS0_8SkeletonERKN4math7_float4ES7_i
vkb:__ZN14SafeBinaryRead21TransferSTLStyleArrayIN4core12basic_stringIcNS1_20StringStorageDefaultIcEEEEEEvRT_17TransferMetaFlags
KCh:_RemotingConfiguration_RegisterWellKnownServiceType_m2491506630
pvi:__ZL89Screen_t786852042_CustomAttributesCacheGenerator_Screen_t786852042____height_PropertyInfoP21CustomAttributesCache
HE:__ZNK26AnimatorControllerPlayable34GetAnimatorStateInfoFromStateIndexEiiR17AnimatorStateInfo
Gii:__ZL55_TypeBuilder_t2783404358_CustomAttributesCacheGeneratorP21CustomAttributesCache
kIk:__ZL25UnresolvedVirtualCall_204P12Il2CppObjectPK10MethodInfo
Tbb:__Z29StdTemplateConversionFunctionIayEbPvR14SafeBinaryRead
NNd:__ZNK5physx20NpRigidActorTemplateINS_13PxRigidStaticEE14getConstraintsEPPNS_12PxConstraintEjj
L4c:__ZN25MeshMTDGenerationCallbackD0Ev
EIg:_LayoutRebuilder_Initialize_m2671585490
f$f:_List_1_System_Collections_IList_IndexOf_m4061554721_gshared
yZ:__ZN11UnityEngine15CloudWebService14DataDispatcher4StopEv
RGc:__ZN15CollisionModule16CheckConsistencyEv
tYb:__ZNSt3__26vectorIN9ShaderLab20SerializedSubProgram12UAVParameterENS_9allocatorIS3_EEE8__appendEj
WUf:_Enumerator_System_Collections_IEnumerator_Reset_m4029239424_AdjustorThunk
B9f:_Collection_1_GetEnumerator_m434271983_gshared
Iqc:__ZN5IMGUI9GUIWindow5OnGUIER8GUIState
XQe:__ZN22BaseUnityConnectClient24OnSaveFileFromServerDoneERK8UnityStrS2_bi
zI:__ZN18StreamedBinaryReadILb0EE19TransferSTLStyleMapINSt3__23mapIj8UnityStrNS2_4lessIjEENS2_9allocatorINS2_4pairIKjS4_EEEEEEEEvRT_17TransferMetaFlags
Jcc:__ZNK17AnimationCurveTplI11QuaternionfE8GetRangeEv
Nck:_LifetimeServices_set_LeaseTime_m1487876644
tNh:_ConstructorBuilder_not_supported_m3687319507
uci:__ZL48IList_t3321498491_CustomAttributesCacheGeneratorP21CustomAttributesCache
Nxc:__Z33EmitSerializationCommandsForFieldI9JSONWriteEvR18TransferField_InfoR32SerializationCommandQueueBuilderRP20AllowNameConversions
Jsd:__ZN5physx12NpConstraint8comShiftEPNS_12PxRigidActorE
K3e:_Single_System_IConvertible_ToInt64_m3555853323_AdjustorThunk
nWb:__Z23TransferScriptingObjectI19StreamedBinaryWriteILb0EEEvRT_P12Il2CppObjectP11Il2CppClassPK15MonoScriptCache
aFl:dynCall_iifiii
zfj:__Z48RuntimeInvoker_PersistentListenerMode_t857969000PK10MethodInfoPvPS2_
wij:__Z77RuntimeInvoker_Boolean_t3825574718_AspectModeU26_t218518220_Int32_t2071877448PK10MethodInfoPvPS2_
K9k:__ZNK15dense_hashtableINSt3__24pairIK10KeyWrapperIP12Il2CppObjectEN6il2cpp2gc9CachedCCWEEES5_NS7_5utils11PointerHashIS3_EEN14dense_hash_mapIS5_S9_SD_NS0_8equal_toIS5_EENS0_9allocatorISA_EEE9SelectKeyESG_SI_E3endEv
c4i:__Z87RuntimeInvoker_Il2CppObject_Il2CppObject_Il2CppObject_Il2CppObject_StringU26_t638738783PK10MethodInfoPvPS2_
hua:__Z21HasAlphaTextureFormat13TextureFormat
DU:__ZN12AudioManager6UpdateEv
fua:__ZN14ImageReference9BlitImageERKS_NS_8BlitModeE
nVh:_MonoMethod_get_MethodHandle_m1882915015
fx:__ZN8Animator12AddToManagerEv
Jgi:__ZL93ConstructorInfo_t2851816542_CustomAttributesCacheGenerator_ConstructorInfo_Invoke_m2144827141P21CustomAttributesCache
Sbc:__Z26ApplyBlendShapesToVerticesR12SkinMeshInfoRKN4math5_int4EPNS1_8floatNx3ES6_
i4a:__ZNK9ShaderLab9IntShader6GetTagEib
n1c:__ZNK5physx2Gu16SupportLocalImplINS0_11ConvexHullVEE9doSupportERKNS_6shdfnd3aos5Vec3VERNS5_6FloatVESA_
AJb:__ZN23CachedSerializationDataD2Ev
i_c:__ZNK5physx3Cct13BoxController8getActorEv
Oob:__ZN14RenderSettings23VirtualRedirectTransferER14SafeBinaryRead
cQc:__ZNK13b2CircleShape5CloneEP16b2BlockAllocator
Ybl:__ZN6il2cpp2os10ThreadImpl15CurrentThreadIdEv
weg:_Collection_1_System_Collections_IList_get_IsReadOnly_m4005091053_gshared
SC:__ZN30dense_hashtable_const_iteratorINSt3__24pairIKN11UnityEngine9Animation14GenericBindingENS3_10BoundIndexEEES4_NS3_25GenericBindingHashFunctorEN14dense_hash_mapIS4_S6_S8_NS3_30GenericBindingValueArrayUniqueE13stl_allocatorIS7_L18MemLabelIdentifier1ELi16EEE9SelectKeyESA_SD_E30advance_past_empty_and_deletedEv
ybf:_Array_InternalArray__ICollection_Contains_TisColor32_t874517518_m2818328910_gshared
Cnb:__ZN17GlobalGameManager8TransferI17RemapPPtrTransferEEvRT_
Ele:__ZN5physx6shdfnd8internal8HashBaseIPNS_2Gu12TriangleMeshES5_NS0_4HashIS5_EENS1_11HashSetBaseIS5_S7_NS0_9AllocatorELb1EE6GetKeyES9_Lb1EE5eraseERKS5_
Kah:_AppDomainInitializer_EndInvoke_m4003801172
XTi:_RaycastHit2D_get_point_m442317739
b8i:__Z72RuntimeInvoker_Il2CppObject_Il2CppObject_Decimal_t724701077_Il2CppObjectPK10MethodInfoPvPS2_
zob:__ZN16LevelGameManager8TransferI18StreamedBinaryReadILb0EEEEvRT_
tKe:_UNITY_tt_face_load_fpgm
ACb:__ZN12InputManagerD0Ev
Byg:_DefaultControls_CreateUIObject_m2810394112
vgj:__Z37RuntimeInvoker_FillMethod_t1640962579PK10MethodInfoPvPS2_
lMi:_GUIStyle_get_overflow_m1125058093
Itj:_ScrollRect_get_scrollSensitivity_m1160815603
T9e:_UnicodeEncoding_GetBytes_m1337660232
dWc:__ZN16Physics2DManager10CircleCastERK8Vector2ffS2_fiffPK10Collider2DbP12RaycastHit2Di
pXi:_SerializePrivateVariables__ctor_m806793207
ftd:__ZN5physx2Sc9RigidCore20removeShapeFromSceneERNS0_9ShapeCoreEb
Qqe:__ZN5physx6shdfnd8internal8HashBaseINS0_4PairIKPKcjEES5_NS0_4HashIS5_EENS1_11HashMapBaseIS5_jS9_NS_7profile26WrapperReflectionAllocatorIjEEE6GetKeyESD_Lb1EE15reserveInternalEj
$pl:___ctype_b_loc
M4:__ZN13RuntimeStaticI11WindManagerE16StaticInitializeEPv
grj:_VertexHelper_GetUIVertexStream_m3849188814
UXa:__ZNK19RenderEventsContext21ExecuteCommandBuffersEiR17ShaderPassContextRK15RenderNodeQueueP19ProfilerInformationi
ioe:__ZN5physx11RTreeCooker18buildFromTrianglesERNS_2Gu5RTreeEPKNS_6PxVec3EjPKtPKjjRNS_6shdfnd5ArrayIjNSB_19ReflectionAllocatorIjEEEEPNS0_13RemapCallbackEfNS_17PxMeshCookingHint4EnumE
qnd:__ZN5physx6shdfnd5ArrayIPvNS0_15InlineAllocatorILj256ENS0_19ReflectionAllocatorINS_14NpArticulationEEEEEE15growAndPushBackERKS2_
y6f:_List_1_get_Count_m1249351212_gshared
x6j:_InternalEnumerator_1_get_Current_m747506907_AdjustorThunk
zMj:_Camera_get_eventMask_m4241372419
xGf:_Decimal_op_Implicit_m623319612
HJi:_GUILayoutUtility_LayoutFromEditorWindow_m1847418289
Ofh:_CertificateValidationCallback2_BeginInvoke_m3996282202
Smh:_SslClientStream_get_ClientCertSelectionDelegate_m2316959461
rzf:_SynchronizedArrayListWrapper_get_SyncRoot_m1466044127
A8:__ZNK15MonoScriptCache7ReleaseEv
Sqg:_EventTrigger_OnPointerExit_m2119176877
pae:__ZN5physx9PxTaskMgrC2EPNS_15PxCpuDispatcherEPNS_15PxGpuDispatcherEPNS_15PxSpuDispatcherE
Dg:_glBindTexture
y9f:_Collection_1_ClearItems_m3585785594_gshared
Fql:_snprintf
ckg:_ReadOnlyCollection_1_System_Collections_IList_get_IsReadOnly_m2918085566_gshared
YHi:__ZL84HorizontalOrVerticalLayoutGroup_t1968298610_CustomAttributesCacheGenerator_m_SpacingP21CustomAttributesCache
OLh:_Binder__ctor_m1361613966
VFg:_InputField_set_caretPosition_m888572237
OQh:_ILGenerator__cctor_m3943061018
Hyf:_ArrayListWrapper_Clone_m1506311066
jgh:_CipherSuite_set_Context_m4127897124
VKa:__ZN16UniformCacheGLES6CreateERK20GpuProgramParameters
Hzj:_UTF8Encoding_Fallback_m811555654
KKc:__ZN14ParticleSystem10ResetSeedsEv
ZWi:_ScriptableObject_t1975622470_marshal_pinvoke_cleanup
W8e:_Encoding_GetString_m1894033578
rjg:_ReadOnlyCollection_1_System_Collections_IList_Clear_m1918003010_gshared
Fvk:_TextGenerator_t647235000_marshal_pinvoke_cleanup
pJl:_emscripten_glGetProgramInfoLog__wrapper
lyi:__ZL94Font_t4239498691_CustomAttributesCacheGenerator_Font_InvokeTextureRebuilt_Internal_m2007522718P21CustomAttributesCache
kba:__ZN17PersistentManager23DestroyFromFileInternalEi
rwi:__ZL98Object_t1021602117_CustomAttributesCacheGenerator_Object_DoesObjectWithInstanceIDExist_m2570795274P21CustomAttributesCache
oQf:_Enum_ToString_m2112979707
evk:_TextGenerator_ValidatedSettings_m1640214759
eki:__ZL55SoapServices_t3397513225_CustomAttributesCacheGeneratorP21CustomAttributesCache
bAh:_MonoMethodMessage_get_MethodName_m3580519713
aF:__ZN26AnimatorControllerPlayable18PrepareForPlaybackERN7mecanim6memory9AllocatorE
x0d:__ZN5physx19PxsMaterialCombiner24combineIsotropicFrictionERKNS_15PxsMaterialDataES3_
vQf:_Enum_t2459695545_marshal_pinvoke_cleanup
Czj:_UTF8Encoding_GetBytes_m4170182058
jqf:_Mesh_GetAllocArrayFromChannel_TisColor32_t874517518_m2030100417_gshared
WJd:__ZN5physx22NpParticleBaseTemplateINS_16PxParticleSystemENS_16NpParticleSystemEE20lockParticleReadDataEv
hla:__ZN22CreateGpuProgramOutputC2Ev
EPi:_Object__ctor_m197157284
aUg:_MemoryStream_InternalConstructor_m2423667240
lkk:_CapturingGroup_set_Index_m2175936006
yBl:__ZNSt13runtime_errorC2ERKNSt3__212basic_stringIcNS0_11char_traitsIcEENS0_9allocatorIcEEEE
DYi:__Z70RuntimeInvoker_Il2CppObject_Il2CppObject_Il2CppObject_SByte_t454417549PK10MethodInfoPvPS2_
$Ah:_SoapMethodAttribute_SetReflectionObject_m3431595769
qme:__ZN5physx7Cooking16cookTriangleMeshERKNS_18PxTriangleMeshDescERNS_14PxOutputStreamE
mwj:_Slider_set_maxValue_m2951480075
R6b:__ZN8GUILayer12CleanupClassEv
Ckd:__ZN5physx2Sc7ElementD0Ev
Poe:__ZN5physx6shdfnd10Foundation7releaseEv
$Jk:__ZN6il2cpp2vm5Class4InitEP11Il2CppClass
W4:__ZN19ShaderPropertySheet27AddNewPropertyUninitializedERKN9ShaderLab16FastPropertyNameENS_12PropertyTypeEijj
Tc:invoke_vidi
acc:__ZNK15GUIEventManager15GetEventAtIndexEi
ONe:__ZN2UI14CanvasRenderer17SyncDirtyElementsER8JobFence
OSb:__Z18Transfer_BlittableI18StreamedBinaryReadILb0EELb0ExEvRK29SerializationCommandArgumentsR31RuntimeSerializationCommandInfo
sxg:_ColorBlock_op_Inequality_m1517672458
Yal:__ZN6il2cpp5utils11StringUtils15StringDuplicateEPKc
$5k:__ZN6il2cpp2vm9Exception32GetPlatformNotSupportedExceptionEPKc
Aka:__ZNK9ShaderLab21ShaderRasterStateDesc16ToGfxRasterStateEPK19ShaderPropertySheetS3_R14GfxRasterState
tFg:_InputField_set_onValueChange_m1749304609
m1a:__Z16RenderShadowMapsPK18ShadowMapJobHeaderR17ShaderPassContext
PIh:_CspParameters__ctor_m2480441577
Jol:__ZN6il2cpp2os9EventImplC2Ebb
oEc:__Z12RangedRandomR5RandNRKiS2_
ndk:_DynamicPropertyCollection_NotifyMessage_m840388347
wlk:_Uri_ParseUri_m5711497
fJ:__ZN4PPtrI13MonoBehaviourE8TransferI19StreamedBinaryWriteILb0EEEEvRT_
ywe:__ZN14SafeBinaryRead21TransferSTLStyleArrayINSt3__26vectorI8UnityStr13stl_allocatorIS3_L18MemLabelIdentifier34ELi16EEEEEEvRT_17TransferMetaFlags
Pjb:__ZNK5Unity9Component26GetTypeInfoVirtualInternalEv
r5:__Z20IsMatrixBuiltinParamPKcPi
W7i:__Z63RuntimeInvoker_Void_t1841601450_Il2CppObject_Decimal_t724701077PK10MethodInfoPvPS2_
WFi:__ZL108MaskableGraphic_t540192618_CustomAttributesCacheGenerator_MaskableGraphic_ParentMaskStateChanged_m3643747340P21CustomAttributesCache
iTj:_Playable_INTERNAL_CALL_GetInputInternal_m1720243548
R5b:__ZN8Renderer19PostInitializeClassEv
$ba:__ZN13RuntimeStaticINSt3__23mapINS0_12basic_stringIcNS0_11char_traitsIcEENS0_9allocatorIcEEEES7_NS0_4lessIS7_EE13stl_allocatorINS0_4pairIKS7_S7_EEL18MemLabelIdentifier12ELi16EEEEE16StaticInitializeEPv
Nze:__ZN20TextRenderingPrivate15DynamicFontDataD2Ev
RYj:_InternalEnumerator_1_get_Current_m1943362081_AdjustorThunk
kyk:_Vector3_get_sqrMagnitude_m1814096310_AdjustorThunk
hvl:__ZNKSt3__27num_getIwNS_19istreambuf_iteratorIwNS_11char_traitsIwEEEEE15__do_get_signedIxEES4_S4_S4_RNS_8ios_baseERjRT_
kkl:__ZN6il2cpp6icalls8mscorlib6System8Delegate23CreateDelegate_internalEP20Il2CppReflectionTypeP12Il2CppObjectP22Il2CppReflectionMethodb
itl:__ZNSt3__214basic_iostreamIcNS_11char_traitsIcEEED0Ev
bMh:_Default_check_type_m2363631305
vJb:__ZN18DelayedCallManager18CancelCallDelayed2E4PPtrI6ObjectEPF15CallObjectStatePS1_PvES7_
$_f:_List_1__cctor_m911493842_gshared
ceb:__ZN25ThreadsafeLinearAllocator10ReallocateEPvji
vLb:__Z18Transfer_BlittableI14SafeBinaryReadLb1E11QuaternionfEvRK29SerializationCommandArgumentsR31RuntimeSerializationCommandInfo
Mqd:__ZNK5physx18PxArticulationLink8isKindOfEPKc
ygf:_Array_InternalArray__IndexOf_TisRaycastHit2D_t4063908774_m3739817942_gshared
YVh:_MonoProperty_GetAccessors_m3704698731
v3i:__Z146RuntimeInvoker_Il2CppObject_Int32_t2071877448_Il2CppObject_ObjectU5BU5DU26_t3223402458_Il2CppObject_Il2CppObject_Il2CppObject_ObjectU26_t597476745PK10MethodInfoPvPS2_
Kue:__Z25CreatePxMeshFromUnityMeshP4MeshbbRK10Matrix4x4f13TransformTypef
Mjl:_GC_disable
nzb:__ZN10Matrix4x4f8TransferI14SafeBinaryReadEEvRT_
fn:FUNCTION_TABLE_vifiiiiiiiiiiiiiiiiii
sXg:_UnmanagedMemoryStream_ReadByte_m2501145010
L2h:_Dictionary_2__ctor_m406310120_gshared
Gs:__ZN15SerializeTraitsI13dynamic_arrayIN11UnityEngine9Animation14GenericBindingELj4EEE19ResizeSTLStyleArrayERS4_i18MemLabelIdentifier
IEh:_ObjectRecord_UnchainFixup_m3025030310
_E:__ZN14AvatarPlayback8StopTimeEv
Dyl:__ZNSt3__28messagesIcED0Ev
Kai:__ZL60MulticastDelegate_t3201952435_CustomAttributesCacheGeneratorP21CustomAttributesCache
sve:__ZN14PhysicsManager7PRODUCEE18MemLabelIdentifier18ObjectCreationMode
h6b:__ZN19ShaderPropertySheet16SetVectorIndexedERKN9ShaderLab16FastPropertyNameEifRK8Vector4fNS_8SetFlagsE
Dra:__ZL14OnWorldStoppedv
uUb:__Z18Transfer_BlittableI18StreamedBinaryReadILb1EELb0E8Vector3fEvRK29SerializationCommandArgumentsR31RuntimeSerializationCommandInfo
zcj:__Z35RuntimeInvoker_Playable_t3667545548PK10MethodInfoPvPS2_
qJd:__ZN5physx3Scb14ParticleSystem12ForceUpdates7destroyEv
ZEi:__ZL61Image_t2042527209_CustomAttributesCacheGenerator_m_FillCenterP21CustomAttributesCache
ZDa:__ZN7ApiGLES18ClearBufferSubDataEjN2gl12BufferTargetEll
cwk:_Touch_get_type_m3264731406_AdjustorThunk
ihc:__Z37Camera_Get_Custom_PropAllCamerasCountv
_xb:__ZN14Texture2DArray8TransferI18StreamedBinaryReadILb0EEEEvRT_
gud:__ZN5physx15NpActorTemplateINS_18PxArticulationLinkEED2Ev
Btc:__Z38Register_UnityEngine_GUIStyle_get_namev
tTg:_FileStreamAsyncResult__ctor_m1096228032
WEe:_Split_Cubic
jb:invoke_fiiii
eGb:__ZNSt3__26vectorIN30RuntimeInitializeOnLoadManager15ClassMethodInfoE13stl_allocatorIS2_L18MemLabelIdentifier12ELi16EEE26__swap_out_circular_bufferERNS_14__split_bufferIS2_RS5_EE
sug:_StandaloneInputModule_ProcessMouseEvent_m3840335260
LLf:_DBNull_System_IConvertible_ToSByte_m1228193074
e9f:_Collection_1__ctor_m2818834331_gshared
xpf:_Array_InternalArray__get_Item_TisUICharInfo_t3056636800_m3872982785_gshared
Aue:__Z19ExtractDataFromMeshR4MeshR13dynamic_arrayI8Vector3fLj4EERS1_ItLj2EES6_
TUj:_Playables_InternalDestroy_m3873600434
_bl:__ZN6il2cpp2os10ThreadImpl22CreateForCurrentThreadEv
ycg:_Collection_1_Insert_m3041550124_gshared
PBf:_Hashtable_PutImpl_m3318435614
Jzl:__ZNKSt3__25ctypeIcE9do_narrowEPKcS3_cPc
yvd:__ZN5physx2Sc16ArticulationCore26setMaxProjectionIterationsEj
TSg:_FileStream_FlushBuffer_m2594140542
p8c:__ZN26IntersectAnyVsMeshCallbackILi1ELb0EED2Ev
buc:__Z64Register_UnityEngine_GUIStyle_GetFontInternalDuringLoadingThreadv
amj:__Z76RuntimeInvoker_Void_t1841601450_Int32U5BU5DU26_t1341332175_Int32_t2071877448PK10MethodInfoPvPS2_
wZc:__ZN15ContactFilter2D13ShouldCollideEP9b2FixtureS1_
IEe:_ft_black_render
igl:__ZN6il2cpp2vm8Profiler12GCHeapResizeEx
CGl:dynCall_viiifi
HHa:__ZN18GfxFramebufferGLES20ActiveContextChangedEPP17RenderSurfaceBaseS2_
mri:__ZL51TimeSpan_t3430258949_CustomAttributesCacheGeneratorP21CustomAttributesCache
DHa:__Z19PluginsRenderMarkeri
zTh:_MethodBase_get_ContainsGenericParameters_m1185248753
vwi:__ZL80Object_t1021602117_CustomAttributesCacheGenerator_Object_Instantiate_m2439155489P21CustomAttributesCache
KK:__ZN10HumanTrait18InitializeBoneNameEv
YHf:_Convert_ToSByte_m1570938941
SUk:__ZN6il2cpp2gc19AppendOnlyGCHashMapINSt3__24pairIPK14Il2CppAssemblyP11Il2CppClassEEP24Il2CppReflectionAssembly17ReflectionMapHashIS9_E19ReflectionMapEqualsIS9_EE11TryGetValueERKS9_PSB_
FTb:__Z29Transfer_Blittable_ArrayFieldI18StreamedBinaryReadILb0EEyEvRT_R9ArrayInfoRK23StaticTransferFieldInfo
W5h:_EqualityComparer_1_get_Default_m875724809_gshared
h$a:__ZN14qsort_internal6_QSortIP15RODataDepthPassi17ROSorterDepthPassEEvT_S4_T0_T1_
z8k:__ZNSt3__214__split_bufferIN6il2cpp2vm5Image20EmbeddedResourceDataERNS_9allocatorIS4_EEEC2EjjS7_
fVa:__ZN5Image13ReformatImageERK14ImageReferenceii13TextureFormatNS0_8BlitModeE
Shi:__ZL57DispIdAttribute_t607560947_CustomAttributesCacheGeneratorP21CustomAttributesCache
tN:__ZN12AudioManager17RemoveAudioSourceEP11AudioSource
kQj:_CullingGroup_Finalize_m3172731580
Qje:__ZNK5physx2Gu10ConvexMesh17getReferenceCountEv
lpf:_Array_InternalArray__get_Item_TisUInt64_t2909196914_m2580870875_gshared
QTd:__ZN5physx2Sc5Scene22setNbContactDataBlocksEj
i9g:_SecurityParser_OnEndElement_m2909940377
NV:__ZN5physx14PxLightCpuTask12addReferenceEv
vWc:__Z10b2DistanceP16b2DistanceOutputP14b2SimplexCachePK15b2DistanceInput
Ctb:__ZN21EnlightenSceneMapping8TransferI19StreamedBinaryWriteILb0EEEEvRT_
U9k:__ZN6il2cpp2gc16GarbageCollector19InitializeFinalizerEv
xqc:__ZN10GUIManager10DoGUIEventER10InputEventb
Bgh:_Context_get_ClientWriteKey_m2235605337
cli:__ZL66DESCryptoServiceProvider_t933603253_CustomAttributesCacheGeneratorP21CustomAttributesCache
Ogl:_GC_bl_init_no_interiors
bnl:__ZN6il2cpp2vm13LibraryLoader21SetFindPluginCallbackEPFPKcS3_E
m5:__Z20CalculateSqrDistanceRK8Vector3fRK4AABB
Z$j:_InternalEnumerator_1_get_Current_m2415979394_AdjustorThunk
Xfb:__Z20GetAssetBundlePrefixRKNSt3__212basic_stringIcNS_11char_traitsIcEENS_9allocatorIcEEEE
cve:__ZN14PhysicsManager15ProcessContactsEv
T5c:__ZN21BoxTraceSegmentReport7onEventEjPj
tqd:__ZN5physx2Sc21ArticulationJointCore13setSwingLimitEff
sR:__Z32AudioMixerDuckingProcessCallbackP21UnityAudioEffectStatePfS1_jii
E1c:__ZL20HullProjectionCB_BoxRKN5physx2Gu13PolygonalDataERKNS_6PxVec3ERKNS_2Cm8Matrix34ERKNS7_23FastVertex2ShapeScalingERfSE_
NMh:_CustomAttributeTypedArgument_GetHashCode_m999147081_AdjustorThunk
jZi:__Z48RuntimeInvoker_Void_t1841601450_SByte_t454417549PK10MethodInfoPvPS2_
OVd:__ZN5physx17PxcNpMemBlockPool19releaseUnusedBlocksEv
bTg:_FileStream_Read_m3880951166
p6d:__ZN5physx14PxsAABBManager21selfCollideAggregatesEPKNS_19AggregateSortedDataE
cO:__ZN12AudioManager8TransferI24GenerateTypeTreeTransferEEvRT_
foa:__Z25GetBytesFromTextureFormat13TextureFormat
cua:__ZN9Texture3D19UnloadFromGfxDeviceEb
xee:__ZN5physx12_GLOBAL__N_112innerProductERKNS_14Px1DConstraintERS1_RKNS0_9MassPropsE
Eyl:__ZNKSt3__28messagesIcE7do_openERKNS_12basic_stringIcNS_11char_traitsIcEENS_9allocatorIcEEEERKNS_6localeE
NWc:__ZNK10Collider2D12OverlapPointERK8Vector2f
Bcf:_Array_InternalArray__ICollection_Remove_TisContactPoint_t1376425630_m2242111467_gshared
$El:dynCall_iifff
f0a:__Z26FindForwardLightsForObjectR13dynamic_arrayIhLj1EEPK11CulledLightjRK12ActiveLightsRK10RenderNodebRK23FindForwardLightsParams
lj:_emscripten_webgl_init_context_attributes
dt:__Z14resize_trimmedINSt3__26vectorIN13AnimationClip9PPtrCurveE13stl_allocatorIS3_L18MemLabelIdentifier25ELi16EEEEEvRT_j
wWc:__ZN9b2Simplex9ReadCacheEPK14b2SimplexCachePK15b2DistanceProxyRK11b2TransformS5_S8_
Q0h:_Dictionary_2_Resize_m2532139610_gshared
cYi:_StackTraceUtility__cctor_m1132099289
p4f:_List_1_IndexOf_m2019441835_gshared
D2d:__ZN5physx26PxcFrictionPatchStreamPairC2ERNS_17PxcNpMemBlockPoolE
OCj:_TimeSpan_Equals_m2029123271_AdjustorThunk
sPk:__ZN6il2cpp2vm13MetadataCache23GetInvokerMethodPointerEPK10MethodInfoPK20Il2CppGenericContext
eMa:__ZN9GfxDevice21RegisterNativeTextureE9TextureIDi16TextureDimension
nSf:_CultureInfo__ctor_m456863818
wll:__ZN6il2cpp6icalls8mscorlib6System10Reflection4Emit11TypeBuilder20create_generic_classEP27Il2CppReflectionTypeBuilder
fYk:__ZNK15dense_hashtableINSt3__24pairIK10KeyWrapperINS1_IPK12PropertyInfoP11Il2CppClassEEEjEES9_17ReflectionMapHashIS8_EN14dense_hash_mapIS9_jSD_19ReflectionMapEqualsIS8_ENS0_9allocatorISB_EEE9SelectKeyESG_SI_E13find_positionERSA_
zSk:__ZNSt3__26vectorIPK10MethodInfoNS_9allocatorIS3_EEE26__swap_out_circular_bufferERNS_14__split_bufferIS3_RS5_EE
zga:__ZN12ScriptMapper10FindShaderERKNSt3__212basic_stringIcNS0_11char_traitsIcEENS0_9allocatorIcEEEE
t0f:_List_1_AsReadOnly_m1925066867_gshared
vVf:_Enumerator_MoveNext_m2504790928_gshared
cHi:__ZL61Slider_t297367283_CustomAttributesCacheGenerator_m_HandleRectP21CustomAttributesCache
d0:__ZN3WWW20GetCachedErrorStringEv
yXi:_SliderState__ctor_m1096533539
N0b:__ZN12ScriptMapperD2Ev
Yla:__ZNSt3__26__treeINS_12__value_typeI8UnityStrS2_EENS_19__map_value_compareIS2_S3_NS_4lessIS2_EELb1EEE13stl_allocatorIS3_L18MemLabelIdentifier1ELi16EEE7destroyEPNS_11__tree_nodeIS3_PvEE
LLl:b100
RBi:__ZL85AxisEventData_t1524870173_CustomAttributesCacheGenerator_U3CmoveDirU3Ek__BackingFieldP21CustomAttributesCache
UGc:__ZN9SubModule8TransferI14SafeBinaryReadEEvRT_
LBc:__ZN14ParticleSystem15AddCustomLightsERK27LocalLightCullingParametersRK11CullResultsR12ActiveLightsRi9LightType
_vd:__ZNK5physx14NpSceneQueries10multiQueryINS_12PxOverlapHitEEEbRKNS_15MultiQueryInputERNS_13PxHitCallbackIT_EENS_7PxFlagsINS_9PxHitFlag4EnumEtEEPKNS_12PxQueryCacheERKNS_17PxQueryFilterDataEPNS_21PxQueryFilterCallbackEPNS_20BatchQueryFilterDataE
SHg:_LayoutElement_get_preferredWidth_m3246897845
Gnk:_X509Certificate_PEM_m49854707
Bue:__ZL21GetMeshLocationDetailR4Mesh
Jth:_X509BasicConstraintsExtension__ctor_m3320418592
Qmk:_ExtendedKeyUsageExtension_Decode_m901297139
uZb:__Z32TransferEnumWithNameForceIntSizeI14SafeBinaryRead7FogModeEvRT_RT0_PKc17TransferMetaFlags
_nc:__Z52Register_UnityEngine_RenderTexture_Internal_GetWidthv
pdi:__ZL89SafeWaitHandle_t481461830_CustomAttributesCacheGenerator_SafeWaitHandle__ctor_m1710231470P21CustomAttributesCache
wil:_GC_check_leaked
w$b:__ZN9ShaderLab20SerializedSubProgram16TextureParameter8TransferI19StreamedBinaryWriteILb0EEEEvRT_
Bb:invoke_fiiiiiiiifiiiif
Yjf:_Array_InternalArray__Insert_TisVector4_t2243707581_m1643342708_gshared
M_k:__ZN15dense_hashtableINSt3__24pairIK10KeyWrapperINS1_IPK14Il2CppAssemblyP11Il2CppClassEEEjEES9_17ReflectionMapHashIS8_EN14dense_hash_mapIS9_jSD_19ReflectionMapEqualsIS8_ENS0_9allocatorISB_EEE9SelectKeyESG_SI_EC2EjRKSD_RKSG_RKSK_
S8a:__Z18SkinGenericMathLibILi4ELb0ELb0EEvR12SkinMeshInfo
Vpj:_Mask_OnSiblingGraphicEnabledDisabled_m865494155
jqh:_KeysCollection_System_Collections_ICollection_get_SyncRoot_m2289369147
HZ:__ZN11UnityEngine15CloudWebService16SessionContainer8AddEventEPNS0_14CloudEventInfoE
vxj:_Text_set_resizeTextMaxSize_m4034967714
Xci:__ZL55GuidAttribute_t222072359_CustomAttributesCacheGeneratorP21CustomAttributesCache
EKi:_GUIStyle_SetDefaultFont_m2095841351
BMh:_CustomAttributeNamedArgument_Equals_m2691468532
w6k:__ZN15dense_hashtableI10KeyWrapperIP18Il2CppGenericClassES3_N6il2cpp8metadata22Il2CppGenericClassHashEN14dense_hash_setIS3_S6_NS5_25Il2CppGenericClassCompareENSt3__29allocatorIS3_EEE8IdentityES8_SB_E14squash_deletedEv
U9h:__ZL74String_t_CustomAttributesCacheGenerator_String_Concat_m3881798623____args0P21CustomAttributesCache
Yki:__ZL103CryptoConfig_t896479599_CustomAttributesCacheGenerator_CryptoConfig_CreateFromName_m2169102076____args1P21CustomAttributesCache
Syb:__ZN10VertexData8TransferI14SafeBinaryReadEEvRT_
Apd:__ZN5physx19NpArticulationJointD0Ev
vP:__ZN4FMOD8ChannelI8setDelayE14FMOD_DELAYTYPEjj
KDf:_Stack__ctor_m2410583781
LWk:__ZN6il2cpp2gc19AppendOnlyGCHashMapINSt3__24pairIPK10MethodInfoP11Il2CppClassEEP22Il2CppReflectionMethod17ReflectionMapHashIS9_E19ReflectionMapEqualsIS9_EE11TryGetValueERKS9_PSB_
Mfb:__ZN15SerializeTraitsINSt3__24pairI8UnityStrN11AssetBundle9AssetInfoEEEE8TransferI18StreamedBinaryReadILb0EEEEvRS5_RT_
_ve:__Z59Register_UnityEngine_Physics_INTERNAL_CALL_Internal_Raycastv
XWk:__ZNK19ReflectionMapEqualsINSt3__24pairIPK10MethodInfoP11Il2CppClassEEEclERK10KeyWrapperIS7_ESC_
$Lh:_Default_GetBetterMethod_m4255740863
ENh:_ConstructorBuilder_GetILGenerator_m1731893569
QDc:__Z9UpdateTplIL27ParticleSystemCurveEvalMode0EEvRK11MinMaxCurveS3_S3_R23ParticleSystemParticlesjjbRKN4math8float3x3E
qSd:__ZNK5physx7NpScene17getFilterCallbackEv
Loj:__Z48RuntimeInvoker_UIVertex_t1204258818_Il2CppObjectPK10MethodInfoPvPS2_
B8k:__ZNSt3__214__split_bufferIN6il2cpp2vm5Image20EmbeddedResourceDataERNS_9allocatorIS4_EEED2Ev
w7:__ZL20SortItemByInstanceIDRKN18AwakeFromLoadQueue4ItemES2_
Yse:__ZN5physx6shdfnd5ArrayIPvNS0_15InlineAllocatorILj256ENS0_19ReflectionAllocatorINS_24NpPtrTableStorageManager8PtrBlockILi16EEEEEEEE15growAndPushBackERKS2_
qSh:_TypeBuilder_create_runtime_class_m2719530260
jYe:_RNGCryptoServiceProvider_RngClose_m2921734810
_8a:__Z26SkinVerticesGenericMathLibILi1ELb1ELb1EEvPKhiiiiPhiPKvS4_
ref:_Array_InternalArray__IEnumerable_GetEnumerator_TisVector2_t2243707579_m829381124_gshared
STe:__ZN20UnityConnectSettings8TransferI24GenerateTypeTreeTransferEEvRT_
KD:__ZN34BlobWriteTransferSTLStyleArrayImplI22OffsetPtrArrayTransferIbEEclERS1_17TransferMetaFlagsR9BlobWrite
Rti:__ZL199U3CCreateWhereIteratorU3Ec__Iterator1D_1_t2523986802_CustomAttributesCacheGenerator_U3CCreateWhereIteratorU3Ec__Iterator1D_1_System_Collections_Generic_IEnumeratorU3CTSourceU3E_get_Current_m517722874P21CustomAttributesCache
onj:__Z37RuntimeInvoker_LabelFixup_t4090909514PK10MethodInfoPvPS2_
rhg:_ReadOnlyCollection_1_Contains_m1227826160_gshared
Cak:_GCHandle_GetHashCode_m1664905595_AdjustorThunk
q0g:_SimpleCollator_IsHalfKana_m4255579023
Ynh:_InternalAsyncResult_get_Count_m1291942796
a7f:_Collection_1_System_Collections_IList_Contains_m3365884450_gshared
vAd:__ZN5physx7NpShape13setRestOffsetEf
Peg:_Collection_1_set_Item_m3440986310_gshared
y6g:_KeyGeneratedEventHandler_Invoke_m760006389
zvg:_BaseMeshEffect__ctor_m2843647600
Nch:_ASN1__ctor_m3688855288
XAd:__ZN5physxL11getTriangleERKNS_2Gu12TriangleMeshEjPNS_6PxVec3EPKS4_PKvRKNS_2Cm8Matrix34Eb
qU:__ZN13AudioListener12CleanupClassEv
F9k:__ZN15dense_hashtableINSt3__24pairIK10KeyWrapperIP12Il2CppObjectEN6il2cpp2gc9CachedCCWEEES5_NS7_5utils11PointerHashIS3_EEN14dense_hash_mapIS5_S9_SD_NS0_8equal_toIS5_EENS0_9allocatorISA_EEE9SelectKeyESG_SI_E9copy_fromERKSL_j
Zpe:__ZN14SafeBinaryRead21TransferSTLStyleArrayINSt3__26vectorIjNS1_9allocatorIjEEEEEEvRT_17TransferMetaFlags
uih:_ClientSessionInfo_Dispose_m2571428025
dda:__Z13GetIEnlightenv
Olh:_RecordProtocol_decryptRecordFragment_m2510859489
bCd:__ZNK5physx7NpCloth16lockParticleDataEv
dqg:_BaseRaycaster_get_sortOrderPriority_m3340181311
uDb:__ZN11TimeManager8TransferI19StreamedBinaryWriteILb0EEEEvRT_
MTg:_DelegatePInvokeWrapper_ReadDelegate_t3184826381
Mti:__ZL91HashSet_1_t2624254809_CustomAttributesCacheGenerator_HashSet_1_OnDeserialization_m627602129P21CustomAttributesCache
VFe:_compare_uni_maps
QKe:__ZL34RegisterModuleICalls_TextRenderingv
eSe:__ZN11UnityEngine15PlatformWrapper27GetGraphicsCapsSupportFlagsEv
dMe:__ZNSt3__218__insertion_sort_3IRPFbPN2UI6CanvasES3_EPS3_EEvT0_S8_T_
kai:__ZL80Decimal_t724701077_CustomAttributesCacheGenerator_Decimal_op_Explicit_m714968249P21CustomAttributesCache
aNf:_Decimal_Equals_m1115043331
CXd:__ZN5physx13NpRigidStatic9visualizeERNS_2Cm12RenderOutputEPNS_7NpSceneE
bSb:__ZN12NativeBufferI16Converter_StringE15SetupForWritingER9ArrayInfo
zNl:___cxa_end_catch__wrapper
jxl:__ZNSt3__210moneypunctIcLb0EED0Ev
Lj:_emscripten_glVertexAttrib3fv
yKd:__ZNK5physx22NpParticleBaseTemplateINS_16PxParticleSystemENS_16NpParticleSystemEE13getRestOffsetEv
YZd:__ZN5physx6shdfnd8PoolBaseINS_2Sc35ParticleElementRbElementInteractionENS0_19ReflectionAllocatorIS3_EEE15disposeElementsEv
P$h:_ValueCollection_System_Collections_Generic_ICollectionU3CTValueU3E_Clear_m231380274_gshared
grg:_Entry__ctor_m1176697586
kRg:_BinaryReader_ReadUInt32_m1363572147
WZg:_MonoType_get_Module_m3769241394
Wpi:__ZL79Convert_t2607082565_CustomAttributesCacheGenerator_Convert_ToUInt32_m3391339025P21CustomAttributesCache
Qoj:__Z37RuntimeInvoker_Enumerator_t1147558387PK10MethodInfoPvPS2_
d7a:__ZN13MonoBehaviour22DoScriptRebuildWarningEv
Exj:_Text_get_verticalOverflow_m3134063496
O3k:__ZN6il2cpp6icalls8mscorlib6System5Array13ClearInternalEP11Il2CppArrayii
_cj:__Z155RuntimeInvoker_Boolean_t3825574718_Vector3_t2243707580_Vector3_t2243707580_RaycastHitU26_t1969197280_Single_t2076509932_Int32_t2071877448_Int32_t2071877448PK10MethodInfoPvPS2_
x7k:__ZN15dense_hashtableINSt3__24pairIK10KeyWrapperINS1_IPKcS4_EEEiEES6_24NamespaceAndNamePairHashN14dense_hash_mapIS6_iS9_26NamespaceAndNamePairEqualsNS0_9allocatorIS8_EEE9SelectKeyESB_SD_E4findERS7_
gLe:__Z38TextGenerator_Get_Custom_PropLineCountP12Il2CppObject
Y5c:__ZN5physx2Gu26EPASupportMapPairLocalImplINS0_9TriangleVENS0_4BoxVEED0Ev
GDl:_llvm_cttz_i32
cuh:_PublicKey_DecodeDSA_m1169363495
J2k:__ZNK15dense_hashtableINSt3__24pairIK10KeyWrapperINS1_IP11Il2CppClassjEEES4_EES6_N6il2cpp8metadata14ArrayClassHashEN14dense_hash_mapIS6_S4_SB_NSA_17ArrayClassCompareENS0_9allocatorIS8_EEE9SelectKeyESD_SF_E12test_deletedEj
Drc:__ZN11IMGUIModule25GetGUIStyleScriptingClassEv
TIe:_tt_get_interface
xIh:_AsymmetricKeyExchangeFormatter__ctor_m3362140205
aqh:_NameObjectCollectionBase_BaseGet_m667273025
TOe:__ZZN2UI14CanvasRenderer15InitializeClassEvEN32FunctorImpl_801kTransformChanged4CallEPviR11MessageData
z6d:__ZN5physx14PxsAABBManager16processBPResultsERKNS_20PxsComputeAABBParamsE
Pzc:__ZN9JSONWrite8TransferI13dynamic_arrayIiLj4EEEEvRT_PKc17TransferMetaFlags
G4d:__ZN5physx23PxsBroadPhaseContextSapD2Ev
poe:__ZN5physx12SubSortQuickC2EPjPKNS_10PxBounds3VEjf
vzl:__ZNSt3__2L13utf8_to_utf16EPKhS1_RS1_PtS3_RS3_mNS_12codecvt_modeE
E6:__Z18ConvertUTF16toUTF8PPKtS0_PPhS2_15ConversionFlags
qfl:__ZN6il2cpp2os20PathErrnoToErrorCodeERKNSt3__212basic_stringIcNS1_11char_traitsIcEENS1_9allocatorIcEEEEi
eEj:_TypeLoadException__ctor_m1903359728
cDk:__ZL16my_g_bit_nth_msfj
k_h:_Transform_1_BeginInvoke_m3014766640_gshared
y9k:__ZN14dense_hash_mapI10KeyWrapperIP12Il2CppObjectEN6il2cpp2gc9CachedCCWENS4_5utils11PointerHashIS1_EENSt3__28equal_toIS3_EENSA_9allocatorINSA_4pairIKS3_S6_EEEEE15set_deleted_keyERSF_
z8a:__Z20DeformSkinnedMeshJobP12SkinMeshInfo
$Ve:_KeySizes__ctor_m3526899007
fNg:_Int16_System_IConvertible_ToInt32_m191782913_AdjustorThunk
OHk:__ZL25UnresolvedVirtualCall_180P12Il2CppObject19Vector3_t2243707580S1_PK10MethodInfo
ial:__ZN15dense_hashtableINSt3__24pairIK10KeyWrapperIP12Il2CppObjectEN6il2cpp2gc9CachedCCWEEES5_NS7_5utils11PointerHashIS3_EEN14dense_hash_mapIS5_S9_SD_NS0_8equal_toIS5_EENS0_9allocatorISA_EEE9SelectKeyESG_SI_E15insert_noresizeERKSA_
zAi:__ZL69ArgumentCache_t4810721_CustomAttributesCacheGenerator_m_FloatArgumentP21CustomAttributesCache
a8f:_Collection_1_CopyTo_m1578267616_gshared
o8e:_EncoderReplacementFallback__ctor_m2208438262
ZZa:__Z23SetupStereoFlareElementP11FlareVertexRK8Vector2fS3_S3_RK11ColorRGBA32RK10Matrix4x4fRK8Vector3fb
k5i:__Z77RuntimeInvoker_Void_t1841601450_StringBuilderU26_t731233658_Int32_t2071877448PK10MethodInfoPvPS2_
MYe:_RSACryptoServiceProvider__ctor_m2716420409
pKk:__ZN6il2cpp2vm5Class15GetInstanceSizeEPK11Il2CppClass
f1h:_Dictionary_2__ctor_m871840915_gshared
Xa:invoke_iiiifiiii
szj:_UTF7Decoder_GetChars_m2790530452
mBc:__ZN9rapidjson8internal6u64toaEyPc
Tzk:_EventFunction_1_BeginInvoke_m3064802067_gshared
Eqi:__ZL67IndexOutOfRangeException_t3527622107_CustomAttributesCacheGeneratorP21CustomAttributesCache
BEd:__ZNK5physx2Sc9ClothCore16getRestPositionsEPNS_6PxVec4E
n1d:__ZN5physx20PxcSweepConvexConvexERKNS_11PxsCCDShapeES2_PKNS_12PxsRigidBodyES5_RKNS_11PxTransformES8_S8_S8_fRNS_6PxVec3ESA_RNS_10PxcNpCacheERNS_18PxcNpThreadContextEf
QRg:_Directory_GetFiles_m4036267478
MPf:_Enum_System_IConvertible_ToType_m2669300536
IHd:__ZN5physx15PxsParticleDataD0Ev
jIa:__ZL19BlitFramebufferImplRN4gles23BlitFramebufferDrawQuadER9GfxDevice9TextureIDRK8Vector4f
RNb:__Z18Transfer_BlittableI17RemapPPtrTransferLb0EhEvRK29SerializationCommandArgumentsR31RuntimeSerializationCommandInfo
gme:__ZN5physx6shdfnd5ArrayIPvNS0_19ReflectionAllocatorIN17PxcPoolMallocData9PoolData8EEEE15growAndPushBackERKS2_
FYi:__Z44RuntimeInvoker_Byte_t3683104436_Il2CppObjectPK10MethodInfoPvPS2_
Ihg:_ReadOnlyCollection_1_System_Collections_IList_Add_m2333231354_gshared
fpi:__ZL78Convert_t2607082565_CustomAttributesCacheGenerator_Convert_ToSByte_m2470292806P21CustomAttributesCache
Uye:_UNITY_FT_List_Add
gSh:_OpCodes__cctor_m939885911
t5b:__ZN14Texture2DArray11InitTextureEiii13TextureFormatb
veh:_PKCS1_RSASP1_m1748738009
WEh:_ObjectReader_ReadPrimitiveTypeValue_m3808038676
ope:__ZN5physx15PxGeometryQuery14getWorldBoundsERKNS_10PxGeometryERKNS_11PxTransformEf
smh:_RSASslSignatureDeformatter_SetHashAlgorithm_m4048969080
QFd:__ZN5physx2Sc9ClothCore18setSolverFrequencyEf
Jmk:_UriParser_InitializeAndValidate_m251943319
epc:__Z26Object_Set_Custom_PropNameP12Il2CppObjectP12Il2CppString
U_e:_SymmetricAlgorithm_set_Padding_m3081984460
bDb:__ZN9InputAxis8TransferI18StreamedBinaryReadILb0EEEEvRT_
Cke:__ZN5physx2Gu11HeightField8requiresERNS_23PxProcessPxBaseCallbackE
KGh:_StreamingContext_t1417235061_marshal_pinvoke_back
j1c:__ZN5physx2Gu16buildPartialHullERKNS0_13PolygonalDataEPNS0_12SupportLocalERNS0_14SeparatingAxesERKNS_6shdfnd3aos5Vec3VESC_
Rxf:_ArrayList_RemoveAt_m2578928333
X5e:_String_ToString_m3226660001
pDc:__Z9UpdateTplIL27ParticleSystemCurveEvalMode0EEvRK11MinMaxCurveS3_S3_R23ParticleSystemParticlesjjbRKN4math8float3x3ERKNS6_7_float4E
Ogg:_ReadOnlyCollection_1_System_Collections_IList_set_Item_m1233322304_gshared
Xmk:_GeneralNames_get_DNSNames_m2721668874
HDc:__ZN11NoiseModule17CalculateNoiseJobILi3ELb1ELb1EEEvP12NoiseJobData
CPf:_Enum_System_IConvertible_ToByte_m38374586
wgg:_ReadOnlyCollection_1_System_Collections_Generic_IListU3CTU3E_RemoveAt_m1592158292_gshared
RHl:_emscripten_glFrustum__wrapper
Ood:__ZNK5physx2Sc16ArticulationCore17releaseDriveCacheERNS_9PxcFsDataE
fmh:_ReceiveRecordAsyncResult_get_CompletedWithError_m2670396551
NMf:_Decimal_Equals_m1798565377
znb:__ZN17GlobalGameManager8TransferI24GenerateTypeTreeTransferEEvRT_
hil:_GC_push_all
_cd:__ZN5physx11NpAggregate7releaseEv
sFi:__ZL66InputField_t1631627530_CustomAttributesCacheGenerator_m_CaretColorP21CustomAttributesCache
ROh:_TypeBuilder_check_created_m2929267877
yw:__ZN19StreamedBinaryWriteILb0EE8TransferIKN4math7_float3EEEvRT_PKc17TransferMetaFlags
JJa:__ZN15TextureTFMethod20IsBoneCountSupportedEi
eLi:_GUISkin_set_horizontalScrollbarThumb_m2119687595
sBh:_ObjRef__ctor_m1486312270
Tfc:__ZN15dense_hashtableINSt3__24pairIKy9PlaneDataEEyN32PlaneColliderCache_dense_hashmap17UInt64HashFunctorEN14dense_hash_mapIyS3_S6_NS0_8equal_toIyEE13stl_allocatorIS4_L18MemLabelIdentifier65ELi16EEE9SelectKeyES9_SC_E12resize_deltaEjj
dHf:_Convert_ToInt16_m416789348
OJf:_DateTime_System_IConvertible_ToSByte_m2575078084_AdjustorThunk
dOb:__Z22TransferField_NonArrayI17RemapPPtrTransfer27Converter_SimpleNativeClassI8GUIStyleEEvRK23StaticTransferFieldInfoR31RuntimeSerializationCommandInfoRT0_
mKj:_AnimatorStateInfo_IsTag_m1529621725_AdjustorThunk
pAd:__ZN5physx7NpShape12setMaterialsEPKPNS_10PxMaterialEt
Z3b:__ZNK17AnimationCurveTplIfE20EvaluateWithoutCacheEfRf
pel:__ZN6il2cpp2os6Thread12QueueUserAPCEPFvPvES2_
Srd:__ZNK5physx18NpArticulationLink13isSubordinateEv
xdf:_Array_InternalArray__IEnumerable_GetEnumerator_TisDictionaryEntry_t3048875398_m3498834924_gshared
VNi:_GUIStyleState__ctor_m3611888666
N9f:_Collection_1_IsValidItem_m1304951912_gshared
yac:__ZN4Mesh10SetNormalsEPK8Vector3fj
OVh:_PropertyInfo__ctor_m1808219471
$Zc:__Z66Register_UnityEngine_Physics2D_INTERNAL_CALL_GetRayIntersectionAllv
ZFf:_Convert_ToDateTime_m4161927553
z9i:__Z76RuntimeInvoker_Void_t1841601450_RegexOptionsU26_t3063574985_SByte_t454417549PK10MethodInfoPvPS2_
XOh:_TypeBuilder_GetConstructors_m774120094
rt:__ZN17AnimationCurveTplIfE8TransferI14SafeBinaryReadEEvRT_
Qzl:__ZNKSt3__28numpunctIcE16do_thousands_sepEv
tPc:__ZN22ParticleSystemRenderer15InitializeClassEv
Zkk:_RegularExpression_set_GroupCount_m2991393456
Qad:__ZN5physx2Gu9RadixSortD2Ev
lRf:_Calendar_get_EraNames_m452820602
rvb:__ZNSt3__26vectorIN15QualitySettings14QualitySettingENS_9allocatorIS2_EEE6assignIPS2_EENS_9enable_ifIXaasr21__is_forward_iteratorIT_EE5valuesr16is_constructibleIS2_NS_15iterator_traitsIS9_E9referenceEEE5valueEvE4typeES9_S9_
XZd:__ZN5physx6shdfnd8PoolBaseINS_2Sc10NPhaseCore16ClothListElementENS0_19ReflectionAllocatorIS4_EEE15disposeElementsEv
N8c:__Z15raycast_capsuleRKN5physx10PxGeometryERKNS_11PxTransformERKNS_6PxVec3ES8_fNS_7PxFlagsINS_9PxHitFlag4EnumEtEEjPNS_12PxRaycastHitEbPFbRSD_PvESG_
zYa:__ZNK19ShaderPropertySheet11HasPropertyERKN9ShaderLab16FastPropertyNameE
zKa:__ZN14DrawBufferGLESI12VertexBuffer27VertexBufferUsageMapperGLESE8EndWriteEj
zJf:_DateTime_System_IConvertible_ToByte_m2670443498_AdjustorThunk
zGd:__ZNK5physx15NpActorTemplateINS_15PxParticleFluidEE14getOwnerClientEv
rEi:__ZL58FontData_t2614388407_CustomAttributesCacheGenerator_m_FontP21CustomAttributesCache
QTk:_il2cpp_class_get_image
Gaa:__Z16AsyncReadRequestP16AsyncReadCommand
Xsi:__ZL81BigInteger_t925946153_CustomAttributesCacheGenerator_BigInteger__ctor_m4013661868P21CustomAttributesCache
qfe:__ZNK5physx34PxsSolverConstraintPostProcessTask7getNameEv
ich:_BigInteger_op_Addition_m1734797151
agj:__Z110RuntimeInvoker_Boolean_t3825574718_Vector2_t2243707579_Vector2_t2243707579_Single_t2076509932_SByte_t454417549PK10MethodInfoPvPS2_
t2c:__ZN5physx2Gu23distancePointBoxSquaredERKNS_6PxVec3ES3_S3_RKNS_7PxMat33EPS1_
hte:__ZN5physx9NpPhysics20MeshDeletionListener28onGuMeshFactoryBufferReleaseEPKNS_6PxBaseEtb
J8f:_Collection_1_System_Collections_IList_set_Item_m3488446830_gshared
tPh:_EnumBuilder_CreateNotSupportedException_m62763134
nvh:_X509Chain_CheckRevocation_m2480313486
uXe:_RijndaelManagedTransform_TransformBlock_m2558865851
f9f:_Collection_1_System_Collections_Generic_ICollectionU3CTU3E_get_IsReadOnly_m4096071066_gshared
TCb:__ZN9InputAxis8TransferI14SafeBinaryReadEEvRT_
M7:__ZNK21ExecutionOrderManager30GetCustomAwakeFromLoadQueueForEPKN5Unity4TypeE
LRd:__ZNK5physx7NpScene9getActorsENS_7PxFlagsINS_15PxActorTypeFlag4EnumEtEEPPNS_7PxActorEjj
$Ue:__Z27RegisterModule_UnityConnectv
PVf:_Enumerator_Dispose_m3717265706_AdjustorThunk
xJd:__ZN5physx15PxParticleFluidD0Ev
CZd:__ZN5physx11NodeManagerD0Ev
G_h:_Enumerator__ctor_m908409898_gshared
eMj:_Bounds_get_size_m1728027642_AdjustorThunk
hCh:_RealProxy__ctor_m3041043303
BJg:_NumberFormatter_Init_m2654758994
Cdd:__ZNK5physx2Sc8BodyCore6getSimEv
bBl:__ZNSt3__214__split_bufferIPNS_6locale5facetERNS_15__sso_allocatorIS3_Lj28EEEEC2EjjS6_
Xte:__ZNK5physx2Gu15HeightFieldUtil18getVertexFaceIndexEjjj
H9k:__ZN15dense_hashtableINSt3__24pairIK10KeyWrapperIP12Il2CppObjectEN6il2cpp2gc9CachedCCWEEES5_NS7_5utils11PointerHashIS3_EEN14dense_hash_mapIS5_S9_SD_NS0_8equal_toIS5_EENS0_9allocatorISA_EEE9SelectKeyESG_SI_E8min_sizeEjj
RQ:__ZN10ObjectPoolIN4FMOD12ChannelGroupENS0_13ChannelGroupIEE7SetSizeEi
n3g:_PrimalityTest_BeginInvoke_m966469054
nkg:_ReadOnlyCollection_1_System_Collections_Generic_ICollectionU3CTU3E_Clear_m1785953911_gshared
QTc:__ZNSt3__26__sortIR26ColliderIdentityComparitorPP10Collider2DEEvT0_S6_T_
fHj:_UInt64_System_IConvertible_ToInt16_m2797150165_AdjustorThunk
Zof:_Array_InternalArray__get_Item_TisLabelData_t3712112744_m863115768_gshared
LOg:_Int32_Parse_m753946802
Pv:__ZN18StreamedBinaryReadILb0EE21TransferSTLStyleArrayI22OffsetPtrArrayTransferIN7mecanim9animation10ValueDeltaEEEEvRT_17TransferMetaFlags
xWj:_GUIContent_t4210063000_marshal_pinvoke
D$:__Z22ValidateTlsfAllocationPvjiS_
Nia:__ZN18StreamedBinaryReadILb1EE21TransferSTLStyleArrayINSt3__212basic_stringIcNS2_11char_traitsIcEE13stl_allocatorIcL18MemLabelIdentifier1ELi16EEEEEEvRT_17TransferMetaFlags
vzd:__ZN5physx2Cm12RefCountable14onRefCountZeroEv
EG:__ZN15SerializeTraitsINSt3__24pairI8StateKey10StateRangeEEE8TransferI14SafeBinaryReadEEvRS4_RT_
LSh:_UnmanagedMarshal_ToMarshalAsAttribute_m3695569337
LCd:__ZNK5physx7NpCloth25getMotionConstraintConfigEv
zMb:__Z14resize_trimmedINSt3__26vectorI17AnimationCurveTplIfE13stl_allocatorIS3_L18MemLabelIdentifier1ELi16EEEEEvRT_j
qIk:__ZL25UnresolvedVirtualCall_210P12Il2CppObject38CustomAttributeNamedArgument_t94157543PK10MethodInfo
Wib:__Z12GUIDToStringRK9UnityGUID
QHg:_LayoutElement_get_minHeight_m2070403283
hbl:__ZN6il2cpp6icalls8mscorlib6System4Enum12get_hashcodeEP12Il2CppObject
_M:__ZN11SoundHandleC2ERKS_
Wpj:_Mask_OnEnable_m501850981
VDc:__Z9UpdateTplIL27ParticleSystemCurveEvalMode2EEvRK11MinMaxCurveR23ParticleSystemParticlesPfRKN4math7_float4Ejj
jNj:_Canvas_get_targetDisplay_m316548313
eG:__ZN18AnimatorController23VirtualRedirectTransferER18StreamedBinaryReadILb0EE
XQd:__ZThn8_N5physx2Sc24ElementInteractionMarker7destroyEv
U0b:__ZN12ScriptMapper23VirtualRedirectTransferER18StreamedBinaryReadILb1EE
Wu:__ZN11Quaternionf8TransferI18StreamedBinaryReadILb1EEEEvRT_
tbb:__Z29StdTemplateConversionFunctionItxEbPvR14SafeBinaryRead
Tck:_FormatterData__ctor_m3974986124
ifi:__ZL64FileNotFoundException_t4200667904_CustomAttributesCacheGeneratorP21CustomAttributesCache
LUj:_CustomAnimationPlayable_SetInputs_m1393448423
sXe:_RijndaelManagedTransform_get_CanReuseTransform_m3735256596
Dad:__ZN5physx3Cct26CharacterControllerManager24setOverlapRecoveryModuleEb
WAf:_Comparer__cctor_m1327316974
LRg:_MonoIO_ExistsFile_m1421941572
YKf:_DateTime_op_GreaterThanOrEqual_m3818963848
Txa:__ZNSt3__26__treeINS_12__value_typeI18VertexChannelsInfoP17VertexDeclarationEENS_19__map_value_compareIS2_S5_NS_4lessIS2_EELb1EEE13stl_allocatorIS5_L18MemLabelIdentifier14ELi16EEE12__find_equalIS2_EERPNS_16__tree_node_baseIPvEENS_21__tree_const_iteratorIS5_PNS_11__tree_nodeIS5_SG_EEiEESJ_RKT_
rL:__ZNSt3__212basic_stringIcNS_11char_traitsIcEE13stl_allocatorIcL18MemLabelIdentifier66ELi16EEE6resizeEjc
Eyg:_DefaultControls_SetDefaultTextValues_m1707718380
Cug:_TouchInputModule_UseFakeInput_m2112019004
wqg:_EventSystem_get_baseEventDataCache_m4294741599
oDl:___cxa_guard_release
Tob:__ZN14RenderSettings18TransferDeprecatedI14SafeBinaryReadEEvRT_
sDc:__Z9UpdateTplIL27ParticleSystemCurveEvalMode3EEvRK11MinMaxCurveS3_S3_R23ParticleSystemParticlesjjbRKN4math8float3x3ERKNS6_7_float4E
$9g:__ZN6il2cpp2vm13ComObjectBaseI34__Il2CppComDelegate_t3311706788CCW18Il2CppIInspectableNS0_7details6ComNilES5_S5_S5_S5_S5_S5_ED2Ev
h2:__ZN12TLSAllocatorI14StackAllocatorE8AllocateEji
P8:__ZN16ScriptingManager18GetMonoScriptCacheEi
GNi:_GUIStyle_get_stretchHeight_m3396762700
YOa:__ZN20ArchiveStorageHeader13GetDataOffsetERKNS_6HeaderE
uNk:__ZN13dynamic_arrayIPK10Il2CppTypeLj4EEC2ERKS3_
TCg:_GridLayoutGroup_CalculateLayoutInputHorizontal_m2355123124
Jti:__ZL84Locale_t4255929017_CustomAttributesCacheGenerator_Locale_GetText_m512920887____args1P21CustomAttributesCache
MLb:__Z18Transfer_BlittableI14SafeBinaryReadLb1EyEvRK29SerializationCommandArgumentsR31RuntimeSerializationCommandInfo
HCc:__ZNSt3__27__sort5IR31SortCollisionEventsByGameObjectP22ParticleCollisionEventEEjT0_S5_S5_S5_S5_T_
zvc:__ZN8JSONRead8TransferIfEEvRT_PKc17TransferMetaFlagsb
Swi:__ZL105Physics_t634932869_CustomAttributesCacheGenerator_Physics_Raycast_m3475924638____queryTriggerInteraction4P21CustomAttributesCache
vI:__ZN25RuntimeAnimatorController8TransferI17RemapPPtrTransferEEvRT_
Os:__ZN14SafeBinaryRead21TransferSTLStyleArrayI19StaticArrayTransferIiLi155EEEEvRT_17TransferMetaFlags
LTd:__ZNK5physx2Sc10NPhaseCore39getDefaultContactReportStreamBufferSizeEv
flg:_ReadOnlyCollection_1_System_Collections_ICollection_get_IsSynchronized_m4063596282_gshared
PBl:__ZNSt3__212basic_stringIcNS_11char_traitsIcEENS_9allocatorIcEEE6appendEPKcj
agi:__ZL54TypeBuilder_t3308873219_CustomAttributesCacheGeneratorP21CustomAttributesCache
wDd:__ZN5physx7NpCloth25setSelfCollisionStiffnessEf
V0d:__ZZN5physx28PxcSweepEstimateAnyShapeMeshERKNS_11PxsCCDShapeES2_PKNS_12PxsRigidBodyES5_RKNS_11PxTransformES8_fEN2CBD0Ev
Bag:_Collection_1_CheckWritable_m691269733_gshared
XPh:_GenericTypeParameterBuilder_GetAttributeFlagsImpl_m3338182267
jW:__ZN13Simd4iFactoryIN6detail9FourTupleEEC2Eiiii
iWg:_SynchronizedReader__ctor_m1408327515
bqk:_X509Store_LoadCrl_m1146720614
D2:__ZL41FileEntryInfoListToFolderContentsAbsoluteRK13dynamic_arrayI13FileEntryInfoLj8EERNSt3__23setINS4_12basic_stringIcNS4_11char_traitsIcEENS4_9allocatorIcEEEENS4_4lessISB_EENS9_ISB_EEEE
aoj:__Z54RuntimeInvoker_KeyValuePair_2_t3716250094_Il2CppObjectPK10MethodInfoPvPS2_
fmg:_ReadOnlyCollection_1_System_Collections_IList_Clear_m1858417639_gshared
HUc:__ZN10Collider2D14FinalizeCreateERK10Matrix4x4fR12b2FixtureDefP6b2BodyPK13dynamic_arrayIP7b2ShapeLj4EE
qSa:__ZZ23InitPlayerLoopCallbacksvEN38PostLateUpdateShaderHandleErrorsstruct7ForwardEv
Ssb:__ZN15SerializeTraitsI33EnlightenTerrainChunksInformationE8TransferI14SafeBinaryReadEEvRS0_RT_
pz:__ZN7mecanim9animation16MotionOutputCopyEPNS0_12MotionOutputEPKS1_bbRKNS_6bitsetILj66EEE
lxd:__ZN5physx2Sc14ConstraintCoreD2Ev
CXc:__ZN6b2Body12SetTransformERK6b2Vec2f
e6b:__ZNK32RendererMaterialAnimationBinding9BindValueER6ObjectRKN11UnityEngine9Animation14GenericBindingERNS3_10BoundCurveE
S1i:__Z112RuntimeInvoker_Int32_t2071877448_Il2CppObject_Int32_t2071877448_Int32_t2071877448_Il2CppObject_Int32_t2071877448PK10MethodInfoPvPS2_
jud:__ZN5physx15NpActorTemplateINS_18PxArticulationLinkEE13setActorFlagsENS_7PxFlagsINS_11PxActorFlag4EnumEtEE
h9a:__Z13GetIAnimationv
yua:__ZL18stbir__support_onef
Qle:__ZN5physx6shdfnd8internal8HashBaseIPNS_11PxAggregateES4_NS0_4HashIS4_EENS1_11HashSetBaseIS4_S6_NS0_9AllocatorELb0EE6GetKeyES8_Lb0EE15reserveInternalEj
nZf:_List_1_System_Collections_IList_Remove_m2040310137_gshared
Lgk:_Match_get_Regex_m3526002767
ufi:__ZL49Stream_t3255436806_CustomAttributesCacheGeneratorP21CustomAttributesCache
Vxc:__Z26Transfer_UnityEngineObjectI9JSONWriteLb0EEvRK29SerializationCommandArgumentsR31RuntimeSerializationCommandInfo
hOc:__ZN14VelocityModuleD2Ev
s8e:_EncoderReplacementFallback_CreateFallbackBuffer_m3579126537
mGj:_UInt32_System_IConvertible_ToInt16_m2251335934_AdjustorThunk
aNe:__ZNSt3__27__sort5IRNS_6__lessIN2UI14DepthSortEntryES3_EEPS3_EEjT0_S7_S7_S7_S7_T_
tYi:__Z31RuntimeInvoker_Void_t1841601450PK10MethodInfoPvPS2_
ltf:_Boolean_System_IConvertible_ToType_m3990189691
nXk:__ZN24dense_hashtable_iteratorINSt3__24pairIK10KeyWrapperINS1_IPK10MethodInfoP11Il2CppClassEEEjEES9_17ReflectionMapHashIS8_EN14dense_hash_mapIS9_jSD_19ReflectionMapEqualsIS8_ENS0_9allocatorISB_EEE9SelectKeyESG_SI_E30advance_past_empty_and_deletedEv
TXk:__ZNSt3__218uninitialized_copyIPNS_4pairIK10KeyWrapperINS1_IPK11Il2CppImageP11Il2CppClassEEEjEESC_EET0_T_SE_SD_
Fa:invoke_vdd
go:FUNCTION_TABLE_fiii
U2j:_InternalEnumerator_1_Dispose_m3838127340_AdjustorThunk
Pej:__Z36RuntimeInvoker_FontStyle_t2764949590PK10MethodInfoPvPS2_
dPf:_Double_System_IConvertible_ToUInt32_m624993430
ko:FUNCTION_TABLE_fiif
lCi:__ZL89PointerEventData_t1599784723_CustomAttributesCacheGenerator_U3CdraggingU3Ek__BackingFieldP21CustomAttributesCache
E4b:__ZNK30SpriteRendererAnimationBinding12GetPPtrValueERKN11UnityEngine9Animation10BoundCurveE
Zvl:__ZNKSt3__220__time_get_c_storageIcE7__am_pmEv
JBj:_Scheduler_Add_m376749205
e_i:__Z98RuntimeInvoker_Void_t1841601450_Int32_t2071877448_Il2CppObject_Int32_t2071877448_Int32_t2071877448PK10MethodInfoPvPS2_
Zml:__ZN6il2cpp6icalls8mscorlib4Mono8Security12Cryptography18KeyPairPersistence19_IsMachineProtectedEP12Il2CppString
qul:__ZNSt3__215__num_get_floatIeEET_PKcS3_Rj
QPj:_ContactPoint2D_t3659330976_marshal_pinvoke_cleanup
h5b:__Z14RandomRotationP9Texture2DPhiiii
w$g:_OutOfMemoryException__ctor_m1932883273
w1j:_InternalEnumerator_1_MoveNext_m1594563423_AdjustorThunk
Tre:__ZThn132_N5physx7profile8ZoneImplINS_28PxProfileNameProviderForwardEED1Ev
hOb:__Z65EmitSerializationCommandsForLinearCollectionOfManagedObjectsFieldI17RemapPPtrTransferEvRK23TransferArrayField_InfoR20SerializationCommandR32SerializationCommandQueueBuilderRP20AllowNameConversions
Zij:__Z76RuntimeInvoker_Boolean_t3825574718_DirectionU26_t743901654_Int32_t2071877448PK10MethodInfoPvPS2_
gFh:__ZN16VirtFuncInvoker0ItE6InvokeEjPv
B2i:__Z35RuntimeInvoker_TimeSpan_t3430258949PK10MethodInfoPvPS2_
ZMk:__ZN15dense_hashtableI10KeyWrapperIPK19Il2CppGenericMethodES4_N6il2cpp8metadata23Il2CppGenericMethodHashEN14dense_hash_setIS4_S7_NS6_26Il2CppGenericMethodCompareENSt3__29allocatorIS4_EEE8IdentityES9_SC_E8min_sizeEjj
Z1f:_List_1_System_Collections_IList_Insert_m2036969360_gshared
qGg:_InputField_GetUnclampedCharacterLineFromPosition_m1912794077
BXi:_SpaceAttribute__ctor_m1444406696
iSd:__ZN5physx7NpScene27setCCDContactModifyCallbackEPNS_26PxCCDContactModifyCallbackE
jTg:_ReadDelegate__ctor_m885671467
Tme:__ZNK5physx17ConvexHullBuilder17ComputeGeomCenterERNS_6PxVec3E
vLf:_DateTimeOffset_ToString_m2121173678_AdjustorThunk
sti:__ZL50X509Crl_t1699034837_CustomAttributesCacheGeneratorP21CustomAttributesCache
g5d:__ZN3MBPD0Ev
u_:__ZNK13EmscriptenWWW14GetPartialDataEv
UNl:_glDeleteProgram__wrapper
rhc:__Z50Register_UnityEngine_Camera_INTERNAL_get_pixelRectv
Rqa:__ZN19RuntimeSceneManager14LoadSceneAsyncERK8UnityStrS2_S2_RK9UnityGUIDiNS_11LoadingModeEbRP10UnityScene
Xij:__Z53RuntimeInvoker_UIVertex_t1204258818_Int32_t2071877448PK10MethodInfoPvPS2_
NOj:_Color_GetHashCode_m3182525367
hpa:__ZN6prcoreL18BlitFloatToIntegerERK14ImageReferenceRS0_
Fmj:__Z57RuntimeInvoker_KeyValuePair_2_t38854645_Int32_t2071877448PK10MethodInfoPvPS2_
S8g:_X509CertificateCollection_get_Item_m410866272
xUi:_Rect_get_yMax_m2915146103
pVd:__ZNK5physx10PxsContext18getBounceThresholdEv
Nyl:__ZNSt3__217__widen_from_utf8ILj32EED0Ev
UXc:__ZN7b2Timer5ResetEv
XY:__ZN11UnityEngine15CloudWebService14RestDownloader17OnCompleteContentEv
lDg:_LayoutGroup_SetChildAlongAxis_m1615929339
rQd:__ZN5physx6shdfnd5ArrayIPvNS0_15InlineAllocatorILj256ENS0_19ReflectionAllocatorINS_2Gu31SpherePersistentContactManifoldEEEEEE15growAndPushBackERKS2_
yhe:__ZN5physx2Cm18DelegateFanoutTaskINS_2Sc5SceneEXadL_ZNS3_17finalizationPhaseEPNS_10PxBaseTaskEEEE11runInternalEv
ifl:__ZNK15dense_hashtableINSt3__24pairIK10KeyWrapperIPK19Il2CppGenericMethodEP10MethodInfoEES6_N6il2cpp8metadata23Il2CppGenericMethodHashEN14dense_hash_mapIS6_S9_SD_NSC_26Il2CppGenericMethodCompareENS0_9allocatorISA_EEE9SelectKeyESF_SH_E13find_positionERS7_
U4f:_List_1_System_Collections_ICollection_get_SyncRoot_m1429670979_gshared
Za:invoke_vifff
yYj:_InternalEnumerator_1__ctor_m2111763266_gshared
$uf:_Byte_System_IConvertible_ToInt16_m1575115635_AdjustorThunk
wHd:__ZN5physx15NpParticleFluid15exportExtraDataERNS_22PxSerializationContextE
zMl:_glGetVertexAttribiv__wrapper
dtd:__ZN5physx6shdfnd15atomicDecrementEPVi
nf:_emscripten_request_fullscreen
she:__ZN5physx2Cm12DelegateTaskINS_2Sc5SceneEXadL_ZNS3_11postCCDPassEPNS_10PxBaseTaskEEEED0Ev
sUi:_Rect_get_xMin_m1161102488
o1:__ZN20LocalFileSystemWebGL6DeleteER13FileEntryDatab
zMf:_Decimal_System_IConvertible_ToUInt16_m1621568250
pf:_emscripten_glDisableVertexAttribArray
twi:__ZL79Object_t1021602117_CustomAttributesCacheGenerator_Object_Instantiate_m938141395P21CustomAttributesCache
ao:FUNCTION_TABLE_iiiifiiii
ECj:_TimeSpan_get_TotalMinutes_m1645177229_AdjustorThunk
sc:invoke_fifffi
FP:__ZN4FMOD5Sound15getNumSubSoundsEPi
oEa:__ZN4gles23ClearCurrentFramebufferEP7ApiGLESbbbRK10ColorRGBAffi
pA:__ZN7mecanim12statemachine20CreateStateWorkspaceEjjjRNS_6memory9AllocatorE
_Pe:__Z64Register_UnityEngine_CanvasRenderer_SplitIndiciesStreamsInternalv
ebj:__Z34RuntimeInvoker_Vector3_t2243707580PK10MethodInfoPvPS2_
zme:__ZN5physx2Gu11HeightField13releaseMemoryEb
Af:_emscripten_glDeleteObjectARB
vg:_IMG_Load
aXg:_UnexceptionalStreamReader_Read_m3839775235
yqa:__ZN6prcoreL27StretchGenericFloatBilinearI18TexFormatARGBFloatEEvPKNS_9InnerInfoE
vNa:__ZN10FileSystem25MountDataFolderFileSystemERKNSt3__212basic_stringIcNS0_11char_traitsIcEENS0_9allocatorIcEEEES8_
$nc:__Z53Register_UnityEngine_RenderTexture_Internal_GetHeightv
wCh:_RealProxy_SetTargetDomain_m3940877656
iqa:__ZN6prcoreL17RemapGenericFloatI17TexFormatRGBAHalf18TexFormatARGBFloatEEvPKNS_9InnerInfoE
IPf:_Enum_System_IConvertible_ToInt32_m2459904362
frc:__ZNK8GUIStyle21DrawWithTextSelectionER8GUIStateRK5RectTIfER10GUIContentbbbbbiiRK10ColorRGBAfSA_
Idc:__ZN10systeminfo21SupportsAccelerometerEv
trc:__Z14GetBuiltinSkini
$7e:_DecoderReplacementFallbackBuffer_Reset_m2576819665
hUj:_CustomAnimationPlayable_GetOutput_m2109551724
hCf:_Enumerator__cctor_m298562758
rCk:_Enumerator_System_Collections_IEnumerator_Reset_m2573763156_gshared
jZg:_MonoType_GetConstructors_internal_m2709619723
g2e:_WindowsIdentity_Dispose_m2649088337
_vb:__ZN2UI13RectTransform23VirtualRedirectTransferER14SafeBinaryRead
JCj:_TimeSpan_CompareTo_m2891128664
TSd:__ZN5physx7NpScene17flushQueryUpdatesEv
dca:__ZNSt3__26__treeINS_12__value_typeINS_12basic_stringIcNS_11char_traitsIcEENS_9allocatorIcEEEES7_EENS_19__map_value_compareIS7_S8_NS_4lessIS7_EELb1EEE13stl_allocatorIS8_L18MemLabelIdentifier12ELi16EEE7destroyEPNS_11__tree_nodeIS8_PvEE
y8f:_Collection_1_System_Collections_IList_Contains_m323652826_gshared
BWf:_List_1_System_Collections_ICollection_get_SyncRoot_m3733894943_gshared
M$f:_List_1_Reverse_m302978607_gshared
IU:__ZZL31InitializeAudioManagerCallbacksvEN33FixedUpdateAudioFixedUpdatestruct7ForwardEv
w_b:__ZN24GenerateTypeTreeTransfer8TransferINSt3__23mapI8UnityStriNS1_4lessIS3_EENS1_9allocatorINS1_4pairIKS3_iEEEEEEEEvRT_PKc17TransferMetaFlags
GZb:__ZNSt3__26vectorIN9ShaderLab20SerializedSubProgramENS_9allocatorIS2_EEE6assignIPS2_EENS_9enable_ifIXaasr21__is_forward_iteratorIT_EE5valuesr16is_constructibleIS2_NS_15iterator_traitsIS9_E9referenceEEE5valueEvE4typeES9_S9_
jvc:__Z18Transfer_BlittableI8JSONReadLb0E8BitFieldEvRK29SerializationCommandArgumentsR31RuntimeSerializationCommandInfo
xDh:_SoapServices_RegisterInteropXmlType_m2949236705
G0f:_List_1_Remove_m1211693753_gshared
vab:__ZN17PersistentManagerC2Eii
DOc:__ZZN14ParticleSystem15InitializeClassEvEN46PostLateUpdateParticleSystemEndUpdateAllstruct7ForwardEv
sUb:__ZL17Transfer_GUIStyleI18StreamedBinaryReadILb1EELb0EEvRK29SerializationCommandArgumentsR31RuntimeSerializationCommandInfo
P6e:_String_CharCopy_m2550399897
a2b:__ZN11TypeManager20RegisterNonClassTypeEiP4RTTIPKcS3_
jTd:__ZN5physx7NpScene10unlockReadEv
YXb:__ZN9ShaderLab14SerializedPass8TransferI14SafeBinaryReadEEvRT_
lsc:__Z71Register_UnityEngine_GUILayoutUtility_INTERNAL_CALL_Internal_MoveWindowv
BU:__ZN12AudioManager16SetListenerPauseEb
fxl:__ZNKSt3__28time_putIwNS_19ostreambuf_iteratorIwNS_11char_traitsIwEEEEE6do_putES4_RNS_8ios_baseEwPK2tmcc
$8f:_Collection_1_IsValidItem_m2254106115_gshared
fPh:_TypeBuilder_GetEvent_m3876348075
Lwj:_Slider_OnMove_m641164662
ca:invoke_viiiiiiiiiii
cpl:___syscall_ret
MBj:_Scheduler__ctor_m3716265742
T5g:_MACAlgorithm_Final_m4076939925
b0k:__ZNSt3__212basic_stringIcNS_11char_traitsIcEENS_9allocatorIcEEE6assignINS_11__wrap_iterIPKcEEEENS_9enable_ifIXaasr21__is_forward_iteratorIT_EE5valuesr38__libcpp_string_gets_noexcept_iteratorISC_EE5valueERS5_E4typeESC_SC_
flh:_TlsServerKeyExchange_ProcessAsSsl3_m462106368
OAb:__ZN11ChannelInfo8TransferI19StreamedBinaryWriteILb0EEEEvRT_
dZj:_InternalEnumerator_1_System_Collections_IEnumerator_get_Current_m3583252352_gshared
c4k:__ZN6il2cpp2vm14PlatformInvoke21SetFindPluginCallbackEPFPKcS3_E
JHb:__ZN23ArchiveStorageConverter24ReadHeaderFromMemoryFileEv
HOh:_EnumBuilder_get_FullName_m2818393911
NEd:__ZN5physx2Sc9ClothCore22setFrictionCoefficientEf
wwc:__Z18Transfer_BlittableI8JSONReadLb1E10ColorRGBAfEvRK29SerializationCommandArgumentsR31RuntimeSerializationCommandInfo
Lyd:__ZNK5physx9NpPhysics17getNbConvexMeshesEv
hVg:_StreamAsyncResult_get_Done_m2858832609
GSd:__ZNK5physx7NpScene29getContactCorrelationDistanceEv
qjc:__Z34Register_UnityEngine_Gradient_Initv
ngk:_DictionaryEnumerator_get_Entry_m1597857786
uIc:__ZN13InitialModule8TransferI17RemapPPtrTransferEEvRT_
hKa:__Z26TransformVerticesInnerLoopILb1ELb1ELb0EEvPhRK10Matrix4x4fRK10Matrix3x3fjPKhiiiS8_ii25GfxTransformVerticesFlags
jBk:_ObjectPool_1_set_countAll_m1742773675_gshared
jGh:_SerializationEntry_get_Value_m1628109884_AdjustorThunk
Vpg:_BaseInputModule_GetAxisEventData_m3903709281
mpf:_Array_InternalArray__get_Item_TisUriScheme_t1876590943_m1821482697_gshared
kmf:_Array_Sort_TisIl2CppObject_m1954851512_gshared
kbh:_BigInteger__ctor_m3239748086
J0:__ZN13ScreenManager23SetIsOrientationEnabledE18EnabledOrientationb
zFk:__ZL24UnresolvedVirtualCall_57P12Il2CppObjectiPK10MethodInfo
wpi:__ZL79Convert_t2607082565_CustomAttributesCacheGenerator_Convert_ToUInt16_m1043031438P21CustomAttributesCache
cDb:__ZN9InputAxis8TransferI19StreamedBinaryWriteILb0EEEEvRT_
cuc:__Z45Register_UnityEngine_GUIStyle_GetFontInternalv
hcd:__ZN5physx6shdfnd8SyncImpl4waitEj
_cg:_Collection_1_System_Collections_IList_get_IsFixedSize_m3946690039_gshared
P3h:_DefaultComparer_GetHashCode_m2506382068_gshared
FPj:_Component_SendMessageUpwards_m19741277
E7h:_EqualityComparer_1_System_Collections_IEqualityComparer_GetHashCode_m1012273405_gshared
Nhf:_Array_InternalArray__ICollection_Add_TisHitInfo_t1761367055_m2956071622_gshared
kDh:__ZN16VirtFuncInvoker1IP30MarshalByRefObject_t1285298191P6Type_tE6InvokeEjPvS3_
oFc:__ZN33SizeBySpeedModulePropertyBindings13GetFloatValueERK14ParticleSystemi
F7a:__ZN10GameObject23VirtualRedirectTransferER18StreamedBinaryReadILb0EE
Adl:__ZN6il2cpp2gc16GarbageCollector13AllocateFixedEjPv
k6j:_InternalEnumerator_1_Dispose_m2270401482_AdjustorThunk
PDh:_ArrayFixupRecord_FixupImpl_m2377725358
Sg:_glFrontFace
LFh:_ObjectRecord_get_IsUnsolvedObjectReference_m2202692850
Qxh:_FactoryCache_Cleanup_m4130035987
rIc:__ZN14ParticleSystem8TransferI17RemapPPtrTransferEEvRT_
yne:__ZNK5physx20BigConvexDataBuilder4SaveERNS_14PxOutputStreamEbjPKNS_16HullTriangleDataE
UDb:__ZN13BuildSettings8TransferI18StreamedBinaryReadILb1EEEEvRT_
yUd:__ZN5physx13NpVolumeCache17getNbCachedShapesEv
o2a:__ZNSt3__26vectorI16ShadowCasterData13stl_allocatorIS1_L18MemLabelIdentifier2ELi16EEE21__push_back_slow_pathIKS1_EEvRT_
YRk:__ZN6il2cpp6icalls8mscorlib6SystemL16GetFieldFromTypeINS_5utils10functional6FilterINSt3__212basic_stringIcNS7_11char_traitsIcEENS7_9allocatorIcEEEENS4_11StringUtils23CaseInsensitiveComparerEEEEEP21Il2CppReflectionFieldP11Il2CppClassSK_iRKT_
f5h:_DefaultComparer_GetHashCode_m918846970_gshared
Fwk:_Vector3_get_forward_m1201659139
v5f:_List_1_Sort_m269561757_gshared
uLe:__Z51Register_UnityEngine_TextGenerator_GetLinesInternalv
Njg:_ReadOnlyCollection_1_System_Collections_Generic_ICollectionU3CTU3E_Remove_m2970185170_gshared
MCk:_HashSet_1_Init_m1258286688_gshared
Iva:__ZN17PersistentManager12UnloadStreamERKNSt3__212basic_stringIcNS0_11char_traitsIcEENS0_9allocatorIcEEEEb
tcb:__Z24CreateDirectoryRecursiveRKNSt3__212basic_stringIcNS_11char_traitsIcEENS_9allocatorIcEEEE
Ohg:_ReadOnlyCollection_1_System_Collections_IList_RemoveAt_m525136953_gshared
ih:_strftime_l
mB:__ZN26AnimatorControllerPlayable27SetupStateMachineBehavioursEP6Object
BOj:_Collision2D_get_gameObject_m4234358314
zpa:__ZN6prcoreL17RemapGenericFloatI17TexFormatRGBFloat18TexFormatRGBAFloatEEvPKNS_9InnerInfoE
wC:__Z16AppendPathToHashRKN7mecanim5crc32EPKc
ezc:__ZN6HelperI9JSONWrite23TransferArrayField_InfoE24SerializationFunctionForERKS1_R23StaticTransferFieldInfoPb
aWd:__ZN5physx2Sc5Scene15getRenderBufferEv
VGj:_UInt64_System_IConvertible_ToBoolean_m3012279573_AdjustorThunk
m4i:__Z48RuntimeInvoker_Il2CppObject_StringU26_t638738783PK10MethodInfoPvPS2_
RNl:_glClearStencil__wrapper
JEj:_Type_get_IsGenericTypeDefinition_m2147901038
MNa:__ZN12HandlerChain10ToAbsoluteEPKc
ccj:__Z36RuntimeInvoker_Matrix4x4_t2933234003PK10MethodInfoPvPS2_
ZIg:_GregorianCalendar__ctor_m3794576475
LGj:_UInt32_TryParse_m4283512434
YIb:__ZN13MonoBehaviour23VirtualRedirectTransferER19StreamedBinaryWriteILb0EE
OM:__ZN9AudioClip11CreateSoundEv
hCb:__ZN8Material14DisableKeywordERKNSt3__212basic_stringIcNS0_11char_traitsIcEENS0_9allocatorIcEEEE
$Yh:_ShimEnumerator_MoveNext_m3313047792_gshared
O9f:_Collection_1_ConvertItem_m2185647560_gshared
jDj:_TimeSpan_op_Inequality_m257547441
wAj:_ExecutionContext_GetObjectData_m1456913356
S6k:__ZN14dense_hash_setI10KeyWrapperIP18Il2CppGenericClassEN6il2cpp8metadata22Il2CppGenericClassHashENS5_25Il2CppGenericClassCompareENSt3__29allocatorIS3_EEE6insertERKS3_
VRi:_Object_set_hideFlags_m2204253440
Ddl:__ZN6il2cpp2gc16GarbageCollector21CallWithAllocLockHeldEPFPvS2_ES2_
zOh:_EnumBuilder_get_Assembly_m4285228003
wBa:__ZN13GfxDeviceGLES20CreateComputeProgramEPKhj
SKg:_DateTimeFormatInfo_get_RoundtripPattern_m562440017
CUe:__ZN11UnityEngine7Connect16PersistentValues13RestoreValuesER8JSONRead
Doi:__ZL76Convert_t2607082565_CustomAttributesCacheGenerator_Convert_ToByte_m791636053P21CustomAttributesCache
O4h:_DefaultComparer__ctor_m3947565964_gshared
KOf:_Double_System_IConvertible_ToByte_m3004284950_AdjustorThunk
CDh:_TypeEntry_get_AssemblyName_m1762285107
Lce:__ZNK5physx2Gu11HeightField17getHeightInternalEff
Mcl:__ZN6il2cpp2vmL11GetIdentityEP14Il2CppIUnknown
fil:_GC_push_gc_structures
_Rd:__ZNK5physx7NpScene22getClientBehaviorFlagsEh
qzd:__ZN5physx9NpFactory14createMaterialEfff
zMk:__ZN15dense_hashtableINSt3__24pairIK10KeyWrapperINS0_12basic_stringIcNS0_11char_traitsIcEENS0_9allocatorIcEEEEEP11Il2CppClassEES9_N6il2cpp5utils11StringUtils12StringHasherIS8_EEN14dense_hash_mapIS9_SC_SI_NS0_8equal_toIS9_EENS6_ISD_EEE9SelectKeyESL_SM_E8min_sizeEjj
y_c:__ZNK5physx3Cct13BoxController8getStatsERNS_17PxControllerStatsE
EDf:_Enumerator_get_Current_m1271212567
mW:__ZN5physx5cloth11PhaseConfigC2Et
_Ka:__Z22GetShaderCachePathGLESv
tve:__ZN13PhysicsModule21OverlapBoxUserCollectERK8Vector3fS2_RK11Quaternionfi23QueryTriggerInteractionRN8IPhysics12IUserCollectE
A_c:__ZN5physx3Cct13BoxControllerD2Ev
TOi:_Input_set_compositionCursorPos_m1615567306
wma:__ZN18StreamedBinaryReadILb1EE19TransferSTLStyleMapINSt3__23mapIN9ShaderLab16FastPropertyNameEN18UnityPropertySheet11UnityTexEnvENS2_4lessIS5_EENS2_9allocatorINS2_4pairIKS5_S7_EEEEEEEEvRT_17TransferMetaFlags
sVj:_Playable_GetInputWeightInternal_m381407588
NOc:__ZN22ParticleSystemRenderer23UpdateVertexInputLayoutEv
yrh:_IPAddress_ParseIPV6_m2209709575
vHj:_UInt64_CompareTo_m3513742483
KQd:__ZThn8_N5physx2Sc19ShapeInstancePairLLD0Ev
MZ:__ZN19CloudServiceHandler18SaveFileFromServerERK8UnityStrS2_PN11UnityEngine15CloudWebService16WWWRestHeaderMapE
L7d:__ZN5physx19PxcContactSphereBoxERKNS_2Gu13GeometryUnionES3_RKNS_11PxTransformES6_RKfRNS_10PxcNpCacheERNS0_13ContactBufferE
eyj:_Toggle_set_group_m3833595685
JIg:_LayoutRebuilder_ForceRebuildLayoutImmediate_m566681977
mSd:__ZNK5physx7NpScene21getBroadPhaseCallbackEh
Lhd:__ZN5physx6shdfnd5ArrayIPNS_12PxConstraintENS0_19ReflectionAllocatorIS3_EEE15growAndPushBackERKS3_
uMc:__ZN22ParticleSystemRenderer12GetLocalAABBER4AABB
Sod:__ZNK5physx2Sc15ArticulationSim11checkResizeEv
Uhf:_Array_InternalArray__ICollection_Add_TisVector4_t2243707581_m698578249_gshared
G5:__ZN8keywords6CreateEPKc
Q2c:__ZN5physx2Gu11gjkRelativeINS0_8CapsuleVENS0_11ConvexHullVEEEjRKT_RKT0_RKNS_6shdfnd3aos15PsMatTransformVERNSB_5Vec3VESG_SG_RNSB_6FloatVE
F_i:__Z89RuntimeInvoker_Il2CppObject_Il2CppObject_Int32_t2071877448_Int32_t2071877448_Il2CppObjectPK10MethodInfoPvPS2_
rQb:__ZN24GenerateTypeTreeTransfer8TransferINSt3__26vectorI17AnimationCurveTplIfE13stl_allocatorIS4_L18MemLabelIdentifier1ELi16EEEEEEvRT_PKc17TransferMetaFlags
R:Math_imul
VLi:_GUIStyle_set_active_m2896743432
cCb:__ZN14SpriteRenderer15SetupPropertiesEv
l3e:_SecurityFrame_t1002202659_marshal_pinvoke_back
zSi:_Physics_Raycast_m2036777053
cLe:__Z45TextGenerator_CUSTOM_INTERNAL_get_rectExtentsP12Il2CppObjectP5RectTIfE
Jfh:_CertificateValidationCallback_Invoke_m2500463874
Xcf:_SetPropertyUtility_SetStruct_TisChar_t3454481338_m2333420724_gshared
rag:__ZN23InterfaceActionInvoker2Ii18Color32_t874517518E6InvokeEjP11Il2CppClassPviS0_
c9f:_Collection_1_IsSynchronized_m2601980439_gshared
ZBf:_Hashtable_ContainsKey_m2716576664
tV:__ZN11AudioSource12SetAudioClipEP9AudioClip
SZk:__ZN15dense_hashtableINSt3__24pairIK10KeyWrapperIPK10Il2CppTypeEjEES6_N6il2cpp8metadata14Il2CppTypeHashEN14dense_hash_mapIS6_jSB_NSA_17Il2CppTypeCompareENS0_9allocatorIS8_EEE9SelectKeyESD_SF_EC2EjRKSB_RKSD_RKSH_
mhk:_PatternCompiler_EmitCategory_m1696942454
DFc:__ZN30VelocityModulePropertyBindings13GetFloatValueERK14ParticleSystemi
WMc:__Z9UpdateTplIL22MinMaxGradientEvalMode0EL12GradientMode1ELS1_1EEvRK23ParticleSystemParticlesP11ColorRGBA32RK14MinMaxGradientRK23OptimizedMinMaxGradientRK8Vector2f
lif:_Array_InternalArray__ICollection_CopyTo_TisInt32_t2071877448_m984622488_gshared
iPe:__Z39CanvasGroup_Get_Custom_PropInteractableP12Il2CppObject
wVc:__ZN16CircleCollider2D23VirtualRedirectTransferER18StreamedBinaryReadILb0EE
EJl:_emscripten_glStencilOpSeparate__wrapper
QHe:_cf2_getLanguageGroup
t5a:__ZN13ProbeRenderer8ConvolveEbijjb
BEa:__ZN17GenericDynamicVBOC2ER9GfxDevice13GfxBufferModejj
rdk:_Context_get_HasDynamicSinks_m1998518649
sXc:__Z28GetPhysics2DScriptingClassesv
pOd:__ZNK5physx2Sc5Scene7isValidEv
K4b:__ZN12ScriptMapper7PRODUCEE18MemLabelIdentifier18ObjectCreationMode
WX:__ZN11UnityEngine15CloudWebService17SessionEventQueue10PurgeItemsEj
pUd:__ZN5physx2Sq17SceneQueryManager29setDynamicTreeRebuildRateHintEj
h0h:_ValueCollection_System_Collections_Generic_ICollectionU3CTValueU3E_get_IsReadOnly_m1530798787_gshared
Zog:_AbstractEventData_get_used_m4208553917
SBk:_GenericEqualityComparer_1_GetHashCode_m3320722759_gshared
Aqf:_Array_System_Collections_IList_get_Item_m2088124007
Uqf:_Array_GetLength_m2083296647
xmi:__ZL58SecurityElement_t2325568386_CustomAttributesCacheGeneratorP21CustomAttributesCache
vjb:__ZN16LevelGameManager23VirtualRedirectTransferER24GenerateTypeTreeTransfer
Kzf:_SynchronizedArrayListWrapper_ToArray_m1522185111
q8i:__Z55RuntimeInvoker_TimeSpan_t3430258949_DateTime_t693205669PK10MethodInfoPvPS2_
uVb:__Z18Transfer_BlittableI18StreamedBinaryReadILb1EELb1EtEvRK29SerializationCommandArgumentsR31RuntimeSerializationCommandInfo
l2e:_SecurityContext_get_FlowSuppressed_m420202521
Nza:__ZN9GfxDevice20DeallocRenderSurfaceEP17RenderSurfaceBase
Hnd:__ZN5physx6shdfnd5ArrayIPvNS0_19ReflectionAllocatorINS_18NpArticulationLinkEEEE4copyINS0_15InlineAllocatorILj256ES5_EEEEvRKNS1_IS2_T_EE
GIj:_ValueType_ToString_m3796301715
X_c:__ZNK5physx3Cct10Controller12getKineShapeEv
U5i:__Z62RuntimeInvoker_Int64_t909078037_Il2CppObject_Int32_t2071877448PK10MethodInfoPvPS2_
JJc:__ZN20ExternalForcesModule8TransferI19StreamedBinaryWriteILb0EEEEvRT_
plf:_Array_qsort_TisUICharInfo_t3056636800_m2607408901_gshared
$fd:__ZN5physx6shdfnd4sortIPvNS0_4LessIS2_EENS0_19ReflectionAllocatorINS_2Sc18TriggerInteractionEEEEEvPT_jRKT0_RKT1_j
PWj:_GUILayoutGroup__ctor_m992523271
klb:__ZN12BaseRenderer23RendererBecameInvisibleEv
AMd:__ZNK5physx2Sc8BodyCore14getMaxAngVelSqEv
hxe:__ZN20TextRenderingPrivate8FontImpl13CharacterInfo8TransferI18StreamedBinaryReadILb0EEEEvRT_
fQb:__Z29Transfer_Blittable_ArrayFieldI24GenerateTypeTreeTransferfEvRT_R9ArrayInfoRK23StaticTransferFieldInfo
K6i:__Z51RuntimeInvoker_Single_t2076509932_Int16_t4041245914PK10MethodInfoPvPS2_
Sub:__ZN8Gradient8TransferI14SafeBinaryReadEEvRT_
o3i:__Z41RuntimeInvoker_StackBehaviour_t1390406961PK10MethodInfoPvPS2_
Hzk:_UnityEvent_1_Invoke_m1533100983_gshared
tcl:__ZNK15dense_hashtableINSt3__24pairIK10KeyWrapperIP14Il2CppIUnknownEjEES5_N6il2cpp5utils11PointerHashIS3_EEN14dense_hash_mapIS5_jSB_NS0_8equal_toIS5_EENS0_9allocatorIS7_EEE9SelectKeyESE_SG_E5beginEv
Nqh:_FileWebRequest__ctor_m4003648606
lHi:__ZL71SpriteState_t1353336012_CustomAttributesCacheGenerator_m_DisabledSpriteP21CustomAttributesCache
ixa:__ZN16MeshVertexFormat23CreateVertexDeclarationEjPKS_
Dnj:__Z34RuntimeInvoker_HitInfo_t1761367055PK10MethodInfoPvPS2_
KPf:_Enum_System_IConvertible_ToSByte_m3488526280
bMa:__ZN9GfxDevice9SkinOnGPUERK18VertexStreamSourceP9GfxBufferP17GPUSkinPoseBufferS4_iijb
BSh:_TypeBuilder_ToString_m1952363535
wek:_Identity_set_Disposed_m628843469
BRi:_MonoBehaviour_StopAllCoroutines_m1675795839
lva:__ZN18IDCollectorFunctorD0Ev
K8d:__ZN5physx2Gu32PCMConvexVsMeshContactGeneration15processTriangleEPKNS_6PxVec3EjhPKj
s7a:__ZN23ManagedAttributeManager21GetRequiredComponentsEP11Il2CppClass
owi:__ZL82Object_t1021602117_CustomAttributesCacheGenerator_Object_DestroyObject_m2343493981P21CustomAttributesCache
C_g:_NumberFormatter_Init_m1022036773
$gl:_GC_new_free_list_inner
B3h:_DefaultComparer_Equals_m85211180_gshared
U4b:__ZN14RenderSettings7PRODUCEE18MemLabelIdentifier18ObjectCreationMode
Ggl:_GC_err_printf
Vcg:_Collection_1_System_Collections_IList_IndexOf_m1950953062_gshared
lZg:_MonoType_InternalGetEvent_m532443236
_ag:_Collection_1_IndexOf_m2700825189_gshared
mce:__ZN5physx6shdfnd5ArrayINS_2Cm8Matrix34ENS0_19ReflectionAllocatorIS3_EEE15growAndPushBackERKS3_
O7j:_Comparer_1_get_Default_m2605397692_gshared
R8d:__ZN5physx2Gu32PCMConvexVsMeshContactGeneration31generatePolyDataContactManifoldERNS0_9TriangleVEjjhPNS0_21MeshPersistentContactERjRKNS_6shdfnd3aos6FloatVERNS8_5Vec3VE
uoe:__ZN5physx10SubSortSAH5splitEPjj
tG:__ZN25RuntimeAnimatorController8TransferI14SafeBinaryReadEEvRT_
Kvc:__ZN8JSONRead8TransferI10RectOffsetEEvRT_PKc17TransferMetaFlagsb
hG:__ZN18AnimatorController23VirtualRedirectTransferER18StreamedBinaryReadILb1EE
twl:__ZNSt3__28time_getIwNS_19istreambuf_iteratorIwNS_11char_traitsIwEEEEED2Ev
B7e:_Decoder__ctor_m2623573910
nWa:__Z21ClearFenceWithoutSyncR8JobFence
q4c:__ZN5physx2Gu3EPA8addFacetEjjjRKNS_6shdfnd3aos6FloatVES6_
yIc:__ZN14RotationModule8TransferI17RemapPPtrTransferEEvRT_
KP:__ZN12SoundManager20RegisterModifiedClipEP10SampleClip
G8:__Z21FormatScriptTypeError14MonoScriptTypeRKNSt3__212basic_stringIcNS0_11char_traitsIcEENS0_9allocatorIcEEEE
o0i:__Z108RuntimeInvoker_Void_t1841601450_Il2CppObject_Int64_t909078037_Il2CppObject_Int64_t909078037_Int64_t909078037PK10MethodInfoPvPS2_
jS:__ZN11AudioSource4PlayEd
DJb:__Z26scripting_class_get_fieldsP11Il2CppClassRNSt3__26vectorIP9FieldInfo13stl_allocatorIS4_L18MemLabelIdentifier1ELi16EEEE
N8k:__ZN6il2cpp2vm6Object16GetVirtualMethodEP12Il2CppObjectPK10MethodInfo
yK:__ZZN8Animator15InitializeClassEvEN31FunctorImpl_388kDidModifyMotion4CallEPviR11MessageData
_bd:__ZN5physx3Cct9CCTParamsC2Ev
mCd:__ZN5physx7NpCloth21setStiffnessFrequencyEf
g1:__ZNK20LocalFileSystemPosix8IsHiddenERK13FileEntryData
m1d:__ZN5physx17PxcSweepBoxConvexERKNS_11PxsCCDShapeES2_PKNS_12PxsRigidBodyES5_RKNS_11PxTransformES8_S8_S8_fRNS_6PxVec3ESA_RNS_10PxcNpCacheERNS_18PxcNpThreadContextEf
Gke:__ZThn8_N5physx2Gu11HeightField14onRefCountZeroEv
pok:_X501__cctor_m2610532554
bub:__ZThn28_NK8Renderer8GetLayerEv
tfd:__ZN5physx2Sc5Actor9setActiveEbj
F2c:__ZN12_GLOBAL__N_127SphereMeshContactGeneration15processTriangleEjRKN5physx6PxVec3ES4_S4_PKj
J0k:__ZNSt3__214__split_bufferINS_12basic_stringIcNS_11char_traitsIcEENS_9allocatorIcEEEERNS4_IS6_EEED2Ev
t4f:_List_1_CheckCollection_m2220107869_gshared
erb:__ZN7Cubemap23VirtualRedirectTransferER18StreamedBinaryReadILb0EE
Zhh:_RecordProtocol_EncodeRecord_m3884270352
QZe:_SHA256_Create_m896954069
xJe:_Read_CVT
Tsf:__ZN16VirtFuncInvoker0IP12MemberInfo_tE6InvokeEjPv
KIf:_Convert_ToUInt32_m776714429
W2c:__ZN5physx2Gu22barycentricCoordinatesERKNS_6shdfnd3aos5Vec3VES5_S5_RNS2_6FloatVE
OOa:__ZN12FileAccessor4SeekEx10FileOrigin
hPb:__ZL26Transfer_SimpleNativeClassI24GenerateTypeTreeTransfer17AnimationCurveTplIfELb0EEvRK29SerializationCommandArgumentsR31RuntimeSerializationCommandInfo
QBd:__ZN5physx15NpActorTemplateINS_7PxClothEE12setActorFlagENS_11PxActorFlag4EnumEb
Nzg:__ZN16VirtFuncInvoker1IP22GameObject_t1756533147S1_E6InvokeEjPvS1_
zbj:__Z77RuntimeInvoker_Vector3_t2243707580_Quaternion_t4030073918_Vector3_t2243707580PK10MethodInfoPvPS2_
Ome:__ZL18TestUnifiedNormalsjPKN5physx6PxVec3EjPNS_2Gu9TriangleTIjEEb
pfj:__Z54RuntimeInvoker_Boolean_t3825574718_Vector2_t2243707579PK10MethodInfoPvPS2_
hQj:_Coroutine_t2299508840_marshal_pinvoke
Vca:__ZN16LightmapSettings20DidChangeActiveSceneEP10UnitySceneS1_
L_k:__ZN15dense_hashtableINSt3__24pairIK10KeyWrapperINS1_IPK14Il2CppAssemblyP11Il2CppClassEEEjEES9_17ReflectionMapHashIS8_EN14dense_hash_mapIS9_jSD_19ReflectionMapEqualsIS8_ENS0_9allocatorISB_EEE9SelectKeyESG_SI_E13set_empty_keyERKSB_
mJi:__ZL59g_AssemblyU2DCSharp_Assembly_CustomAttributesCacheGeneratorP21CustomAttributesCache
ioc:__Z39Register_UnityEngine_Time_get_timeScalev
bR:__ZN10AudioMixer11SetupGroupsEv
awi:__ZL91Resources_t339470017_CustomAttributesCacheGenerator_Resources_GetBuiltinResource_m582410469P21CustomAttributesCache
Zrc:__Z35Register_UnityEngine_Event_get_typev
r6g:_PrivateKeyInfo_DecodeRSA_m1427048948
sch:_BigInteger_op_GreaterThanOrEqual_m2643115413
_Kh:_Assembly_FillName_m1934025015
MTa:_UNITY_png_free
AQg:_IntPtr_op_Explicit_m1073656736
LHl:_emscripten_glDepthRange__wrapper
y5e:_String_IndexOf_m2126171214
_Pg:_Int64_ToString_m1544341651_AdjustorThunk
pje:__ZNK5physx13GuMeshFactory17getNbConvexMeshesEv
nMg:_Guid_CheckNull_m2903986431
zri:__ZL62CrossContextDelegate_t754146990_CustomAttributesCacheGeneratorP21CustomAttributesCache
wOc:__ZN14ParticleSystem15InitializeClassEv
B7:__Z63ThreadAndSerializationSafeCheckGetMonoBehaviourBeingTransferredv
Ljl:_GC_enable
Xjh:_TlsClientCertificateVerify_ProcessAsSsl3_m3377063356
G0i:__Z97RuntimeInvoker_Il2CppObject_Il2CppObject_Int32_t2071877448_Il2CppObject_Il2CppObject_Il2CppObjectPK10MethodInfoPvPS2_
Stg:_StandaloneInputModule_set_repeatDelay_m2820945738
cSg:_EndOfStreamException__ctor_m4268387737
VFj:_UInt16_ToString_m4213290405
Yjc:__Z37Register_UnityEngine_Input_GetAxisRawv
h6f:_List_1_GetIndex_m433539411_gshared
Jki:__ZL59StreamingContext_t1417235061_CustomAttributesCacheGeneratorP21CustomAttributesCache
fgg:_Collection_1_Remove_m3355928137_gshared
RPf:_Enum_GetName_m1226611481
u4i:__Z113RuntimeInvoker_Il2CppObject_Byte_t3683104436_Il2CppObject_SByte_t454417549_Il2CppObject_Il2CppObject_Il2CppObjectPK10MethodInfoPvPS2_
ZR:__ZN11AudioSource5ResetEv
gw:__ZN13AnimationClip12Vector3Curve8TransferI19StreamedBinaryWriteILb0EEEEvRT_
Jxb:__ZN14Texture2DArray23VirtualRedirectTransferER18StreamedBinaryReadILb0EE
Z_i:__Z52RuntimeInvoker_UInt64_t2909196914_Decimal_t724701077PK10MethodInfoPvPS2_
Qvb:__ZN2UI13RectTransform13AwakeFromLoadE17AwakeFromLoadMode
sYa:__ZL27GetDestRenderTargetSurfacesP13RenderTextureR12ObjectHandleI17RenderSurface_TagP17RenderSurfaceBaseES6_
Yde:__ZN5physx23PxsSolverSetupSolveTaskD2Ev
JLb:__Z18Transfer_BlittableI14SafeBinaryReadLb1EiEvRK29SerializationCommandArgumentsR31RuntimeSerializationCommandInfo
T9j:_DefaultDependencyAttribute__ctor_m107693037
N$b:__ZNSt3__26vectorINS_4pairINS_12basic_stringIcNS_11char_traitsIcEENS_9allocatorIcEEEES7_EENS5_IS8_EEE21__push_back_slow_pathIKS8_EEvRT_
bjg:_ReadOnlyCollection_1_GetEnumerator_m713393110_gshared
oCh:_ProxyAttribute_GetPropertiesForNewContext_m3587421540
Trf:_Array_LastIndexOf_m4096535198
Fxf:_ArrayList_Add_m1719188324
uwd:__ZN18MultiQueryCallbackIN5physx12PxOverlapHitEE6invokeERfPKNS0_2Sq13PrunerPayloadEj
_Of:_Double_System_IConvertible_ToSByte_m1653690240_AdjustorThunk
gql:_opendir
E6c:__ZN5physx2Gu18gjkRelativeRayCastINS0_4BoxVES2_NS0_10ShrunkBoxVES3_EEbRT_RT0_RKNS_6shdfnd3aos15PsMatTransformVERKNS9_6FloatVERKNS9_5Vec3VESI_RSD_RSG_SK_fb
al:_glGetStringi
ACc:__Z14WorldCollisionR13dynamic_arrayI20BatchedRaycastResultLj4EERK27ParticleSystemReadOnlyStateR19ParticleSystemStateRK23ParticleSystemParticlesRK33ParticleSystemCollisionParametersjibibRKf
_Ni:_GUIStyleState_t3801000545_marshal_pinvoke
VGd:__ZN5physx22NpParticleBaseTemplateINS_15PxParticleFluidENS_15NpParticleFluidEE14setRestitutionEf
iyb:__ZN18StreamedBinaryReadILb0EE21TransferSTLStyleArrayI13dynamic_arrayI8Vector4fLj4EEEEvRT_17TransferMetaFlags
Xje:__ZThn8_N5physx2Gu10ConvexMeshD0Ev
Nvh:_X509Chain_get_CertificateCollection_m324631835
UMk:__ZN15dense_hashtableI10KeyWrapperIPK19Il2CppGenericMethodES4_N6il2cpp8metadata23Il2CppGenericMethodHashEN14dense_hash_setIS4_S7_NS6_26Il2CppGenericMethodCompareENSt3__29allocatorIS4_EEE8IdentityES9_SC_EC2ERKSF_j
L6h:_EqualityComparer_1__cctor_m1011898363_gshared
u_d:__ZNK5physx2Sq12BucketPruner7raycastERKNS_6PxVec3ES4_RfRNS0_14PrunerCallbackE
Gff:_Array_InternalArray__IndexOf_TisClientCertificateType_t4001384466_m1168139450_gshared
qkj:__Z49RuntimeInvoker_Int32_t2071877448_Link_t2723257478PK10MethodInfoPvPS2_
KPh:_FieldBuilder_get_Name_m2243491233
pZc:__ZN15dense_hashtableINSt3__24pairIKNS1_IPK10Collider2DS4_EE11Collision2DEES5_NS2_23ColliderPairHashFunctorEN14dense_hash_mapIS5_S7_S9_NS0_8equal_toIS5_EE13stl_allocatorIS8_L18MemLabelIdentifier65ELi16EEE9SelectKeyESC_SF_E14squash_deletedEv
Q1e:_StringBuilder_Append_m3618697540
PXf:_List_1_GetEnumerator_m3294992758_gshared
u0:__ZN13ScreenManager16SetScreenTimeoutEi
ZNb:__Z18Transfer_BlittableI17RemapPPtrTransferLb0EdEvRK29SerializationCommandArgumentsR31RuntimeSerializationCommandInfo
N_e:_SymmetricAlgorithm_set_IV_m4262655606
exj:_StencilMaterial__cctor_m2963056855
t8h:_EqualityComparer_1_System_Collections_IEqualityComparer_Equals_m315020809_gshared
r2f:_List_1_Find_m3680710386_gshared
HMh:_CustomAttributeNamedArgument_GetHashCode_m3715408876_AdjustorThunk
jLe:__Z38Register_UnityEngine_Font_HasCharacterv
Suh:_X509Certificate2_AppendBuffer_m3517242299
CXa:__Z35IntersectSpherePlaneBoundsOptimizedRKN4math7_float4EPS1_i
ESf:_CultureInfo_get_IsNeutralCulture_m3874876470
zNf:_Delegate_CreateDelegate_m3813023227
ovl:__ZNKSt3__27num_putIcNS_19ostreambuf_iteratorIcNS_11char_traitsIcEEEEE6do_putES4_RNS_8ios_baseEcx
p4i:__Z46RuntimeInvoker_WellKnownObjectMode_t2630225581PK10MethodInfoPvPS2_
Ldd:__ZN5physx2Sc8ShapeSim20createLowLevelVolumeEjRKNS_9PxBounds3EjNS_9AABBMgrIdE
gmk:_Uri_get_AbsoluteUri_m2120317928
nvl:__ZNKSt3__27num_putIcNS_19ostreambuf_iteratorIcNS_11char_traitsIcEEEEE6do_putES4_RNS_8ios_baseEcl
PEc:__ZN37InheritVelocityModulePropertyBindings13GetFloatValueERK14ParticleSystemi
zbl:__ZN6il2cpp2os5posix15PosixWaitObject13InterruptWaitEv
rCd:__ZNK5physx7NpCloth22getAngularInertiaScaleEv
Rw:__ZN7mecanim6memory16ChainedAllocator10DeallocateEPv
aqg:_BaseInputModule_IsModuleSupported_m4272494372
r8c:__ZN26IntersectAnyVsMeshCallbackILi1ELb1EE10processHitERKN5physx12PxRaycastHitERKNS1_6PxVec3ES7_S7_RfPKj
svl:__ZNKSt3__27num_putIcNS_19ostreambuf_iteratorIcNS_11char_traitsIcEEEEE6do_putES4_RNS_8ios_baseEce
mvl:__ZNKSt3__27num_putIcNS_19ostreambuf_iteratorIcNS_11char_traitsIcEEEEE6do_putES4_RNS_8ios_baseEcb
djd:__ZN5physx2Sc13ConstraintSim15needsProjectionEv
Cca:__Z22CleanupLODGroupManagerPv
Ohf:_Array_InternalArray__ICollection_Add_TisContentType_t1028629049_m2984242302_gshared
KVd:__ZN5physx6shdfnd5ArrayINS_2Sc5Scene14SimpleBodyPairENS0_19ReflectionAllocatorIS4_EEE8recreateEj
Ll:_glUniform3fv
gFb:__ZNSt3__218__insertion_sort_3IRN15ResourceManager10Dependency6SorterEPS2_EEvT0_S6_T_
XVf:_Enumerator_System_Collections_IEnumerator_Reset_m3796537546_AdjustorThunk
IKe:_UNITY_FT_Init_Class_tt_service_gx_multi_masters
Q2j:_InternalEnumerator_1_System_Collections_IEnumerator_Reset_m3249248421_AdjustorThunk
kDd:__ZNK5physx7NpCloth16getCollisionDataEPNS_22PxClothCollisionSphereEPjPNS_21PxClothCollisionPlaneES3_PNS_24PxClothCollisionTriangleE
UYg:_IntComparer_Compare_m3057931085
n0a:__ZNK16LightmapSettings31GetRealtimeLightmapDecodeValuesEv
yR:__ZN5audio5mixer12SetSuspendedERNS0_16AudioMixerMemoryEb
fsa:__ZN17PersistentManager21UnloadNonDirtyStreamsEv
Iui:__ZL85Component_t3819376471_CustomAttributesCacheGenerator_Component_SendMessage_m913946877P21CustomAttributesCache
k$i:__Z78RuntimeInvoker_Int32_t2071877448_DecimalU26_t1613489971_DecimalU26_t1613489971PK10MethodInfoPvPS2_
v4k:__ZN6il2cpp2vm13LivenessStateC2EP11Il2CppClassjPFvPP12Il2CppObjectiPvES7_PFvvESB_
fgj:__Z41RuntimeInvoker_ColorTweenMode_t1328781136PK10MethodInfoPvPS2_
GEi:__ZL61Graphic_t2426225576_CustomAttributesCacheGenerator_m_MaterialP21CustomAttributesCache
fth:_Oid__ctor_m1936781897
$se:__ZN5physx6shdfnd8PoolBaseINS_24NpPtrTableStorageManager8PtrBlockILi4EEENS0_19ReflectionAllocatorIS4_EEE12allocateSlabEv
KRi:_Object_INTERNAL_CALL_Internal_InstantiateSingleWithParent_m1401308849
A9j:_ResourceSet__ctor_m1222864106
Yge:__ZN5physx2Sc5Scene13ccdBroadPhaseEPNS_10PxBaseTaskE
j7f:_Collection_1_System_Collections_IList_get_Item_m3376056117_gshared
tMb:__ZN12NativeBufferI27Converter_SimpleNativeClassI8GradientEE19ProcessAfterReadingER9ArrayInfoP11Il2CppClass
fm:_emscripten_glDepthMask
M8d:__ZN5physx2Gu24PCMMeshContactGeneration15processContactsEhb
A9h:__ZL76UInt16_t986882611_CustomAttributesCacheGenerator_UInt16_TryParse_m1818885113P21CustomAttributesCache
WVf:_Enumerator_VerifyState_m3639069574_gshared
CFa:__ZN4crnd25static_huffman_data_model22prepare_decoder_tablesEv
isb:__ZN9Texture2D23VirtualRedirectTransferER17RemapPPtrTransfer
Sqe:__ZN5physx7profile8ZoneImplINS_28PxProfileNameProviderForwardEE9doAddNameEPKctb
dmf:_Array_Sort_TisIl2CppObject_TisIl2CppObject_m1915706600_gshared
Qbh:_ModulusRing_Difference_m662924064
r2j:_InternalEnumerator_1_MoveNext_m1869236997_gshared
Awg:_CanvasUpdateRegistry_ObjectValidForUpdate_m855695984
uFg:_InputField_set_onValueChanged_m2406388125
Fxi:__ZL95Physics2D_t2540166467_CustomAttributesCacheGenerator_Physics2D_Raycast_m2303387255____maxDepth5P21CustomAttributesCache
Kgg:_ReadOnlyCollection_1_System_Collections_ICollection_get_SyncRoot_m2702046016_gshared
r3:__ZL22CleanupUnityWebStreamsPv
Qxi:__ZL92AudioSource_t1135106623_CustomAttributesCacheGenerator_AudioSource_Play_m889724421____delay0P21CustomAttributesCache
BSb:__Z18Transfer_BlittableI18StreamedBinaryReadILb0EELb0E10ColorRGBAfEvRK29SerializationCommandArgumentsR31RuntimeSerializationCommandInfo
Dph:_ListDictionary_Add_m4276262662
sBl:__Znaj
XXe:_RIPEMD160Managed_GGG_m1639995340
sOl:_emscripten_glEnableClientState__wrapper
w_h:_Enumerator_System_Collections_IEnumerator_get_Current_m1648049763_gshared
Xml:__ZN6il2cpp6icalls8mscorlib4Mono8Security12Cryptography18KeyPairPersistence15_ProtectMachineEP12Il2CppString
K1i:__Z57RuntimeInvoker_DSAParameters_t1872138834_SByte_t454417549PK10MethodInfoPvPS2_
vJf:_DateTime__cctor_m2173182045
elb:__ZN11GameManager15ThreadedCleanupEv
N2f:_List_1__ctor_m1337392449_gshared
$2d:__ZN5physxL26solveFriction4_StaticBlockEPKNS_23PxcSolverConstraintDescERNS_16PxcSolverContextE
Nqf:_Array_System_Collections_IList_Remove_m2438892375
LVg:_TextWriter__ctor_m2225796097
mKi:_ScriptableObject_Internal_CreateScriptableObject_m1778903390
F7d:__ZN5physx30PxcGetMaterialShapeHeightFieldEPKNS_12PxsShapeCoreES2_RNS_18PxcNpThreadContextEPNS_15PxsMaterialInfoE
Lja:__ZNK6Camera16GetStereoEnabledEv
Wfg:__ZN21InterfaceFuncInvoker1I19Vector4_t2243707581iE6InvokeEjP11Il2CppClassPvi
nt:__ZN13AnimationClip9PPtrCurveaSERKS0_
K5b:__ZN12LightManager15InitializeClassEv
Hhe:__ZN5physx6shdfnd8PoolBaseINS_2Sc19ParticlePacketShapeENS0_19ReflectionAllocatorIS3_EEE12allocateSlabEv
uMi:_GUIStyle_GetFontInternal_m3509743324
M8b:__ZN18ScriptingArgumentsC2Ev
sDj:_TimeZone_IsDaylightSavingTime_m875882154
x_k:__ZN13Il2CppHashMapINSt3__24pairIPK9FieldInfoP11Il2CppClassEEj17ReflectionMapHashIS7_E19ReflectionMapEqualsIS7_ENS0_9allocatorINS1_IK10KeyWrapperIS7_EjEEEEEC2EjRKS9_RKSB_
kYj:_ArrayReadOnlyList_1_Insert_m503707439_gshared
CJl:_emscripten_glBlendFuncSeparate__wrapper
B$i:__Z52RuntimeInvoker_Single_t2076509932_Decimal_t724701077PK10MethodInfoPvPS2_
Kgh:_CipherSuiteCollection_System_Collections_IList_set_Item_m750275607
vZe:_SHA1CryptoServiceProvider__ctor_m3127563759
Kq:__ZN8Vector3f8TransferI14SafeBinaryReadEEvRT_
aJi:__ZL103BaseVertexEffect_t2504093552_CustomAttributesCacheGenerator_BaseVertexEffect_ModifyVertices_m3446986347P21CustomAttributesCache
pp:FUNCTION_TABLE_ii
i$h:_Enumerator_MoveNext_m335649778_AdjustorThunk
Ykb:__ZN10TagManager8TransferI18StreamedBinaryReadILb0EEEEvRT_
dyc:__Z18Transfer_BlittableI9JSONWriteLb0E8BitFieldEvRK29SerializationCommandArgumentsR31RuntimeSerializationCommandInfo
PGj:_UInt32_ToString_m3894907091_AdjustorThunk
kec:__Z35scripting_class_get_field_from_nameP11Il2CppClassPKc
VHl:b44
Eb:invoke_diiii
_Tc:__ZNK13BoxCollider2D26GetTypeInfoVirtualInternalEv
w7c:__ZL17sweepVolumeVsMeshPKN5physx3Cct9SweepTestEPKNS0_11TouchedMeshERNS0_12SweptContactERKNS_6PxVec3ERKNS_10PxGeometryERKNS_11PxTransformEjPKNS_10PxTriangleEj
iZh:_ShimEnumerator_get_Key_m616785465_gshared
i5g:_SmallXmlParser_Error_m1832158746
Myh:_RepeatContext_get_IsLazy_m1620488045
Gvd:__ZNK5physx12NpBatchQuery19getFilterShaderDataEv
_be:__ZN5physx2Gu31checkOverlapOBB_heightFieldGeomERKNS_10PxGeometryERKNS_11PxTransformERKNS0_3BoxE
SHl:b41
X_b:__ZN9ShaderLab20SerializedSubProgram8TransferI18StreamedBinaryReadILb0EEEEvRT_
lVg:_StreamAsyncResult_get_AsyncWaitHandle_m4218169359
lPi:_LayerMask_op_Implicit_m2135076047
QHl:b40
m0c:__ZN5physx2Gu23findRotationMatrixFromZERKNS_6PxVec3E
PVa:__Z9EndJobSetR8JobFence11JobPriority
ppf:_Array_InternalArray__get_Item_TisContactPoint2D_t3659330976_m825151777_gshared
OLe:__ZN2UI13CanvasManager9AddCanvasEPNS_6CanvasE
Q1a:__ZN14qsort_internal6_QSortIP21ForwardRenderPassDataiN23ForwardShaderRenderLoop18RenderObjectSorterILb0EEEEEvT_S6_T0_T1_
rVa:__ZNK6Camera22CalculateRenderingPathEv
Tyc:__ZN9JSONWrite8TransferI5RectTIfEEEvRT_PKc17TransferMetaFlags
wUd:__ZN5physx13NpVolumeCache10invalidateEv
ofh:_ContentInfo_get_Content_m1802070908
Xs:__ZN15SerializeTraitsIKN4math7_float4EE8TransferI14SafeBinaryReadEEvRS2_RT_
uNb:__ZL12InvokeMethodI17RemapPPtrTransferEvRK29SerializationCommandArgumentsR31RuntimeSerializationCommandInfo
J8g:_X509Certificate_get_PublicKey_m714501701
CHg:_U3CMouseDragOutsideRectU3Ec__Iterator1_System_Collections_IEnumerator_get_Current_m561728752
$Ce:_tt_sbit_decoder_load_image
nia:__Z14IsHalfRTFormat19RenderTextureFormat
M5e:_String_LastIndexOf_m290475879
YQc:__ZN15b2DistanceJointD0Ev
xEg:_Image_get_layoutPriority_m2151045813
Bs:__ZNSt3__26vectorI14AnimationEvent13stl_allocatorIS1_L18MemLabelIdentifier25ELi16EEE8__appendEj
Bij:__Z71RuntimeInvoker_Void_t1841601450_CornerU26_t4129226442_Int32_t2071877448PK10MethodInfoPvPS2_
DWg:_TextReader_Read_m975794707
Gqc:__ZNSt3__24listIN10GUIManager12SortedScriptE11memory_poolIS2_EE6__sortI13OldSortScriptEENS_15__list_iteratorIS2_PvEESA_SA_jRT_
ked:__ZN5physx6shdfnd5ArrayIPvNS0_19ReflectionAllocatorINS_2Sc10NPhaseCore16ClothListElementEEEE15growAndPushBackERKS2_
ZGj:_UInt64_System_IConvertible_ToChar_m1930853313_AdjustorThunk
Sjh:_TlsClientCertificate_SendCertificates_m1096074091
Sug:_UIBehaviour_OnCanvasHierarchyChanged_m762109874
LCf:_SyncHashtable_get_Item_m408601391
dli:__ZL45DSA_t903174880_CustomAttributesCacheGeneratorP21CustomAttributesCache
Jje:__ZN5physx2Gu10ConvexMeshD0Ev
O6f:_Stack_1_System_Collections_ICollection_CopyTo_m2104527616_gshared
Ril:_GC_add_map_entry
L9e:_StringBuilder_AppendFormat_m1666670800
Y2a:__ZN18DeferredRenderLoop13RenderGBufferEP13RenderTexturePS1_b8JobFencePK25DeferredRenderLoopScratchRi
ptl:__ZNSt3__219__iostream_categoryD0Ev
Lcj:__Z67RuntimeInvoker_Double_t4078015681_Playable_t3667545548_Il2CppObjectPK10MethodInfoPvPS2_
Av:__ZN13AnimationClip8TransferI17RemapPPtrTransferEEvRT_
vOb:__Z18Transfer_BlittableI17RemapPPtrTransferLb1E8BitFieldEvRK29SerializationCommandArgumentsR31RuntimeSerializationCommandInfo
Z2k:__ZN6il2cpp6icalls8mscorlib6System9ThreadingL11ThreadStartEPv
Enl:__ZN6il2cpp2vm9LastError31InitializeLastErrorThreadStaticEv
XLa:__ZN9GfxDevice12DeleteBufferEP9GfxBuffer
dlg:_ReadOnlyCollection_1_System_Collections_IList_Remove_m3878418841_gshared
zFg:_InputField_EnforceContentType_m1902926812
i$a:__ZN14qsort_internal31_FindAndMovePivotToLastPositionIP15RODataDepthPassi17ROSorterDepthPassEEvT_S4_T0_T1_
kmc:__Z97Register_UnityEngine_Experimental_Director_Playable_INTERNAL_CALL_SetInputWeightFromIndexInternalv
Kia:__ZN12CachedReader10Align4ReadEv
KVc:__ZN15b2WorldManifold10InitializeEPK10b2ManifoldRK11b2TransformfS5_f
agg:_Collection_1_CopyTo_m42272870_gshared
xdj:__Z154RuntimeInvoker_RaycastHit2D_t4063908774_Vector2_t2243707579_Vector2_t2243707579_Single_t2076509932_Int32_t2071877448_Single_t2076509932_Single_t2076509932PK10MethodInfoPvPS2_
l6k:__ZN6il2cpp2vm9Exception28GetMarshalDirectiveExceptionEPKc
e_g:_MulticastDelegate_GetObjectData_m3187757658
$vg:_CanvasScaler_set_referencePixelsPerUnit_m1188599784
Nlg:_ReadOnlyCollection_1_System_Collections_IList_get_Item_m887129009_gshared
axd:__ZN5physx2Sc14ConstraintCore13setBreakForceEff
T8:__Z26scripting_class_is_genericP11Il2CppClass
o3b:__ZNK28MonoBehaviourPropertyBinding12SetPPtrValueERKN11UnityEngine9Animation10BoundCurveEi
twe:__ZN20TextRenderingPrivate8FontImpl8TransferI14SafeBinaryReadEEvRT_
IOc:__ZNSt3__27__sort4IRN10vector_mapIi22ParticleModulePropertyNS_4lessIiEENS_9allocatorINS_4pairIiS2_EEEEE13value_compareEPS7_EEjT0_SD_SD_SD_T_
yHk:__ZL25UnresolvedVirtualCall_164P12Il2CppObject20UIVertex_t1204258818PK10MethodInfo
_hj:__Z59RuntimeInvoker_Boolean_t3825574718_KeyValuePair_2_t38854645PK10MethodInfoPvPS2_
_Jb:__ZN9Scripting35ErrorMessageForUnsupportedEnumFieldEP9FieldInfo
IRd:__ZN5physx7NpScene15removeAggregateERNS_11PxAggregateEb
CMi:_GUIStyle_Draw_m4006459684
dMf:_Decimal_System_IConvertible_ToType_m3828527724_AdjustorThunk
GAa:__ZN9GfxDevice17ImmediateTexCoordEifff
jik:_Parser_ParseRegularExpression_m2390577313
FEe:_ft_black_new
dxl:__ZNSt3__28time_putIwNS_19ostreambuf_iteratorIwNS_11char_traitsIwEEEEED2Ev
o$g:_OperatingSystem_Clone_m1943707477
tjk:_Alternation_AddAlternative_m623421443
nwh:_X509CertificateEnumerator_System_Collections_IEnumerator_Reset_m327358896
Coj:__Z36RuntimeInvoker_Enumerator_t402048720PK10MethodInfoPvPS2_
bif:_Array_InternalArray__ICollection_CopyTo_TisKeyValuePair_2_t1174980068_m1818152223_gshared
B1e:_Hash__ctor_m2554411450
F_e:_SHAConstants__cctor_m2781430679
bib:__ZN17FileSystemHandler4CopyER13FileEntryDataS1_
A3e:_Single_System_IConvertible_ToDateTime_m2510003459_AdjustorThunk
UNf:_Delegate_RemoveImpl_m3666700529
BHl:_emscripten_glUniform4f__wrapper
Yph:_NameObjectCollectionBase_OnDeserialization_m3478980442
XDg:_Image_get_mainTexture_m1027716278
lFg:_InputField_set_caretColor_m2252440840
$ee:__ZN5physx6shdfnd5ArrayINS_25PxcThresholdStreamElementENS0_19ReflectionAllocatorIS2_EEE8recreateEj
JF:__ZN8Animator8TransferI19StreamedBinaryWriteILb0EEEEvRT_
RWa:__ZNK6Camera16GetProjectionFarEv
p6a:__Z24InverseTransformRotationRK23TransformAccessReadOnlyRKN4math7_float4E
fS:__ZN11AudioSource6UpdateEv
Sff:_Array_InternalArray__IndexOf_TisSlot_t2267560602_m1912863273_gshared
gYi:_StateMachineBehaviour_OnStateExit_m1490844990
tAa:__ZN9GfxDevice21ResetDynamicResourcesEv
snl:__ZN6il2cpp2os9FastMutex4LockEv
sDd:__ZN5physx7NpCloth21setCollisionMassScaleEf
nce:__ZN5physx6shdfnd5ArrayINS_7PxPlaneENS0_19ReflectionAllocatorIS2_EEE8recreateEj
pog:_Comparison_1_EndInvoke_m4174686984_gshared
FGh:_StreamingContext__ctor_m3063421596_AdjustorThunk
xve:__ZN13PhysicsModule17GetRigidBodyStateERK9RigidbodyPN8IPhysics14RigidBodyStateE
ITe:__ZN20UnityConnectSettings23VirtualRedirectTransferER18StreamedBinaryReadILb1EE
Skg:_ReadOnlyCollection_1_System_Collections_Generic_IListU3CTU3E_Insert_m3054305464_gshared
PIc:__ZN20ParticleSystemModule8TransferI17RemapPPtrTransferEEvRT_
Aai:__ZL70IntPtr_t_CustomAttributesCacheGenerator_IntPtr_op_Explicit_m3896766622P21CustomAttributesCache
QGk:__ZL25UnresolvedVirtualCall_128P12Il2CppObject17Color_t2020392075PK10MethodInfo
xF:__ZN8Animator8TransferI14SafeBinaryReadEEvRT_
Gjb:__ZN17GlobalGameManager23VirtualRedirectTransferER18StreamedBinaryReadILb0EE
qId:__ZN5physx2Sc17ParticleSystemSim7releaseEb
hgf:_Array_InternalArray__IndexOf_TisTypeTag_t141209596_m2882894956_gshared
pwj:_Slider_get_value_m4182660424
PPc:__ZNK14b2CapsuleShape5CloneEP16b2BlockAllocator
Xx:__ZN17AnimationPlayable34CollectAnimatorControllerPlayablesER13dynamic_arrayIP26AnimatorControllerPlayableLj4EE
hV:__ZN16BaseVideoTexture19UpdateVideoTexturesEv
wdj:__Z79RuntimeInvoker_RaycastHit2D_t4063908774_Vector2_t2243707579_Vector2_t2243707579PK10MethodInfoPvPS2_
Jta:__ZNK16LightmapSettings23HasLightProbeTetrahedraEv
jCc:__ZNK18ColorBySpeedModule12UpdateSingleERK22ParticleSystemParticleR11ColorRGBA32
bjh:_Context_get_WriteSequenceNumber_m243492531
Ywb:__ZN6Sprite23VirtualRedirectTransferER19StreamedBinaryWriteILb0EE
z7h:_EqualityComparer_1_System_Collections_IEqualityComparer_GetHashCode_m3761319178_gshared
E5e:_String_LastIndexOfAny_m1473637802
loc:__Z38Transform_CUSTOM_INTERNAL_set_positionP12Il2CppObjectRK8Vector3f
WIj:_Version_CompareTo_m596235198
e_f:_List_1_System_Collections_ICollection_CopyTo_m3062449209_gshared
$ka:__ZNK9ShaderLab7Program19HasMatchingVariantsERK13dynamic_arrayI16ShaderKeywordSetLj4EE
$D:__ZN15SerializeTraitsIN4math4trsXEE8TransferI8BlobSizeEEvRS1_RT_
Ge:_emscripten_glVertexPointer
eNa:__ZNSt3__26__treeI20DeviceDepthStateGLES11memcmp_lessIS1_S1_ENS_9allocatorIS1_EEE7destroyEPNS_11__tree_nodeIS1_PvEE
bBg:_Graphic__ctor_m821539719
oZf:_List_1_System_Collections_Generic_ICollectionU3CTU3E_get_IsReadOnly_m1614481629_gshared
wRk:__ZN6il2cpp2vm7Runtime47RaiseExecutionEngineExceptionIfMethodIsNotFoundEPK10MethodInfo
qVi:_RectTransform_INTERNAL_get_rect_m1177342209
r2a:__Z17GetFrustumPortionPK8Vector3fffPS_
_gd:__ZNK5physx2Gu22SupportMapRelativeImplINS0_4BoxVEE18doWarmStartSupportEiRNS_6shdfnd3aos5Vec3VE
mIj:_UnauthorizedAccessException__ctor_m259001183
kZe:__ZN18VirtActionInvoker1IP30AsymmetricAlgorithm_t784058677E6InvokeEjPvS1_
hwk:_TouchScreenKeyboard_set_text_m3456054179
Uyg:_DefaultControls_CreateDropdown_m1384069408
gJk:__ZNK15dense_hashtableINSt3__24pairIK10KeyWrapperIPK22Il2CppGenericParameterEP11Il2CppClassEES6_N6il2cpp5utils11PointerHashIS4_EEN14dense_hash_mapIS6_S9_SE_NS0_8equal_toIS6_EENS0_9allocatorISA_EEE9SelectKeyESH_SJ_E5beginEv
hBl:__ZNSt3__26locale5__imp11make_globalEv
Hsg:_PointerEventData_get_clickCount_m4064532478
Lig:_ReadOnlyCollection_1_System_Collections_Generic_ICollectionU3CTU3E_get_IsReadOnly_m3508872969_gshared
opb:__ZN14DirectorPlayerD0Ev
oNc:__Z9UpdateTplIL22MinMaxGradientEvalMode1EL12GradientMode0ELS1_1EEvRK23ParticleSystemParticlesP11ColorRGBA32RK14MinMaxGradientRK23OptimizedMinMaxGradient
szk:_UnityEvent_1_GetDelegate_m4062537313_gshared
dqk:_X509Stores_Open_m2057354563
QEc:__ZN37InheritVelocityModulePropertyBindings13SetFloatValueER14ParticleSystemif
qRf:_CCGregorianCalendar_is_leap_year_m567513478
cVk:__ZNK19ReflectionMapEqualsINSt3__24pairIPK14Il2CppAssemblyP11Il2CppClassEEEclERK10KeyWrapperIS7_ESC_
Mth:_Oid_get_Value_m2271181078
Rsf:_Attribute_IsDefined_m2118467641
prg:_ExecuteEvents_Execute_m898902863
nZj:_InternalEnumerator_1_System_Collections_IEnumerator_get_Current_m3125080595_gshared
Ddg:_Collection_1_System_Collections_IList_Add_m2091889616_gshared
Y8b:__ZN16StreamedResource8TransferI24GenerateTypeTreeTransferEEvRT_
oRc:__ZN11b2GearJoint4DumpEv
tAg:_DropdownItem_OnPointerEnter_m761897861
GFb:__ZN19StreamedBinaryWriteILb0EE8TransferINSt3__24pairI8UnityStr4PPtrI6ObjectEEEEEvRT_PKc17TransferMetaFlags
Jad:__ZN5physx3Cct10Controller13onOriginShiftERKNS_6PxVec3E
dKa:__ZN10Matrix3x3f15InvertTransposeEv
BJc:__ZN14EmissionModule8TransferI19StreamedBinaryWriteILb0EEEEvRT_
Wbf:_Array_InternalArray__ICollection_Remove_TisKeyValuePair_2_t1174980068_m2768765894_gshared
rdf:_Enumerable_Where_TisIl2CppObject_m4266917885_gshared
iwc:__ZN6HelperI8JSONRead23TransferArrayField_InfoE24SerializationFunctionForERKS1_R23StaticTransferFieldInfoPb
XSa:__Z11IsBatchmodev
oXk:__ZNK15dense_hashtableINSt3__24pairIK10KeyWrapperINS1_IPK10MethodInfoP11Il2CppClassEEEjEES9_17ReflectionMapHashIS8_EN14dense_hash_mapIS9_jSD_19ReflectionMapEqualsIS8_ENS0_9allocatorISB_EEE9SelectKeyESG_SI_E10test_emptyERK24dense_hashtable_iteratorISB_S9_SD_SK_SG_SI_E
gok:_PKCS12_CertificateSafeBag_m3272197807
xag:_Collection_1_set_Item_m2199807215_gshared
J1d:__ZN5physx2Gu19_gjkRelativeRayCastINS0_9TriangleVENS0_11ConvexHullVEEEbRT_RT0_RKNS_6shdfnd3aos15PsMatTransformVERKNS9_6FloatVERKNS9_5Vec3VESI_RSD_RSG_SK_f
XMb:__Z29Transfer_Blittable_ArrayFieldI14SafeBinaryRead8Vector3fEvRT_R9ArrayInfoRK23StaticTransferFieldInfo
$Fj:_UInt32_System_IConvertible_ToBoolean_m91295134
EAj:_Monitor_Monitor_test_synchronised_m1542589500
Tzi:__ZL68RuntimePlatform_t1869584967_CustomAttributesCacheGenerator_WP8PlayerP21CustomAttributesCache
wxe:__ZN20TextRenderingPrivate8FontImpl18ResetCachedTextureEv
V9h:__ZL75String_t_CustomAttributesCacheGenerator_String_Concat_m626692867____values0P21CustomAttributesCache
hvi:__ZL98GameObject_t1756533147_CustomAttributesCacheGenerator_GameObject_SendMessage_m71956653____options2P21CustomAttributesCache
e7g:_SymmetricTransform_TransformFinalBlock_m4192185386
aMg:_TextInfo__ctor_m1263401274
W6d:__ZNK5physx19ActorAABBUpdateTask7getNameEv
QAk:_ListPool_1_Release_m3047738410_gshared
fwk:_TouchScreenKeyboard_Open_m913506328
Jhl:_GC_print_finalization_stats
Rih:_Context_get_SecurityProtocolFlags_m3295551796
N$h:_ValueCollection__ctor_m927733289_gshared
Pzk:_UnityEvent_4_FindMethod_Impl_m4079512420_gshared
JSc:__ZNK12b2WheelJoint10GetAnchorBEv
Z2j:_InternalEnumerator_1__ctor_m2981879621_AdjustorThunk
Wgc:__Z53Register_UnityEngine_Behaviour_get_isActiveAndEnabledv
rui:__ZL87Component_t3819376471_CustomAttributesCacheGenerator_Component_GetComponent_m4225719715P21CustomAttributesCache
UIb:__ZNK13MonoBehaviour26GetTypeInfoVirtualInternalEv
$7h:_EqualityComparer_1__ctor_m3971803374_gshared
Nkb:__ZNSt3__26vectorIN4core12basic_stringIcNS1_20StringStorageDefaultIcEEEENS_9allocatorIS5_EEE8__appendEj
Nxl:__ZNKSt3__210moneypunctIwLb0EE13do_pos_formatEv
bUk:_il2cpp_gc_collect
GEb:__ZN26PlayerSettingsSplashScreen8TransferI17RemapPPtrTransferEEvRT_
exe:__ZN20TextRenderingPrivate8FontImpl8TransferI17RemapPPtrTransferEEvRT_
Q0j:_InternalEnumerator_1_get_Current_m3922357178_gshared
eSk:__ZN6il2cpp6icalls8mscorlib6SystemL17CollectTypeFieldsINS_5utils10functional10TrueFilterEEEvP11Il2CppClassPKS7_iRNSt3__26vectorIP9FieldInfoNSB_9allocatorISE_EEEERKT_
QDi:__ZL72ColorBlock_t2652774230_CustomAttributesCacheGenerator_m_HighlightedColorP21CustomAttributesCache
Ahd:__ZN5physx3Scb5Scene20addArticulationJointERNS0_17ArticulationJointE
Lzb:__ZN7SubMesh8TransferI18StreamedBinaryReadILb1EEEEvRT_
KDj:_Type_get_IsValueType_m1733572463
sSd:__ZN5physx7NpScene14resetFilteringERNS_12PxRigidActorEPKPNS_7PxShapeEj
Oub:__Z13GetTagManagerv
c_j:_InternalEnumerator_1_Dispose_m1748410190_AdjustorThunk
L2i:__Z127RuntimeInvoker_Void_t1841601450_IntPtr_t_Int32_t2071877448_SByte_t454417549_Int32_t2071877448_SByte_t454417549_SByte_t454417549PK10MethodInfoPvPS2_
wcf:_Array_InternalArray__ICollection_Remove_TisUInt16_t986882611_m65494986_gshared
cjg:_ReadOnlyCollection_1_IndexOf_m3054637117_gshared
FE:__ZN11UnityEngine9Animation37HasGenericRootTransformPropertyValuesERKNS0_30AnimatorGenericBindingConstantEb
vW:__ZN11UnityEngine15CloudWebService17CloudJobSchedulerD0Ev
w4e:_String_System_IConvertible_ToBoolean_m2696751322
psa:__ZN18LoadSceneOperation7PerformEv
Lwe:__ZNSt3__26vectorI8UnityStr13stl_allocatorIS1_L18MemLabelIdentifier34ELi16EEE8__appendEj
X0j:_InternalEnumerator_1__ctor_m3228997263_AdjustorThunk
cac:__Z18CalculateWorldAABBR10GameObject
P$c:__ZL30GeomMTDCallback_CapsuleCapsuleRN5physx6PxVec3ERfRKNS_10PxGeometryERKNS_11PxTransformES5_S8_
Dy:__ZN7mecanim9animation17DestroyClipOutputEPNS0_10ClipOutputERNS_6memory9AllocatorE
dug:__ZN16VirtFuncInvoker1IfP8String_tE6InvokeEjPvS1_
sM:__ZL16FMOD_ErrorString11FMOD_RESULT_464
AMj:_Camera_get_pixelRect_m2084185953
zIk:__ZL25UnresolvedVirtualCall_219P12Il2CppObjecti20Playable_t3667545548PK10MethodInfo
e8c:__ZL18intersectAnyVsMeshILi0EEbPKN5physx2Gu6SphereEPKNS1_7CapsuleEPKNS1_3BoxERKNS1_13RTreeMidphaseERKNS0_11PxTransformERKNS0_11PxMeshScaleEP14LimitedResults
lCj:_TimeSpan__ctor_m1888018443_AdjustorThunk
Jba:__ZL23AddConflictingClassIMPL11ClassIDTypeS_
rw:__ZN19StreamedBinaryWriteILb0EE21TransferSTLStyleArrayI22OffsetPtrArrayTransferIN7mecanim9animation10ValueDeltaEEEEvRT_17TransferMetaFlags
GCf:_SyncHashtable_get_Count_m3694444082
qod:__ZN5physx14NpArticulation6wakeUpEv
y0k:__ZNSt3__26vectorINS_12basic_stringIcNS_11char_traitsIcEENS_9allocatorIcEEEENS4_IS6_EEE8allocateEj
xfj:__Z131RuntimeInvoker_Void_t1841601450_Il2CppObject_AnimatorStateInfo_t2577870592_Int32_t2071877448_AnimatorControllerPlayable_t4078305555PK10MethodInfoPvPS2_
APc:__ZN15ParticlesModule8SyncJobsEv
bNl:_emscripten_glUniform2i__wrapper
SGf:_Double_Parse_m2344589511
sVa:__ZN6Camera24PrepareCullingParametersERK23CameraCullingParameters13RenderingPathR11CullResults
Haj:__Z54RuntimeInvoker_Vector3_t2243707580_Vector3_t2243707580PK10MethodInfoPvPS2_
$dj:__Z54RuntimeInvoker_Vector2_t2243707579_Vector2_t2243707579PK10MethodInfoPvPS2_
fmi:__ZL84Evidence_t1407710183_CustomAttributesCacheGenerator_Evidence_GetHashCode_m1260371757P21CustomAttributesCache
rZa:__ZN13MonoBehaviour30InvokeMethodOrCoroutineCheckedE21ScriptingMethodIl2CppP12Il2CppObjectPP15Il2CppException
Vig:_ReadOnlyCollection_1_System_Collections_ICollection_get_IsSynchronized_m2344337514_gshared
BNb:__Z26Transfer_UnityEngineObjectI17RemapPPtrTransferLb0EEvRK29SerializationCommandArgumentsR31RuntimeSerializationCommandInfo
O5e:_String_IsNullOrEmpty_m2802126737
Evf:_Byte_Parse_m1442736478
_Ba:__ZN13GfxDeviceGLES15OnDeviceCreatedEb
IPg:_Int64_Parse_m3258022240
z5e:_String_IndexOfOrdinal_m3591623977
D7a:__ZN10GameObject12SetHideFlagsEi
IIh:_CryptoConfig_EncodeLongNumber_m2352037787
pEj:_Type_GetMethod_m475234662
g4e:_Single_GetHashCode_m3102305584
lTf:_KeyValuePair_2__ctor_m1877755778_AdjustorThunk
jbk:_ActivationServices_get_ConstructionActivator_m1726426854
vQb:__Z29Transfer_Blittable_ArrayFieldI24GenerateTypeTreeTransfer4AABBEvRT_R9ArrayInfoRK23StaticTransferFieldInfo
Hoi:__ZL76Convert_t2607082565_CustomAttributesCacheGenerator_Convert_ToChar_m245844937P21CustomAttributesCache
aoi:__ZL52Activator_t1850728717_CustomAttributesCacheGeneratorP21CustomAttributesCache
Lil:_GC_adj_bytes_allocd
bxj:_SpriteState_t1353336012_marshal_pinvoke_cleanup
Khf:_Array_InternalArray__ICollection_Add_TisKeyframe_t1449471340_m887263954_gshared
Wke:__ZN5physx20InternalTriangleMesh16allocateVerticesEj
hxk:_UIVertex__cctor_m803910084
jjf:_Array_InternalArray__Insert_TisDateTime_t693205669_m1484996356_gshared
k_f:_List_1_System_Collections_IList_Remove_m3933652540_gshared
P4h:_DefaultComparer_GetHashCode_m926674183_gshared
yUg:_MonoIO_get_ConsoleInput_m2976499023
cSh:_OpCode_get_Size_m481593949_AdjustorThunk
cAf:_BitArrayEnumerator_checkVersion_m3839504595
grf:_Array_GetUpperBound_m1352329707
wSa:__ZZ23InitPlayerLoopCallbacksvEN36UpdateScriptRunBehaviourUpdatestruct7ForwardEv
c5d:__ZN5physx6shdfnd5ArrayINS_17PxcBroadPhasePairENS0_19ReflectionAllocatorIS2_EEE8recreateEj
iof:_Mesh_SetListForChannel_TisIl2CppObject_m2261448912_gshared
raj:__Z61RuntimeInvoker_Void_t1841601450_Byte_t3683104436_Il2CppObjectPK10MethodInfoPvPS2_
whh:_RecordProtocol__ctor_m168945279
mLf:_DateTimeOffset_Equals_m3728302791_AdjustorThunk
q6c:__ZThn4_N16RayRTreeCallbackILi1ELb0EED1Ev
Lne:__ZN5physx17ConvexMeshBuilder22computeInternalObjectsEv
$Ni:_GUIStyleState_t3801000545_marshal_pinvoke_back
c2a:__ZN20SphericalHarmonicsL219AddDirectionalLightERKN4math7_float3ERKNS0_7_float4E
Eje:__ZN5physx13BigConvexDataD2Ev
iDj:_TimeSpan_op_GreaterThanOrEqual_m3997050520
ypi:__ZL77Convert_t2607082565_CustomAttributesCacheGenerator_Convert_ToUInt16_m36213644P21CustomAttributesCache
g4:__Z26ScheduleJobForEachInternalR8JobFencePFvPvjES1_iPFvS1_E11JobPriority
Xth:_OidEnumerator_MoveNext_m1889267785
odc:__ZN9Scripting18RaiseMonoExceptionEPKcz
_wi:__ZL76Physics_t634932869_CustomAttributesCacheGenerator_Physics_Raycast_m780162053P21CustomAttributesCache
Zrb:__ZN9Texture2D8TransferI19StreamedBinaryWriteILb0EEEEvRT_
VHb:__ZN24RingBufferMemoryFileData6UnlockEPv
IKi:_GUISkin_set_box_m877476512
wAg:_OptionData__ctor_m3070653720
FAk:_TweenRunner_1_StartTween_m3792842064_gshared
f6b:__ZN9ShaderLab16FastPropertyName15InitBy28BitHashEj
I3e:_Single_System_IConvertible_ToInt32_m3269519527_AdjustorThunk
wKk:__ZN6il2cpp2vm5Class7GetNameEP11Il2CppClass
kWb:__ZN13MonoBehaviour18TransferEngineDataI18StreamedBinaryReadILb0EEEE4PPtrI10MonoScriptERT_
BZe:_SHA1Internal_ProcessBlock_m4070037334
gkl:__ZN6il2cpp6icalls8mscorlib6System10Reflection14MonoMethodInfo15get_method_infoE12Il2CppIntPtrP16Il2CppMethodInfo
paf:_UTF32Encoding_GetDecoder_m2714144074
LGd:__ZN5physx22NpParticleBaseTemplateINS_15PxParticleFluidENS_15NpParticleFluidEE9addForcesEjRKNS_16PxStrideIteratorIKjEERKNS4_IKNS_6PxVec3EEENS_11PxForceMode4EnumE
KBh:_ObjRef_GetObjectData_m3081609242
f7d:__ZN5physx20updateBodyShapeAABBsEPKjjS1_PKNS_17PxcAABBDataStaticEPNS_11IntegerAABBEj
$yb:__ZN17PackedFloatVector12UnpackFloatsEPfiiii
Nmi:__ZL113EncoderReplacementFallback_t4228544112_CustomAttributesCacheGenerator_EncoderReplacementFallback__ctor_m517300448P21CustomAttributesCache
Vgg:_ReadOnlyCollection_1__ctor_m3671019970_gshared
f0f:_List_1_System_Collections_Generic_ICollectionU3CTU3E_get_IsReadOnly_m3511020562_gshared
xBa:__ZN13GfxDeviceGLES21DestroyComputeProgramER12ObjectHandleI18ComputeProgram_TagPvE
pGf:_Convert_ToDecimal_m2007036836
Fca:__ZN17UniqueIDGenerator16DestroyPureIndexEj
oYb:__ZN14SafeBinaryRead21TransferSTLStyleArrayINSt3__26vectorIN9ShaderLab20SerializedSubProgram12UAVParameterENS1_9allocatorIS5_EEEEEEvRT_17TransferMetaFlags
qdk:_Context_NotifyDynamicSinks_m1367144344
p$:__ZNK13BaseAllocator10IsAssignedEv
OY:__ZN24TextDOMTransferWriteBaseI9JSONWriteE12PushMetaFlagEi
a8g:__ZN16VirtFuncInvoker1I25DSAParameters_t1872138834bE6InvokeEjPvb
Y0h:_Dictionary_2_TryGetValue_m3108198470_gshared
ZCd:__ZN5physx7NpCloth22removeCollisionCapsuleEj
xjh:_Context_get_Current_m2717045324
KYi:__Z45RuntimeInvoker_Int16_t4041245914_Il2CppObjectPK10MethodInfoPvPS2_
Rok:_X509Certificate_GetSubjectName_m1189079906
eAg:_Dropdown_DestroyItem_m234623804
Chh:_TlsClientCertificateVerify__ctor_m110646389
Cqa:__ZN6prcoreL26RemapGenericIntegerToFloatI17TexFormatARGB888815TexFormatRFloatEEvPKNS_9InnerInfoE
Y_:__ZN5Mutex6UnlockEv
cRk:__ZN6il2cpp2vm10ThreadPool10InitializeEv
zdk:_Context_GetServerContextSinkChain_m390126977
m0k:__ZN6il2cpp2vm17TypeNameParseInfoD2Ev
zXk:__ZNK15dense_hashtableINSt3__24pairIK10KeyWrapperINS1_IPK11Il2CppImageP11Il2CppClassEEEjEES9_17ReflectionMapHashIS8_EN14dense_hash_mapIS9_jSD_19ReflectionMapEqualsIS8_ENS0_9allocatorISB_EEE9SelectKeyESG_SI_E13find_positionERSA_
gfe:__ZN5physx18PxsSolverStartTask16articulationTaskEv
jmf:_Array_Sort_TisIl2CppObject_m143182644_gshared
eWg:_StringReader_Read_m513112775
Utb:__ZNK8Renderer8GetLayerEv
Kid:__ZN5physx6shdfnd4sortIPvNS0_4LessIS2_EENS0_19ReflectionAllocatorINS_2Cm5BlockIS2_Lj16EEEEEEEvPT_jRKT0_RKT1_j
I9c:__ZN5physx3Cct17CapsuleController18setNonWalkableModeENS_27PxControllerNonWalkableMode4EnumE
Wid:__ZN5physx2Sc11InteractionD2Ev
K8f:_Collection_1_Add_m2613548553_gshared
BA:__ZN7mecanim9animation22DestroyBlendTreeOutputEPNS0_15BlendTreeOutputERNS_6memory9AllocatorE
z2a:__ZNK6Camera20GetReplacementShaderEv
zwd:__ZN18MultiQueryCallbackIN5physx12PxRaycastHitEE6invokeERfPKNS0_2Sq13PrunerPayloadEj
YLf:_Decimal__ctor_m569480123_AdjustorThunk
grh:_HttpWebRequest__cctor_m3013631978
B0c:__ZN5physx2Gu9ContainerC2Ev
xYb:__ZNSt3__26vectorIN9ShaderLab20SerializedSubProgram14ConstantBufferENS_9allocatorIS3_EEE7reserveEj
oua:__ZL23stbir__calculate_memoryP11stbir__info
Mvg:_Button_OnPointerClick_m2524861687
h9i:__Z90RuntimeInvoker_Boolean_t3825574718_Int32_t2071877448_Int32U26_t455636984_Int32_t2071877448PK10MethodInfoPvPS2_
F4g:_KeyGeneratedEventHandler_EndInvoke_m1587195139
$Nd:__ZN5physx15NpActorTemplateINS_13PxRigidStaticEE13setActorFlagsENS_7PxFlagsINS_11PxActorFlag4EnumEtEE
etj:_Scrollbar_FindSelectableOnRight_m3219495255
tq:__ZN9Behaviour11FixedUpdateEv
LFb:__ZNK30RuntimeInitializeOnLoadManager26GetTypeInfoVirtualInternalEv
eMe:__ZNSt3__227__insertion_sort_incompleteIRPFbPN2UI6CanvasES3_EPS3_EEbT0_S8_T_
YAc:__ZNK9rapidjson12GenericValueINS_4UTF8IcEE13JSONAllocatorE6AcceptINS_12PrettyWriterI16TempBufferWriterS2_S2_S3_EEEEbRT_
rLd:__ZN5physx19NpRigidBodyTemplateINS_14PxRigidDynamicEE11attachShapeERNS_7PxShapeE
Vif:_Array_InternalArray__ICollection_CopyTo_TisVector3_t2243707580_m509487340_gshared
PCg:_GridLayoutGroup_get_constraint_m1351424857
Bwc:__ZL26Transfer_SimpleNativeClassI8JSONRead10RectOffsetLb1EEvRK29SerializationCommandArgumentsR31RuntimeSerializationCommandInfo
qPe:__Z44CanvasRenderer_CUSTOM_INTERNAL_CALL_SetColorP12Il2CppObjectRK10ColorRGBAf
khl:_GC_should_collect
Jne:__ZN5physx2Gu27computeBoundsAroundVerticesERNS_9PxBounds3EjPKNS_6PxVec3E
xbk:_UrlAttribute_Equals_m1587451932
E2:__ZNSt3__26__treeINS_12basic_stringIcNS_11char_traitsIcEENS_9allocatorIcEEEENS_4lessIS6_EENS4_IS6_EEE12__find_equalIS6_EERPNS_16__tree_node_baseIPvEESG_RKT_
Bzc:__Z18Transfer_BlittableI9JSONWriteLb1EsEvRK29SerializationCommandArgumentsR31RuntimeSerializationCommandInfo
yRd:__ZNK5physx7NpScene9getLimitsEv
ZNg:_Int16_ToString_m4099416068_AdjustorThunk
KJh:_DSAParameters_t1872138834_marshal_pinvoke_cleanup
Uja:__ZN6ObjectD2Ev
SRa:__ZZ23InitPlayerLoopCallbacksvEN44EarlyUpdateResetFrameStatsAfterPresentstruct7ForwardEv
d2d:__ZNK5physx2Gu29EPASupportMapPairRelativeImplINS0_9TriangleVENS0_8CapsuleVEE9doSupportERKNS_6shdfnd3aos5Vec3VERS7_SA_SA_
ps:__ZN13AnimationClip16DecompressCurvesERNSt3__26vectorI24CompressedAnimationCurve13stl_allocatorIS2_L18MemLabelIdentifier25ELi16EEEE
X5d:__ZN3MBP12updateObjectEjRK5IAABB
Bdj:__Z64RuntimeInvoker_Void_t1841601450_Il2CppObject_Vector3_t2243707580PK10MethodInfoPvPS2_
iFg:_InputField_get_placeholder_m1768315947
Mld:__ZN5physx6shdfnd5ArrayINS_6PxVec3ENS0_19ReflectionAllocatorIS2_EEE15growAndPushBackERKS2_
AAa:__ZN13GfxDeviceGLES22ReleaseThreadOwnershipEv
Yfk:_MethodCall_Init_m3987198685
h7k:__ZN6il2cpp2os19ReleaseSocketHandleEj
cmi:__ZL59ApplicationTrust_t3968282840_CustomAttributesCacheGeneratorP21CustomAttributesCache
odi:__ZL128SafeHandleZeroOrMinusOneIsInvalid_t1177681199_CustomAttributesCacheGenerator_SafeHandleZeroOrMinusOneIsInvalid__ctor_m3340306667P21CustomAttributesCache
sSh:_TypeBuilder_GetPropertyImpl_m1854119335
RJb:__Z30GetOrCreateObjectStoredInFieldP9FieldInfoRK17GeneralMonoObjectb
wVd:__ZN5physx2Sc5Scene20fireTriggerCallbacksEv
QNh:_TypeBuilder_get_next_table_index_m1415870184
sDl:___cxa_can_catch
Dch:_SequentialSearchPrimeGeneratorBase_GenerateNewPrime_m296245934
Jwf:_Char_GetUnicodeCategory_m4273361321
M9h:__ZL63String_t_CustomAttributesCacheGenerator_String_Split_m394273024P21CustomAttributesCache
yOk:__ZN15dense_hashtableINSt3__24pairIK10KeyWrapperIPK19Il2CppGenericMethodEPK26Il2CppGenericMethodIndicesEES6_N6il2cpp8metadata23Il2CppGenericMethodHashEN14dense_hash_mapIS6_SA_SE_NSD_26Il2CppGenericMethodCompareENS0_9allocatorISB_EEE9SelectKeyESG_SI_E12maybe_shrinkEv
oMe:__ZN2UI11CanvasGroup23VirtualRedirectTransferER19StreamedBinaryWriteILb0EE
s1d:__ZN5physx2Gu18GJKRelativeRayCastERNS0_8CapsuleVERNS0_4BoxVERKNS_6shdfnd3aos15PsMatTransformVERKNS6_6FloatVERKNS6_5Vec3VESF_RSA_RSD_SH_fb
aij:__Z68RuntimeInvoker_Boolean_t3825574718_Il2CppObject_ObjectU26_t597476745PK10MethodInfoPvPS2_
EU:__ZN10AudioMixer6UpdateEf
mIa:__ZNK13TranslateGLES23VertexArraySizeBitfieldEi
G0j:_InternalEnumerator_1_get_Current_m1047712960_gshared
hdk:_Identity_get_ClientDynamicProperties_m767245959
lZj:_InternalEnumerator_1__ctor_m675130983_AdjustorThunk
S0h:_Dictionary_2_Clear_m899854001_gshared
sbl:__ZN6il2cpp2os5posix15PosixWaitObjectC2ENS2_4TypeE
l_a:__ZN6Camera21PostMultiCustomRenderENS_10RenderFlagEb
KKa:__ZN14DrawBufferGLESI11IndexBuffer26IndexBufferUsageMapperGLESED0Ev
_jd:__ZN5physx15PxsArticulationD2Ev
cFk:__ZL24UnresolvedVirtualCall_34P12Il2CppObjectS0_PK10MethodInfo
tJl:_emscripten_glVertexPointer__wrapper
Eyi:__ZL78GUISettings_t622856320_CustomAttributesCacheGenerator_m_DoubleClickSelectsWordP21CustomAttributesCache
bxa:__ZN23ShaderVariantCollection13WarmupShadersEv
Qih:_Context_set_ProtocolNegotiated_m1177527245
dGj:_UInt32_System_IConvertible_ToChar_m1056040486
Vpf:_ScriptableObject_CreateInstance_TisIl2CppObject_m926060499_gshared
Hoh:_TlsStream_get_Length_m1562309511
Psa:__Z27scripting_gc_collect_unsafei
SU:__ZN11AudioModule20SuspendVideoTexturesEv
fAf:_CaseInsensitiveComparer__ctor_m1125492797
F5b:__ZN12CubemapArrayC2E18MemLabelIdentifier18ObjectCreationMode
kNd:__ZN5physx13NpRigidStaticC2ERKNS_11PxTransformE
QEf:_Convert_ToByte_m395020137
YOb:__Z26Transfer_UnityEngineObjectI24GenerateTypeTreeTransferLb0EEvRK29SerializationCommandArgumentsR31RuntimeSerializationCommandInfo
nYc:__ZN10Collider2D16RecreateColliderEbP11Rigidbody2D
VHe:_UNITY_FT_GlyphLoader_CheckPoints
U1f:_List_1_System_Collections_ICollection_CopyTo_m1995866425_gshared
lTc:__ZN16b2PolygonContact7DestroyEP9b2ContactP16b2BlockAllocator
uCl:___cxa_get_globals_fast
E1d:__ZN5physxL20PxcSweepBoxTrianglesERKNS_11PxsCCDShapeES2_RKNS_11PxTransformES5_S5_S5_fRNS_6PxVec3ES7_RNS_10PxcNpCacheERNS_18PxcNpThreadContextERKNS_2Cm23FastVertex2ShapeScalingERNS_2Gu9TriangleVEf
VWg:_TextWriter_WriteLine_m1754475888
Zad:__ZN5physx3Cct15ObstacleContextD0Ev
oob:__ZN15SharedLightData7PrecalcEv
xta:__ZN10Matrix4x4fmLERKS_
Msk:_InvokableCall_1_Invoke_m769918017_gshared
Oq:__ZN4PPtrI9TransformE8TransferI18StreamedBinaryReadILb0EEEEvRT_
Rof:_Array_InternalArray__get_Item_TisDouble_t4078015681_m2215331088_gshared
lmi:__ZL57PrincipalPolicy_t289802916_CustomAttributesCacheGeneratorP21CustomAttributesCache
tcg:_Collection_1_ClearItems_m3446813399_gshared
Lea:__ZN18AssetBundleManagerC2Ev
YQa:__ZN15ArchiveReadFileD0Ev
Z6g:_SymmetricTransform_TransformBlock_m1524716432
Gda:__ZN18ConcurrentFreeListI28FileTextureUploadInstructionE7CleanUpEv
WYk:__ZN15dense_hashtableINSt3__24pairIK10KeyWrapperINS1_IPK9EventInfoP11Il2CppClassEEEjEES9_17ReflectionMapHashIS8_EN14dense_hash_mapIS9_jSD_19ReflectionMapEqualsIS8_ENS0_9allocatorISB_EEE9SelectKeyESG_SI_E4swapERSL_
Nef:_Array_compare_TisColor32_t874517518_m3842009370_gshared
gSe:__ZN11UnityEngine15PlatformWrapper18GetOperatingSystemEv
EGa:__ZNSt3__26vectorIP14DataBufferGLESNS_9allocatorIS2_EEE21__push_back_slow_pathIKS2_EEvRT_
nWd:__ZN5physx3Scb9Aggregate9syncStateERNS0_5SceneE
Iti:__ZL61ExtensionAttribute_t1840441203_CustomAttributesCacheGeneratorP21CustomAttributesCache
Zlg:_ReadOnlyCollection_1_System_Collections_Generic_ICollectionU3CTU3E_Remove_m974176789_gshared
vNf:_Delegate_return_type_match_m4278947849
$Gg:_InputField_GenerateHightlight_m1346735465
lSk:__ZN6il2cpp6icalls8mscorlib6System8MonoType19GetGenericArgumentsEP20Il2CppReflectionType
dDl:__ZNSt8bad_castD0Ev
hEf:_GC_SuppressFinalize_m953228702
RHe:_FT_MSB
GSe:__ZNSt3__26__treeINS_12__value_typeI8UnityStr14CallbackArray2IRKS2_R8JSONReadEEENS_19__map_value_compareIS2_S9_NS_4lessIS2_EELb1EEE13stl_allocatorIS9_L18MemLabelIdentifier5ELi16EEE7destroyEPNS_11__tree_nodeIS9_PvEE
znh:_InternalAsyncResult_get_ProceedAfterHandshake_m552962842
xNi:_GUIStyle_get_clipping_m2754700641
B6i:__Z50RuntimeInvoker_SByte_t454417549_Double_t4078015681PK10MethodInfoPvPS2_
wDh:_SoapServices_PreLoad_m490411755
Vml:__ZN6il2cpp6icalls8mscorlib4Mono8Security12Cryptography18KeyPairPersistence10_CanSecureEP12Il2CppString
Urd:__ZN5physx7NpActor17resolveReferencesERNS_24PxDeserializationContextE
Yvj:_Slider__ctor_m3124136916
zJc:__ZN13InitialModule8TransferI19StreamedBinaryWriteILb0EEEEvRT_
$6j:_DefaultComparer__ctor_m3180706193_gshared
N3f:_List_1_System_Collections_Generic_IEnumerableU3CTU3E_GetEnumerator_m3625278020_gshared
nya:__ZN13GfxDeviceGLES14SetRasterStateEPK17DeviceRasterState
LJb:__Z26scripting_field_get_offsetP9FieldInfo
dLb:__Z30TransferField_LinearCollectionI14SafeBinaryReadEvRK29SerializationCommandArgumentsR31RuntimeSerializationCommandInfo
ied:__ZN5physx6shdfnd8internal8HashBaseINS0_4PairIKPKNS_2Sc8ShapeSimENS4_10NPhaseCore16ClothListElementEEES7_NS0_4HashIS7_EENS1_11HashMapBaseIS7_SA_SD_NS0_9AllocatorEE6GetKeyESF_Lb1EE5eraseERS8_
RFg:_InputField_set_caretPositionInternal_m231166704
yJb:__Z23TransferScriptingObjectI14SafeBinaryReadEvRT_P12Il2CppObjectP11Il2CppClassPK15MonoScriptCache
Pdd:__ZN5physx5Elems17setStaticAABBDataEjRKNS_17PxcAABBDataStaticE
kih:_TlsServerHello__ctor_m3032108168
ria:__ZN14SafeBinaryRead11EndTransferEv
MZk:__ZN14dense_hash_mapI10KeyWrapperIPK10Il2CppTypeEjN6il2cpp8metadata14Il2CppTypeHashENS6_17Il2CppTypeCompareENSt3__29allocatorINS9_4pairIKS4_jEEEEEC2EjRKS7_RKS8_
Rfi:__ZL98ILGenerator_t99948092_CustomAttributesCacheGenerator_ILGenerator_Mono_GetCurrentOffset_m3553856682P21CustomAttributesCache
Jsa:__ZNK10UnityScene13GetBuildIndexEv
P_:__ZNK3WWW12GetAudioClipEv
TKb:__ZN14SafeBinaryRead8TransferI8MonoPPtrEEvRT_PKc17TransferMetaFlags
Y2h:_Dictionary_2_System_Collections_Generic_ICollectionU3CSystem_Collections_Generic_KeyValuePairU3CTKeyU2CTValueU3EU3E_Remove_m1705959559_gshared
b5j:_InternalEnumerator_1_System_Collections_IEnumerator_get_Current_m1533037706_gshared
NJa:__ZN21UniformBufferTFMethod13MapBoneBufferEj
jmh:_RecordProtocol_SendChangeCipherSpec_m3542001341
aXk:__ZN15dense_hashtableINSt3__24pairIK10KeyWrapperINS1_IPK10MethodInfoP11Il2CppClassEEEjEES9_17ReflectionMapHashIS8_EN14dense_hash_mapIS9_jSD_19ReflectionMapEqualsIS8_ENS0_9allocatorISB_EEE9SelectKeyESG_SI_E4swapERSL_
Zkf:_Array_InternalArray__set_Item_TisVector3_t2243707580_m1390667454_gshared
y4f:_List_1_Sort_m3574220472_gshared
w3k:__ZNSt3__26vectorIcNS_9allocatorIcEEEC2Ej
Wjc:__Z40Register_UnityEngine_Input_GetKeyDownIntv
U4g:_KeyPairPersistence_CanSecure_m2251009700
YRa:__ZZ23InitPlayerLoopCallbacksvEN27FixedUpdateClearLinesstruct7ForwardEv
BIb:__ZN9TextAsset15ThreadedCleanupEv
q8b:__ZN14DirectorPlayer8TransferI14SafeBinaryReadEEvRT_
EAh:_ReturnMessage_get_Properties_m531965085
UPh:_GenericTypeParameterBuilder_IsSubclassOf_m563999142
R9:__ZN14SerializedFileD2Ev
bye:__ZNSt3__26vectorIN20TextRenderingPrivate8FontImpl7IntRectE13stl_allocatorIS3_L18MemLabelIdentifier34ELi16EEE21__push_back_slow_pathIKS3_EEvRT_
h4:__Z21CompleteFenceInternalR8JobFence
Prc:__Z30Event_Get_Custom_PropModifiersP12Il2CppObject
Xjd:__ZN5physx6shdfnd5ArrayIPvNS0_16AlignedAllocatorILj64ENS0_9AllocatorEEEE15growAndPushBackERKS2_
hEd:__ZN5physx6shdfnd5ArrayINS_35PxClothParticleSeparationConstraintENS0_19ReflectionAllocatorIS2_EEE6resizeEjRKS2_
ly:__ZN7mecanim9animation16CreateClipOutputEPKNS0_4ClipERNS_6memory9AllocatorE
kjf:_Array_InternalArray__Insert_TisDecimal_t724701077_m1429254816_gshared
$Ak:_ListPool_1_Get_m2998644518_gshared
GTb:__ZN18StreamedBinaryReadILb0EE21TransferSTLStyleArrayI13dynamic_arrayIyLj8EEEEvRT_17TransferMetaFlags
M5i:__Z76RuntimeInvoker_IntPtr_t_SByte_t454417549_Il2CppObject_BooleanU26_t3168250738PK10MethodInfoPvPS2_
RUk:__ZN6il2cpp2vm10Reflection17GetAssemblyObjectEPK14Il2CppAssembly
GFa:__ZN18AsyncUploadManager17DoScaledPaddedJobEP28FileTextureUploadInstruction
mad:__ZN5physx3Cct12SweptCapsuleC2Ev
INe:__ZN2UIL31GenerateRenderableUIInstructionEPNS_28PreprocessUIInstructionsDataEj
sXb:__ZN6Shader21AwakeFromLoadThreadedEv
jWe:__ZN16VirtFuncInvoker0IiE6InvokeEjPv
Iyl:__ZNSt3__28messagesIwED0Ev
Dpa:__ZN6prcoreL17RemapGenericFloatI17TexFormatRGBFloat17TexFormatRGBAHalfEEvPKNS_9InnerInfoE
oFi:__ZL70InputField_t1631627530_CustomAttributesCacheGenerator_m_CharacterLimitP21CustomAttributesCache
C4f:_List_1_get_Capacity_m2443158653_gshared
Exc:__ZN8JSONRead21TransferSTLStyleArrayI13dynamic_arrayI8Vector2fLj4EEEEvRT_18MemLabelIdentifier17TransferMetaFlags
Pte:__ZN5physx24PxcContactBoxHeightFieldERKNS_2Gu13GeometryUnionES3_RKNS_11PxTransformES6_RKfRNS_10PxcNpCacheERNS0_13ContactBufferE
Tnl:__ZN6il2cpp2os9SemaphoreC2Eii
jZj:_InternalEnumerator_1_get_Current_m2960188445_AdjustorThunk
aNb:__ZNSt3__26vectorI8MonoPPtr13stl_allocatorIS1_L18MemLabelIdentifier1ELi16EEE8__appendEj
zxj:_Text_set_alignByGeometry_m1514652028
c3i:__Z92RuntimeInvoker_Void_t1841601450_Il2CppObject_Il2CppObject_SByte_t454417549_Int32_t2071877448PK10MethodInfoPvPS2_
YJa:__ZN15UniformTFMethod20IsBoneCountSupportedEi
N6d:__ZNK5physx23AggregateAABBUpdateTask7getNameEv
V1a:__ZN14qsort_internal31_FindAndMovePivotToLastPositionIP21ForwardRenderPassDataiN23ForwardShaderRenderLoop18RenderObjectSorterILb1EEEEEvT_S6_T0_T1_
H$e:_X509Certificate_GetExpirationDateString_m2351894475
PUi:_Rect_Contains_m1334685291_AdjustorThunk
WSg:_FileStream_get_Position_m465478322
vFl:dynCall_viidi
ojf:_Array_InternalArray__Insert_TisInt64_t909078037_m3039874636_gshared
Ttf:_Convert_ToInt16_m1787678274
kyj:_ToggleGroup_NotifyToggleOn_m997426227
tmh:_RSASslSignatureDeformatter_SetKey_m1150106904
uyi:__ZL74Event_t3028476042_CustomAttributesCacheGenerator_Event_Cleanup_m1195902101P21CustomAttributesCache
Q6:__ZN24ScriptingMethodFiltering17FilterOnSignatureENS_18MethodSearchFilterE
TJc:__ZN11TrailModule8TransferI19StreamedBinaryWriteILb0EEEEvRT_
Iie:__ZN5physx13NpClothFabric16scaleRestlengthsEf
q0:__ZN18ScreenManagerWebGL13SetLockCursorE14CursorLockMode
nHe:_cf2_arrstack_finalize
rZg:_MonoType_GetMethodsByName_m1854415088
ZNh:_DerivedType_GetMethods_m165266904
zJk:__ZN15dense_hashtableINSt3__24pairIK10KeyWrapperIPK22Il2CppGenericParameterEP11Il2CppClassEES6_N6il2cpp5utils11PointerHashIS4_EEN14dense_hash_mapIS6_S9_SE_NS0_8equal_toIS6_EENS0_9allocatorISA_EEE9SelectKeyESH_SJ_E15insert_noresizeERKSA_
D6g:_RSAManaged_EncryptValue_m4089823119
h3b:__ZN13MonoBehaviour19HandleNotificationsEPviR11MessageData
mlf:_Array_qsort_TisPlayable_t3667545548_m1963915233_gshared
c4h:_DefaultComparer_GetHashCode_m926363525_gshared
bMi:_GUIStyle_set_focused_m1547304893
qNd:__ZNK5physx13NpRigidStatic7getTypeEv
Qtj:_ScrollRect_get_verticalScrollbar_m2455612493
kfj:__Z69RuntimeInvoker_Void_t1841601450_Int32_t2071877448_HitInfo_t1761367055PK10MethodInfoPvPS2_
Xja:__ZNK11NamedObject26GetTypeInfoVirtualInternalEv
LTg:_ReadDelegate_Invoke_m2091885836
iPh:_TypeBuilder_GetField_m2112455315
pIl:b58
qIl:b59
i0f:_List_1_System_Collections_IList_get_IsFixedSize_m3412144440_gshared
dIl:b52
eIl:b53
bIl:b50
wgj:__Z51RuntimeInvoker_Vector4_t2243707581_SByte_t454417549PK10MethodInfoPvPS2_
Iae:__ZN5physx9PxTaskMgrD0Ev
oIl:b57
fIl:b54
gIl:b55
u2g:_Kernel_Multiply_m3585610531
Hfh:_CertificateSelectionCallback_EndInvoke_m3525317639
LR:__ZN4PPtrI15AudioMixerGroupE8TransferI18StreamedBinaryReadILb0EEEEvRT_
E_i:__Z67RuntimeInvoker_Void_t1841601450_Int32_t2071877448_Int16_t4041245914PK10MethodInfoPvPS2_
wrf:_Array_CreateInstance_m3310016470
wsf:_SimpleEnumerator_Reset_m1341779532
H0k:__ZNSt3__214__split_bufferINS_12basic_stringIcNS_11char_traitsIcEENS_9allocatorIcEEEERNS4_IS6_EEEC2EjjS8_
S5g:_MACAlgorithm_Core_m2390605245
N3j:_InternalEnumerator_1_System_Collections_IEnumerator_get_Current_m30488070_gshared
l2b:__ZN10GameObject12CleanupClassEv
E0j:_InternalEnumerator_1_System_Collections_IEnumerator_Reset_m2624612805_AdjustorThunk
Hmd:__ZN5physx3Scb5Scene13addRigidNoSimINS0_11RigidStaticELb0ELb1EEEvRT_RNS0_13ObjectTrackerE
Sya:__ZN9GfxDevice25SetShaderPropertiesSharedERK19ShaderPropertySheet
Zzk:_IndexedSet_1_GetEnumerator_m3646001838_gshared
Oua:__ZN18StreamedBinaryReadILb1EE20TransferTypelessDataEjPvi
eIb:__ZN10MonoScript17MainThreadCleanupEv
Nja:__ZN13RenderTexture9SetActiveEiP12ObjectHandleI17RenderSurface_TagP17RenderSurfaceBaseES4_PPS_i11CubemapFaceij
UEa:__ZN18AsyncUploadManager19AsyncResourceUploadER9GfxDeviceii9TextureID
jrj:_VertexHelper_AddUIVertexTriangleStream_m4009409241
L7j:_Comparer_1__ctor_m844571340_gshared
F6b:__ZL25InitializeDefaultMaterialv
QPe:__Z53Register_UnityEngine_CanvasRenderer_get_materialCountv
Au:__ZN14AnimationEvent8TransferI18StreamedBinaryReadILb1EEEEvRT_
bih:_TlsStream_Write_m2055734301
jPa:__ZN19FileAccessorHandlerD2Ev
x8j:_Comparer_1__ctor_m2941434245_gshared
Oyj:_VertexHelper_AddVert_m3290455716
Qli:__ZL56SHA256Managed_t2029745292_CustomAttributesCacheGeneratorP21CustomAttributesCache
Nfi:__ZL126GenericTypeParameterBuilder_t1370236603_CustomAttributesCacheGenerator_GenericTypeParameterBuilder_MakeGenericType_m2955814622P21CustomAttributesCache
mxi:__ZL95Physics_t634932869_CustomAttributesCacheGenerator_Physics_RaycastAll_m410413656____maxDistance1P21CustomAttributesCache
qJ:__ZN15SerializeTraitsI9OffsetPtrIN7mecanim9animation17BlendTreeConstantEEE8TransferI19StreamedBinaryWriteILb0EEEEvRS4_RT_
h0:__ZN13ScreenManager17RequestResolutionEiibi
k8c:__ZN26IntersectAnyVsMeshCallbackILi0ELb1EED2Ev
lUk:_il2cpp_unity_liveness_calculation_from_statics
EBj:_Scheduler_get_Instance_m1989471839
BCg:_GraphicRaycaster_get_eventCamera_m4031517334
su:__ZN17AnimationCurveTplI11QuaternionfE8TransferI18StreamedBinaryReadILb1EEEEvRT_
$sh:_WebRequest_System_Runtime_Serialization_ISerializable_GetObjectData_m3377822910
Iub:__ZN8Renderer8TransferI17RemapPPtrTransferEEvRT_
Xag:_Collection_1_Contains_m1299140035_gshared
tqf:_ExecuteEvents_ExecuteHierarchy_TisIl2CppObject_m2541874163_gshared
Phf:_Array_InternalArray__ICollection_Add_TisUICharInfo_t3056636800_m968274080_gshared
hBk:_ObjectPool_1__ctor_m1532275833_gshared
I2k:__ZNK15dense_hashtableINSt3__24pairIK10KeyWrapperINS1_IP11Il2CppClassjEEES4_EES6_N6il2cpp8metadata14ArrayClassHashEN14dense_hash_mapIS6_S4_SB_NSA_17ArrayClassCompareENS0_9allocatorIS8_EEE9SelectKeyESD_SF_E13find_positionERS7_
NFk:__ZL24UnresolvedVirtualCall_71P12Il2CppObjectS0_S0_iS0_S0_S0_PK10MethodInfo
tai:__ZL64IntPtr_t_CustomAttributesCacheGenerator_IntPtr__ctor_m3803259710P21CustomAttributesCache
q3f:_List_1_GetIndex_m3262928832_gshared
fEd:__ZNK5physx2Sc9ClothCore16getCollisionDataEPNS_22PxClothCollisionSphereEPjPNS_21PxClothCollisionPlaneES4_PNS_24PxClothCollisionTriangleE
Wak:_SafeHandle_DangerousRelease_m2167699172
Z5a:__Z24LookRotationToQuaternionRK8Vector3fS1_P11Quaternionf
X5a:__ZN16ReflectionProbes9GetCameraEv
kId:__ZNK5physx2Sc18ParticleSystemCore20getMaxMotionDistanceEv
JMc:__ZN22ParticleSystemRenderer8TransferI14SafeBinaryReadEEvRT_
Uah:_ArgumentException__ctor_m2105824819
rOe:__ZN2UI6Canvas17SetSortingLayerIDEi
Avg:_BaseMeshEffect_get_graphic_m3358796463
q9k:__ZN6il2cpp2vm11MethodStack23CleanupForCurrentThreadEv
vrk:_Predicate_1_Invoke_m695569038_gshared
YTf:_Enumerator_VerifyState_m825848279_AdjustorThunk
Sjg:_ReadOnlyCollection_1_System_Collections_ICollection_CopyTo_m3161309318_gshared
z4e:_String_System_IConvertible_ToDateTime_m1423627978
jmc:__Z83Register_UnityEngine_Experimental_Director_Playable_INTERNAL_CALL_GetOutputInternalv
F6d:__ZN5physx10BPWorkTaskD0Ev
LMb:__ZN14SafeBinaryRead21TransferSTLStyleArrayI13dynamic_arrayI4AABBLj4EEEEvRT_17TransferMetaFlags
cna:__ZN18UnityPropertySheet8TransferI19StreamedBinaryWriteILb0EEEEvRT_
Ckh:_TlsServerCertificate_checkServerIdentity_m3836435780
izc:__ZN9JSONWrite21TransferSTLStyleArrayI31ArrayOfManagedObjectsTransfererEEvRT_17TransferMetaFlags
G7g:_PKCS12_Decrypt_m2353135969
zSj:_PersistentCallGroup_Initialize_m3908067069
rpe:__ZN4PPtrI14PhysicMaterialE8TransferI18StreamedBinaryReadILb1EEEEvRT_
AUh:_MonoEvent_ToString_m386956596
Pzi:__ZL70RuntimePlatform_t1869584967_CustomAttributesCacheGenerator_FlashPlayerP21CustomAttributesCache
Qsg:_PointerEventData_get_pointerPress_m880101744
IXd:__ZN5physx20NpRigidActorTemplateINS_13PxRigidStaticEE14resetFilteringERNS_3Scb11RigidObjectEPKPNS_7PxShapeEj
GZh:_Transform_1_BeginInvoke_m1786442111_gshared
CNg:_Int32_GetFormatException_m1729046182
z7f:_Collection_1_get_Count_m3834276648_gshared
P1k:__ZN15dense_hashtableINSt3__24pairIK10KeyWrapperIP11Il2CppClassES4_EES5_N6il2cpp8metadata16SZArrayClassHashEN14dense_hash_mapIS5_S4_SA_NS9_19SZArrayClassCompareENS0_9allocatorIS7_EEE9SelectKeyESC_SE_EC2ERKSH_j
peb:__ZN21UnityDefaultAllocatorI17LowLevelAllocatorE10DeallocateEPv
N2:__GLOBAL__sub_I_runtime_camera2_lump_cpp
Tt:__ZN15PackedIntVector8TransferI14SafeBinaryReadEEvRT_
WSh:_FieldInfo_get_IsLiteral_m267898096
fGa:__ZN17SharedTextureDataD0Ev
Zpd:__ZNK5physx19NpArticulationJoint20getTangentialDampingEv
Gnh:_SslStreamBase_EndNegotiateHandshake_m1732321201
SZh:_Transform_1_BeginInvoke_m1167293475_gshared
KN:__ZN13AudioListener8DoUpdateEv
$_c:__ZN5physx3Cct10Controller22setUpDirectionInternalERKNS_6PxVec3E
s9h:__ZL71SByte_t454417549_CustomAttributesCacheGenerator_SByte_Parse_m1620039654P21CustomAttributesCache
LEf:__Z13bankers_roundd
dxb:__ZN14SafeBinaryRead8TransferI5RectTIfEEEvRT_PKc17TransferMetaFlags
om:_emscripten_glGenFramebuffers
RBf:_Hashtable_CopyTo_m2778915805
kea:__ZN17BaseObjectManager16StaticInitializeEPv
mNh:_ConstructorBuilder_get_IsCompilerContext_m2796899803
xui:__ZL97Component_t3819376471_CustomAttributesCacheGenerator_Component_GetComponentsInChildren_m843288020P21CustomAttributesCache
Enj:__Z37RuntimeInvoker_UICharInfo_t3056636800PK10MethodInfoPvPS2_
Aff:_Array_IndexOf_TisUIVertex_t1204258818_m613887160_gshared
vyg:_FloatTween_GetDuration_m1757342579_AdjustorThunk
kFf:_DateTime_CoreParse_m2014268103
U0f:_List_1__ctor_m3698273726_gshared
Cmb:__ZN9Behaviour23VirtualRedirectTransferER17RemapPPtrTransfer
pyc:__Z18Transfer_BlittableI9JSONWriteLb0EyEvRK29SerializationCommandArgumentsR31RuntimeSerializationCommandInfo
xHj:_UInt64_Equals_m1243465002
Fqb:__ZN12CubemapArray23VirtualRedirectTransferER14SafeBinaryRead
TEd:__ZNK5physx2Sc9ClothCore23getNbCollisionTrianglesEv
KIh:_CryptographicException__ctor_m1012314467
bBd:__ZN5physx7NpShape16setFlagsInternalENS_7PxFlagsINS_11PxShapeFlag4EnumEhEE
Ldi:__ZL54Collection_1_t686054069_CustomAttributesCacheGeneratorP21CustomAttributesCache
emg:_ReadOnlyCollection_1_System_Collections_IList_Add_m616574295_gshared
DNg:_Int32_ProcessTrailingWhitespace_m2812079777
Xsa:__ZN18ProceduralMaterial9ReloadAllEbb
Dmc:__Z43RectTransform_CUSTOM_INTERNAL_set_sizeDeltaP12Il2CppObjectRK13Vector2fIcall
g7c:__ZN5physx2Gu30distanceSegmentTriangleSquaredERKNS_6shdfnd3aos5Vec3VES5_S5_S5_S5_RS3_S6_
Psh:_WebProxy__ctor_m3679722173
C$j:_InternalEnumerator_1_Dispose_m2743309309_AdjustorThunk
Yia:__ZN24GenerateTypeTreeTransfer18BeginArrayTransferEPKcS1_Ri17TransferMetaFlags
Jia:__ZN15TextureSettings8TransferI18StreamedBinaryReadILb1EEEEvRT_
$Ea:__Z16DecompressCrunchPKhRjR13TextureFormatiiii18MemLabelIdentifier
_xl:__ZNSt3__29money_getIcNS_19istreambuf_iteratorIcNS_11char_traitsIcEEEEED2Ev
E5f:_List_1__ctor_m2082969060_gshared
Lm:___syscall51
Pm:___syscall54
s8k:__ZNSt3__26__treeINS_12__value_typeIP24Il2CppReflectionAssemblyPvEENS_19__map_value_compareIS3_S5_NS_4lessIS3_EELb1EEENS_9allocatorIS5_EEE12__find_equalIS3_EERPNS_16__tree_node_baseIS4_EESH_RKT_
TYi:__Z107RuntimeInvoker_Boolean_t3825574718_SByte_t454417549_Il2CppObject_Int32_t2071877448_ExceptionU26_t1467204777PK10MethodInfoPvPS2_
IRc:__ZN12b2MouseJointD0Ev
_2a:__Z29RenderForwardObjectsIntoDepthRK17RenderLoopContextP13RenderTextureP13dynamic_arrayI16RenderObjectDataLj4EE12ObjectHandleI17RenderSurface_TagP17RenderSurfaceBaseESC_iib
vF:__ZNK8Animator20IsAnyRendererVisibleEv
iVk:__ZN15dense_hashtableINSt3__24pairIK10KeyWrapperINS1_IPK14Il2CppAssemblyP11Il2CppClassEEEjEES9_17ReflectionMapHashIS8_EN14dense_hash_mapIS9_jSD_19ReflectionMapEqualsIS8_ENS0_9allocatorISB_EEE9SelectKeyESG_SI_ED2Ev
WHe:_cff_builder_add_point1
C8k:__ZN6il2cpp2vm5Image21GetCachedResourceDataEPK11Il2CppImageRKNSt3__212basic_stringIcNS5_11char_traitsIcEENS5_9allocatorIcEEEE
uDg:_HorizontalOrVerticalLayoutGroup_set_childControlWidth_m4209477792
Chf:_Array_InternalArray__ICollection_Add_TisUInt32_t2149682021_m2629016323_gshared
iKb:__Z18Transfer_BlittableI14SafeBinaryReadLb0E10ColorRGBAfEvRK29SerializationCommandArgumentsR31RuntimeSerializationCommandInfo
vwl:__ZNKSt3__28time_getIwNS_19istreambuf_iteratorIwNS_11char_traitsIwEEEEE13do_date_orderEv
Rbi:__ZL65Il2CppArray_CustomAttributesCacheGenerator_Array_Sort_m3002148658P21CustomAttributesCache
fOc:__ZN21InheritVelocityModuleD2Ev
Ca:invoke_iiiiiiiiii
PT:__ZNK7Texture10GetVRUsageEv
qsa:__ZN18LoadSceneOperation19IntegrateTimeSlicedEi
PBj:_Scheduler_SchedulerThread_m2209572785
F0g:_SortKeyBuffer_GetResultAndReset_m2516956577
H3d:__ZN5physx36solveContactPreBlock_WriteBackStaticEPKNS_23PxcSolverConstraintDescEjRNS_16PxcSolverContextEPNS_25PxcThresholdStreamElementEjPi
IIl:_glBlendFuncSeparate__wrapper
iBk:_ObjectPool_1_get_countAll_m4217365918_gshared
F9:__ZN16ScriptingManager24NotifyScriptCacheReleaseEi
Usi:__ZL85UriParser_t1012511323_CustomAttributesCacheGenerator_UriParser_OnRegister_m4010407891P21CustomAttributesCache
Afi:__ZL63UnmanagedMemoryStream_t822875729_CustomAttributesCacheGeneratorP21CustomAttributesCache
Ngc:__Z47Register_UnityEngine_Coroutine_ReleaseCoroutinev
Fmd:__ZN10ScSceneFnsIN5physx3Scb11RigidStaticEE6insertERNS0_2Sc5SceneERS2_
yO:__ZN15AudioReverbZone13SetFMODValuesEv
lCc:__ZNK17SizeBySpeedModule12UpdateSingleERK22ParticleSystemParticlebR8Vector3f
Y5:__ZL19StaticDestroyShaderPv
Be:_glRenderbufferStorageMultisample
nBh:_SoapTypeAttribute_get_XmlTypeName_m2546866572
Rhg:_ReadOnlyCollection_1_System_Collections_IList_get_IsFixedSize_m158012227_gshared
fpk:_X509Chain__ctor_m1113875360
AKb:__Z35Transfer_Blittable_SingleValueFieldI14SafeBinaryReadfEvRT_R17GeneralMonoObjectRK23StaticTransferFieldInfo
_kh:_TlsServerHello_processProtocol_m1241336522
z7c:__ZN5physx2Gu20sweepCCTBoxTrianglesEjPKNS_10PxTriangleEbRKNS_13PxBoxGeometryERKNS_11PxTransformERKNS_6PxVec3EfRSA_SD_RfRjPKjfNS_7PxFlagsINS_9PxHitFlag4EnumEtEE
$tb:__ZThn28_N8Renderer21RendererBecameVisibleEv
Y0c:__ZN5physx2Gu15OBBTriangleTestC2ERKNS0_3BoxE
Xdk:_ContextAttribute_IsContextOK_m3281216012
XUg:_PathTooLongException__ctor_m3212099251
ZOl:_pthread_cond_broadcast__wrapper
lwa:__ZN17PersistentManager38InstanceIDToSerializedObjectIdentifierEiR26SerializedObjectIdentifier
fyl:__ZNSt3__211__money_getIcE13__gather_infoEbRKNS_6localeERNS_10money_base7patternERcS8_RNS_12basic_stringIcNS_11char_traitsIcEENS_9allocatorIcEEEESF_SF_SF_Ri
a4j:_InternalEnumerator_1_MoveNext_m3299881374_AdjustorThunk
G2c:__ZN5physx2Gu21computeMTD_SphereMeshERNS_6PxVec3ERfRKNS0_6SphereERKNS_22PxTriangleMeshGeometryERKNS_11PxTransformE
aw:__ZN17PackedFloatVector8TransferI18StreamedBinaryReadILb0EEEEvRT_
ovi:__ZL88Screen_t786852042_CustomAttributesCacheGenerator_Screen_t786852042____width_PropertyInfoP21CustomAttributesCache
frb:__ZN7Cubemap23VirtualRedirectTransferER17RemapPPtrTransfer
$2g:_BigInteger_op_GreaterThanOrEqual_m1998498565
qoe:__ZN5physx12SubSortQuick5sort4EPjjRNS_6shdfnd5ArrayINS_11RTreeNodeNQENS2_19ReflectionAllocatorIS4_EEEERjRNS_10PxBounds3VEj
bUa:_longest_match_fast
CCc:__Z22PerformPlaneCollisionsRK13dynamic_arrayI20BatchedRaycastResultLj4EERK27ParticleSystemReadOnlyStateR19ParticleSystemStateR23ParticleSystemParticlesRK33ParticleSystemCollisionParametersR5RandNRKf
gAg:_DropdownItem_get_image_m2752143412
CFk:__ZL24UnresolvedVirtualCall_60P12Il2CppObjectaPK10MethodInfo
V9b:__ZN22BlockMemoryCacheWriter11GetPathNameEv
JBg:_Graphic_Rebuild_m2617722358
a5d:__ZN5physx16PxsBroadPhaseMBPC2ERNS_19PxcScratchAllocatorERNS_2Cm13EventProfilerERKNS_11PxSceneDescEPNS_14PxsAABBManagerE
iid:__ZThn24_N5physx2Sc21ConstraintInteractionD1Ev
hii:__ZL86SafeHandle_t2733794115_CustomAttributesCacheGenerator_SafeHandle_SetHandle_m1980208835P21CustomAttributesCache
Gpe:__ZN14PhysicsManager23VirtualRedirectTransferER14SafeBinaryRead
TKf:_DateTime_ToString_m3108726445_AdjustorThunk
JW:__ZN19CloudServiceHandlerD2Ev
o8a:__ZN13dynamic_arrayIN23ReflectionProbesContext23ReflectionProbeCubeInfoELj4EE18resize_initializedEjRKS1_12ResizePolicy
sCl:__ZNSt3__212system_errorC2ENS_10error_codeEPKc
Bof:_Array_InternalArray__get_Item_TisTableRange_t2011406615_m602485977_gshared
UGg:_InputField_Append_m2623574152
cud:__ZN5physx7NpActor14onActorReleaseEPNS_7PxActorE
Nah:_ApplicationException__ctor_m1120437222
eVh:_MonoMethod__ctor_m4091684020
Bad:__ZN5physx3Cct26CharacterControllerManager19computeInteractionsEfPNS_26PxControllerFilterCallbackE
aq:stackAlloc
njd:__ZN5physx6shdfnd8PoolBaseINS_2Cm5BlockIhLj256EEENS0_19ReflectionAllocatorIS4_EEE12allocateSlabEv
fhc:__Z44Camera_CUSTOM_INTERNAL_CALL_ScreenPointToRayP12Il2CppObjectRK8Vector3fR3Ray
UPa:__ZN25SingleBlockMemoryFileData4LockEPPv
jOa:__ZN12HandlerChain5TouchER13FileEntryData
qRh:_MethodBuilder_GetHashCode_m1713271764
BOi:_Input_GetKeyDown_m1771960377
Gak:_Marshal__cctor_m802981325
Haf:_Array_get_swapper_TisUIVertex_t1204258818_m1078858558_gshared
P$g:_MSCompatUnicodeTable_GetResource_m3816716847
qic:__Z32RectOffset_Get_Custom_PropBottomP12Il2CppObject
Q6i:__Z49RuntimeInvoker_UInt16_t986882611_Int64_t909078037PK10MethodInfoPvPS2_
vrf:_Array_CreateInstance_m15016505
gwg:_CanvasScaler_get_matchWidthOrHeight_m1190816603
Yql:_stat
DXe:_RijndaelTransform_Decrypt128_m1282993908
P2k:__ZN24dense_hashtable_iteratorINSt3__24pairIK10KeyWrapperINS1_IP11Il2CppClassjEEES4_EES6_N6il2cpp8metadata14ArrayClassHashEN14dense_hash_mapIS6_S4_SB_NSA_17ArrayClassCompareENS0_9allocatorIS8_EEE9SelectKeyESD_SF_E30advance_past_empty_and_deletedEv
Dif:_Array_InternalArray__ICollection_CopyTo_TisUInt16_t986882611_m3228377237_gshared
CXf:_List_1_Add_m4157722533_gshared
ZFi:__ZL68Navigation_t1571958496_CustomAttributesCacheGenerator_m_SelectOnDownP21CustomAttributesCache
oMj:_Bounds_op_Inequality_m2315096783
ZQc:__ZN15b2DistanceJoint23InitVelocityConstraintsERK12b2SolverData
D3j:_InternalEnumerator_1_System_Collections_IEnumerator_get_Current_m3065287496_gshared
rxa:__ZNSt3__218__insertion_sort_3IRNS_4lessIN22BuiltinResourceManager8ResourceEEEPS3_EEvT0_S7_T_
i8d:__ZN5physx2Gu21findUniqueConvexEdgesEjPNS0_10ConvexEdgeEjPKNS0_15HullPolygonDataEPKh
TSi:_Physics_RaycastAll_m3256436970
iXf:_List_1_get_Item_m4100789973_gshared
FH:__ZN18StreamedBinaryReadILb1EE21TransferSTLStyleArrayI22OffsetPtrArrayTransferI9OffsetPtrIN7mecanim12statemachine20StateMachineConstantEEEEEvRT_17TransferMetaFlags
UWe:_RC2_set_KeySize_m2015782960
na:invoke_iiiiiiiiiiii
V2d:__ZN5physx43solveContactCoulombPreBlock_WriteBackStaticEPKNS_23PxcSolverConstraintDescEjRNS_16PxcSolverContextEPNS_25PxcThresholdStreamElementEjPi
tdg:_Collection_1_SetItem_m3715941382_gshared
EMa:__ZN9GfxDevice20GetComputeBufferDataE15ComputeBufferIDPvj
qLg:_NumberFormatInfo_get_CurrencyGroupSeparator_m2480433019
Aqe:__ZN10CastFilterD0Ev
u7g:_StrongName_get_PublicKey_m3777577320
V9j:_RuntimeCompatibilityAttribute__ctor_m1331212510
ljd:__ZN5physx2Sc5Scene23allocateConstraintBlockEj
ljc:__Z43Register_UnityEngine_GameObject_SendMessagev
nnk:_X509CertificateCollection__ctor_m858704242
Oyl:__ZNKSt3__27codecvtIDic11__mbstate_tE6do_outERS1_PKDiS5_RS5_PcS7_RS7_
UJk:__ZN6il2cpp2vm17SetupFieldsLockedEP11Il2CppClassRKNS_2os12FastAutoLockE
EUg:_MonoIOStat_t1621921065_marshal_pinvoke
VR:__ZN11AudioSourceD0Ev
LNj:_CanvasRenderer_set_hasPopInstruction_m1388844875
Bkd:__ZN5physx2Sc5Actor15onElementDetachERNS0_7ElementE
hZf:_List_1_System_Collections_ICollection_CopyTo_m1530390632_gshared
Zeg:_Collection_1_System_Collections_IEnumerable_GetEnumerator_m1452790461_gshared
o$j:_InternalEnumerator_1_System_Collections_IEnumerator_Reset_m3194282029_AdjustorThunk
vFc:__ZN27TrailModulePropertyBindings13SetFloatValueER14ParticleSystemif
Vcb:__ZN16MemoryFileSystem4NameEv
hqg:_BaseRaycaster_OnEnable_m3641767070
x5f:_List_1_ToArray_m2810936944_gshared
XS:__ZN11AudioSource16UpdateParametersE12SoundChannel
Ipe:__ZN14PhysicsManager9onContactERKN5physx19PxContactPairHeaderEPKNS0_13PxContactPairEj
xch:_PrimeGeneratorBase_get_PrimalityTest_m308005118
cbi:__ZL71Enum_t2459695545_CustomAttributesCacheGenerator_Enum_Format_m2294492821P21CustomAttributesCache
qrc:__ZNK8GUIStyle8CalcSizeER10GUIContent
PYf:_List_1_CheckIndex_m2328469916_gshared
F_c:__ZN5physx3Cct13BoxController13setHalfHeightEf
GKc:__ZN11NoiseModule13AwakeFromLoadEv
oWd:__ZN5physx3Scb13ObjectTracker5clearEv
a6f:_List_1_AddRange_m3345533268_gshared
Wye:_UNITY_FT_New_Size
Aec:__Z42ScriptingGetComponentsOfTypeFromGameObjectRK26ScriptingGetComponentsArgs
JZ:__ZN19CloudServiceHandler11FlushEventsEv
eul:__ZNKSt3__26locale9use_facetERNS0_2idE
W$c:__ZL23GeomMTDCallback_BoxMeshRN5physx6PxVec3ERfRKNS_10PxGeometryERKNS_11PxTransformES5_S8_
z6f:_List_1_get_Item_m3157283227_gshared
xtk:_InvokableCall_4_Invoke_m1555001411_gshared
oIf:_Convert_ToString_m2915777777
wBc:__ZN35ClampVelocityModulePropertyBindings13SetFloatValueER14ParticleSystemif
_Cd:__ZNK5physx7NpCloth22getNbCollisionCapsulesEv
Fna:__ZNSt3__27__sort4IRPFbRKNS_4pairIN9ShaderLab16FastPropertyNameEN18UnityPropertySheet11UnityTexEnvEEES8_EPS6_EEjT0_SD_SD_SD_T_
xu:__Z21TransferBlobSerializeIN7mecanim9animation18ClipMuscleConstantE18StreamedBinaryReadILb1EEEvRPT_PKcRjS9_RT0_
r3k:__ZN6il2cpp6icalls8mscorlib6System10Reflection8Assembly18GetModulesInternalEP24Il2CppReflectionAssembly
ZEe:_Line_Up
d_g:_MonoType_GetGenericTypeDefinition_m2363776160
E$c:__ZL28GeomMTDCallback_SphereSphereRN5physx6PxVec3ERfRKNS_10PxGeometryERKNS_11PxTransformES5_S8_
ghi:__ZL62ParameterAttributes_t1266705348_CustomAttributesCacheGeneratorP21CustomAttributesCache
_ih:_Context_set_SentConnectionEnd_m2641458842
Ie:_emscripten_glBufferSubData
Huf:_Buffer_BlockCopyInternal_m2627156229
HOb:__Z18Transfer_BlittableI17RemapPPtrTransferLb1EyEvRK29SerializationCommandArgumentsR31RuntimeSerializationCommandInfo
EDg:_Image_set_overrideSprite_m3362535904
Rpg:_ExecuteEvents_get_pointerExitHandler_m3250605428
Snd:__ZN5physx6shdfnd5ArrayIPvNS0_15InlineAllocatorILj256ENS0_19ReflectionAllocatorINS_7NpShapeEEEEEE15growAndPushBackERKS2_
Joa:__ZN6prcoreL12RemapGenericI15TexFormatRGB88817TexFormatARGB8888EEvPKNS_9InnerInfoE
B5a:__Z17CalculateGlobalRS23TransformAccessReadOnly
jGd:__ZN5physx22NpParticleBaseTemplateINS_15PxParticleFluidENS_15NpParticleFluidEE7releaseEv
Fkl:__ZNSt3__210__list_impIPN6il2cpp5utils10MemoryPool6RegionENS_9allocatorIS5_EEE5clearEv
IMj:_Camera_ScreenPointToRay_m614889538
o2g:_Kernel_multiByteDivide_m735279869
Z4c:__ZNK5physx2Gu29EPASupportMapPairRelativeImplINS0_11ConvexHullVES2_E6getDirEv
G2h:_Dictionary_2_ToTValue_m542772656_gshared
GUe:__ZN23UnityPurchasingSettings10InitializeER6Object
nBj:_Thread_GetNewManagedId_internal_m3211695465
kUa:_unity_z_deflateReset
Tfd:__ZN5physx2Sc19ContactReportBuffer23reallocateNotThreadSafeEjRjjj
BLi:_SkinChangedDelegate_Invoke_m2801964040
xid:__ZN5physx2Sc5Actor19registerInteractionEPNS0_11InteractionE
XZb:__ZN9ShaderLab16SerializedShader8TransferI18StreamedBinaryReadILb1EEEEvRT_
fXb:__ZN22MemoryCacherReadBlocks14LockCacheBlockEjPPhS1_
Itf:_Boolean_System_IConvertible_ToChar_m2637404801_AdjustorThunk
k2e:_SecurityContext_Capture_m2535194991
vFj:_UInt16_System_IConvertible_ToSByte_m3044765342_AdjustorThunk
cOh:_DerivedType_IsArrayImpl_m684825803
q9h:__ZL47Byte_t3683104436_CustomAttributesCacheGeneratorP21CustomAttributesCache
cgf:_Array_InternalArray__IndexOf_TisLabelFixup_t4090909514_m2939738943_gshared
Xal:__ZN4utf88internal15increase_safelyIPKcEENS0_9utf_errorERT_S5_
Uxe:__ZN20TextRenderingPrivate8FontImpl16CacheFontForTextEPtiifjPK13dynamic_arrayINS_16TextFormatChangeELj4EE
Ive:__ZN13PhysicsModule19CreateNxHeightFieldEPv
slf:_Array_qsort_TisUIVertex_t1204258818_TisUIVertex_t1204258818_m512606409_gshared
OWe:__Z21ArrayElementTypeCheckP11Il2CppArrayPv
ZLl:_emscripten_glTexSubImage2D__wrapper
rqh:_NameValueCollection_AsSingleString_m10599052
NBl:__ZNSt3__212basic_stringIcNS_11char_traitsIcEENS_9allocatorIcEEE6appendEjc
e$g:_Object_InternalGetHashCode_m1371384246
Zqj:_Navigation_get_defaultNavigation_m2185194207
iIi:__ZL73LayoutElement_t2808691390_CustomAttributesCacheGenerator_m_FlexibleHeightP21CustomAttributesCache
QRj:_ArgumentCache_get_stringArgument_m3051619173
qOg:_Int32_System_IConvertible_ToSByte_m1449623243_AdjustorThunk
eah:_AccessViolationException__ctor_m1270251537
zHd:__ZN5physx15NpParticleFluid2isENS_11PxActorType4EnumE
DKd:__ZN5physx22NpParticleBaseTemplateINS_16PxParticleSystemENS_16NpParticleSystemEE11setGridSizeEf
ypk:_X509ExtensionCollection_IndexOf_m3972100651
_Mb:__Z14resize_trimmedINSt3__26vectorI8MonoPPtr13stl_allocatorIS2_L18MemLabelIdentifier1ELi16EEEEEvRT_j
jib:__ZN39AssetBundleLoadFromStreamAsyncOperation11GetProgressEv
qf:_TTF_RenderText_Solid
pGj:_UInt32_System_IConvertible_ToInt64_m3091851828
dYg:_MissingMethodException__ctor_m3898429715
x6b:__ZN4Mesh7PRODUCEE18MemLabelIdentifier18ObjectCreationMode
hYh:_Enumerator_System_Collections_IEnumerator_Reset_m3085583937_gshared
kVf:_Enumerator_MoveNext_m848781978_gshared
xkk:__ZN23InterfaceActionInvoker5IDsDsbbbE6InvokeEjP11Il2CppClassPvDsDsbbb
zmj:__Z66RuntimeInvoker_ClientCertificateType_t4001384466_Int32_t2071877448PK10MethodInfoPvPS2_
E6g:_RSAManaged_ExportParameters_m2873993187
kEf:_Convert__cctor_m926133987
kjb:__ZN7Hash1288TransferI18StreamedBinaryReadILb1EEEEvRT_
B6f:_Enumerator__ctor_m2816143215_AdjustorThunk
SUe:__ZN11UnityEngine7Connect16PersistentValuesC2Ev
Ivh:_X509Chain_FindParent_m404663796
bYg:_MissingMemberException__ctor_m2164043278
qDk:__ZL7log2_32j
mag:_Collection_1_CopyTo_m2282972507_gshared
iHb:__ZN13EmscriptenWWW10OnProgressEPvjj
Gvg:_BaseVertexEffect__ctor_m358261091
nyh:_Interpreter_GetGroupInfo_m312421921
OOb:__Z19TransferField_ArrayI17RemapPPtrTransfer27Converter_UnityEngineObjectEvRK23StaticTransferFieldInfoR31RuntimeSerializationCommandInfoRT0_
cRd:__ZNK5physx2Sc7BodySim13isConnectedToERKNS0_8RigidSimERb
oli:__ZL53HMACSHA384_t3026079344_CustomAttributesCacheGeneratorP21CustomAttributesCache
rej:__Z120RuntimeInvoker_Void_t1841601450_Single_t2076509932_Single_t2076509932_Single_t2076509932_Single_t2076509932_Il2CppObjectPK10MethodInfoPvPS2_
TPg:_NumberFormatter_InitDecHexDigits_m1612588520
Dpe:__ZN14PhysicsManager23VirtualRedirectTransferER17RemapPPtrTransfer
iQg:_IntPtr_System_Runtime_Serialization_ISerializable_GetObjectData_m21554269_AdjustorThunk
h4e:_Single_GetHashCode_m3102305584_AdjustorThunk
qnf:_Array_swap_TisVector3_t2243707580_m3036634038_gshared
pQ:__ZN4FMOD6System9createDSPEP20FMOD_DSP_DESCRIPTIONPPNS_3DSPE
NPi:_Material_HasProperty_m3175512802
wA:__ZN7mecanim9animation26DestroyControllerWorkspaceEPNS0_19ControllerWorkspaceERNS_6memory9AllocatorE
Lmk:_UriParser_set_SchemeName_m3624672465
xM:__ZN4FMOD8ChannelI11EndCallbackEv
d$e:_ToBase64Transform_TransformBlock_m2201454137
erc:__ZN8GUIStyle14SetDefaultFontEPN13TextRendering4FontE
bIc:__ZN11ForceModule8TransferI24GenerateTypeTreeTransferEEvRT_
jhk:_PatternCompiler_EmitCount_m3609178511
kvb:__ZN15QualitySettings23VirtualRedirectTransferER24GenerateTypeTreeTransfer
kLj:_AttributeHelperEngine__cctor_m1775592582
$Mi:_GUIStyle_Internal_GetCursorStringIndex_m1491806746
cCi:__ZL89PointerEventData_t1599784723_CustomAttributesCacheGenerator_U3CpositionU3Ek__BackingFieldP21CustomAttributesCache
W8d:__ZN5physx2Gu32PCMConvexVsMeshContactGeneration35generateTriangleFullContactManifoldERNS0_9TriangleVEjPKjhRKNS0_13PolygonalDataEPNS0_16SupportLocalImplIS2_EEPNS0_12SupportLocalEPNS0_21MeshPersistentContactERjRKNS_6shdfnd3aos6FloatVERNSI_5Vec3VE
U_k:__ZN6il2cpp2os10FileHandleC2Ev
tlc:__Z59Register_UnityEngine_MonoBehaviour_Internal_CancelInvokeAllv
Rmi:__ZL84Encoding_t663144255_CustomAttributesCacheGenerator_Encoding_GetByteCount_m4104502544P21CustomAttributesCache
YG:__ZN14SafeBinaryRead21TransferSTLStyleArrayI22OffsetPtrArrayTransferI9OffsetPtrIN7mecanim12statemachine17ConditionConstantEEEEEvRT_17TransferMetaFlags
HBh:_ObjRef_set_TypeInfo_m1661789743
HKi:_GUISkin_get_box_m533626169
M_d:__ZNK16OBBAABBTest_SIMDclERKN5physx2Sq9BucketBoxE
RPi:_Mathf_Cos_m238853451
iZc:__ZZN10Collider2D15InitializeClassEvEN33FunctorImpl_82kDidRemoveComponent4CallEPviR11MessageData
yye:_UNITY_FT_Request_Metrics
gja:__ZN7Texture8TransferI18StreamedBinaryReadILb0EEEEvRT_
d5k:__ZN6il2cpp6icalls8mscorlib6System10Reflection10MonoMethod29get_IsGenericMethodDefinitionEP22Il2CppReflectionMethod
J$k:__ZN6il2cpp2vm6Thread21AllocThreadStaticDataEi
mFf:_DateTime_YearMonthDayFormats_m4204607055
gxg:_ColorBlock_set_disabledColor_m3502887543_AdjustorThunk
B7k:__ZNK15dense_hashtableINSt3__24pairIK10KeyWrapperINS1_IPKcS4_EEEiEES6_24NamespaceAndNamePairHashN14dense_hash_mapIS6_iS9_26NamespaceAndNamePairEqualsNS0_9allocatorIS8_EEE9SelectKeyESB_SD_E12test_deletedERK24dense_hashtable_iteratorIS8_S6_S9_SF_SB_SD_E
rU:__Z13RegisterClassI13AudioListenerEvv
Nsk:_InvokableCall_1_Find_m951110817_gshared
Fqk:_Aes__ctor_m4020215067
zz:__ZN22AnimationMixerPlayable11DerivesFromEP11Il2CppClass
Wxc:__Z18Transfer_BlittableI9JSONWriteLb0E8Vector3fEvRK29SerializationCommandArgumentsR31RuntimeSerializationCommandInfo
lyh:_Interpreter_Eval_m1448443064
pg:_emscripten_glUniform4i
KOc:__ZNSt3__227__insertion_sort_incompleteIRN10vector_mapIi22ParticleModulePropertyNS_4lessIiEENS_9allocatorINS_4pairIiS2_EEEEE13value_compareEPS7_EEbT0_SD_T_
vli:__ZL46MD5_t1507972490_CustomAttributesCacheGeneratorP21CustomAttributesCache
gMc:__ZN22ParticleSystemRenderer5ResetEv
HBg:_Graphic_OnDisable_m2360886868
_8c:__ZN16RayRTreeCallbackILi0ELb1EED2Ev
Bf:_emscripten_glUniform4f
Qva:__ZN6Object22CheckInstanceIDsLoadedEPii
Vj:___unlock
Lgl:_GC_default_oom_fn
rcj:__Z74RuntimeInvoker_Void_t1841601450_PlayableU26_t3233213460_Double_t4078015681PK10MethodInfoPvPS2_
U1j:_InternalEnumerator_1_System_Collections_IEnumerator_Reset_m1561424184_AdjustorThunk
btl:__ZTv0_n12_NSt3__213basic_istreamIcNS_11char_traitsIcEEED1Ev
jAf:_Comparer_Compare_m4132969818
bEh:_FormatterConverter__ctor_m3958982477
fT:__ZN20SoundChannelInstance19setReverbPropertiesEP29FMOD_REVERB_CHANNELPROPERTIES
f6j:_InternalEnumerator_1__ctor_m2808001655_AdjustorThunk
_2j:_InternalEnumerator_1_System_Collections_IEnumerator_Reset_m2571770313_AdjustorThunk
cTh:_FieldInfo_get_UMarshal_m1934544188
J3i:__Z68RuntimeInvoker_Void_t1841601450_IntPtr_t_MonoMethodInfoU26_t16045984PK10MethodInfoPvPS2_
a6j:_InternalEnumerator_1_Dispose_m4229866913_AdjustorThunk
v4h:_DefaultComparer_Equals_m2171836276_gshared
f6k:__ZN6il2cpp2vm9Exception18GetFormatExceptionEPKc
hlj:__Z56RuntimeInvoker_Void_t1841601450_ResourceInfo_t3933049236PK10MethodInfoPvPS2_
rji:__ZL55IMessageSink_t2189618969_CustomAttributesCacheGeneratorP21CustomAttributesCache
Uoc:__Z40Register_UnityEngine_Transform_IsChildOfv
cad:__ZN5physx3Cct17CapsuleController15setClimbingModeENS_21PxCapsuleClimbingMode4EnumE
N0d:__ZN5physx6shdfnd9atomicAddEPVii
$xf:_ArrayList_Sort_m923359189
Uxj:_Text_CalculateLayoutInputVertical_m1732119136
L5b:__ZN16ReflectionProbes15InitializeClassEv
kCb:__ZNSt3__212basic_stringIcNS_11char_traitsIcEE13stl_allocatorIcL18MemLabelIdentifier66ELi16EEE7reserveEj
xXd:__ZN5physx6shdfnd5ArrayINS_3Scb13MaterialEventENS0_19ReflectionAllocatorIS3_EEE6resizeEjRKS3_
_Ma:__ZN9GfxDevice31DrawIndexedNullGeometryIndirectE16GfxPrimitiveTypeP9GfxBuffer15ComputeBufferIDj
t_j:_InternalEnumerator_1_System_Collections_IEnumerator_get_Current_m3088751576_gshared
J6d:__ZNK5physx14SingleAABBTask25updateNumFastMovingShapesEv
L4i:__Z78RuntimeInvoker_Void_t1841601450_Int64_t909078037_Il2CppObject_Int64_t909078037PK10MethodInfoPvPS2_
cMj:_Bounds_set_center_m2069004927_AdjustorThunk
P8g:_X509Certificate_GetSubjectName_m2120755276
ktc:__Z46GUIStyle_CUSTOM_Internal_DrawWithTextSelectionP12Il2CppObjectR43MonoInternal_DrawWithTextSelectionArguments
HOd:__ZNK5physx2Cm12DelegateTaskINS_7NpSceneEXadL_ZNS2_12executeSolveEPNS_10PxBaseTaskEEEE7getNameEv
_vi:__ZL58ResourceRequest_t2560315377_CustomAttributesCacheGeneratorP21CustomAttributesCache
bNe:__ZNSt3__218__insertion_sort_3IRNS_6__lessIN2UI14DepthSortEntryES3_EEPS3_EEvT0_S7_T_
YUh:_MonoField_CheckGeneric_m1527550038
Kne:__ZN5physx17ConvexMeshBuilder16computeGaussMapsEv
Qvl:__ZNKSt3__28time_getIcNS_19istreambuf_iteratorIcNS_11char_traitsIcEEEEE13do_date_orderEv
D5g:_AttrListImpl_Add_m130708252
Vch:_ASN1_get_Value_m2229768312
Apg:_BaseInput_get_touchCount_m998724785
qDb:__ZN11TimeManager6UpdateEv
Wwa:__ZN6Shader18LoadDefaultShadersEv
gpk:_X509Chain_get_Status_m2726750609
God:__ZNK5physx2Sc16ArticulationCore22computeImpulseResponseERNS0_8BodyCoreERNS_6PxVec3ES5_RKNS_9PxcFsDataERKS4_SA_
nHg:_InputField_get_preferredWidth_m3185355225
kae:__ZN5physx21PxsBodyTransformVaultC2Ev
vJi:_GUIUtility_get_pixelsPerPoint_m2667928361
_dg:_Collection_1_RemoveItem_m1406181352_gshared
fBj:_Thread_SetState_m3198426726
uyf:_ArrayListWrapper_Contains_m1158465965
ULa:__ZN9GfxDevice12UpdateBufferEP9GfxBuffer13GfxBufferMode14GfxBufferLabeljPKvj
bnf:_Array_swap_TisColor32_t874517518_m2203309732_gshared
f8d:__ZL6IsInYZffPPK10VertexInfo
rch:_BigInteger_op_LessThan_m3825358479
Eoe:__ZN5physx19TriangleMeshBuilderD0Ev
drl:_fflush
uta:__ZN17LightProbeContext4InitERK16LightmapSettingsRK14RenderSettings
Wtf:_Convert_ToInt32_m55151042
xCg:_GraphicRaycaster_Raycast_m1206612976
Uol:__GLOBAL__sub_I_Error_cpp
cXk:__ZN15dense_hashtableINSt3__24pairIK10KeyWrapperINS1_IPK10MethodInfoP11Il2CppClassEEEjEES9_17ReflectionMapHashIS8_EN14dense_hash_mapIS9_jSD_19ReflectionMapEqualsIS8_ENS0_9allocatorISB_EEE9SelectKeyESG_SI_E16reset_thresholdsEv
ZLc:__ZNK29ParticleSystemPropertyBinding12GetPPtrValueERKN11UnityEngine9Animation10BoundCurveE
xjk:_Alternation_GetWidth_m4218808325
Ubg:_Collection_1_set_Item_m2523116197_gshared
Xmj:__Z59RuntimeInvoker_ContactPoint2D_t3659330976_Int32_t2071877448PK10MethodInfoPvPS2_
Mta:__ZN9Texture3DD2Ev
ybi:__ZL80Il2CppArray_CustomAttributesCacheGenerator_Array_SetValue_m169741241____indices1P21CustomAttributesCache
ina:__ZN10ColorRGBAf8TransferI19StreamedBinaryWriteILb0EEEEvRT_
wHg:_U3CCaretBlinkU3Ec__Iterator0_System_Collections_Generic_IEnumeratorU3CobjectU3E_get_Current_m3541562536
yqh:_TypeConverterAttribute__ctor_m4061167050
YAd:__ZN5physx2CmlsERNS0_12RenderOutputERKNS0_10DebugArrowE
BVj:_Font_add_textureRebuilt_m1282639736
gHc:__ZN15SerializeTraitsIN9SubModule14SubEmitterDataEE8TransferI14SafeBinaryReadEEvRS1_RT_
UG:__ZN14SafeBinaryRead21TransferSTLStyleArrayI22OffsetPtrArrayTransferI9OffsetPtrIN7mecanim12statemachine21SelectorStateConstantEEEEEvRT_17TransferMetaFlags
z2h:_Dictionary_2_ContainsValue_m2760581195_gshared
gDc:__Z18MagnitudeUpdateTplIL27ParticleSystemCurveEvalMode2EEvRK11MinMaxCurveR23ParticleSystemParticlesjjRKN4math7_float4E
Glh:_RecordProtocol_ProcessChangeCipherSpec_m3233959862
LWa:__Z34ProcessIndexListIsNodeVisibleStep2RK22SceneCullingParametersPK9SceneNodePK4AABBR9IndexList
cIb:__ZN10MonoScriptD2Ev
S1:__ZL18AppendPathNameImplRKNSt3__212basic_stringIcNS_11char_traitsIcEENS_9allocatorIcEEEES7_cRS5_
Gwj:_Slider_OnRectTransformDimensionsChange_m4109401172
LIj:_Version_CheckedSet_m76493673
Lsh:_WebHeaderCollection_Get_m3391944907
n3:__GLOBAL__sub_I_half_cpp
Ljc:__Z39Input_CUSTOM_INTERNAL_get_mousePositionP8Vector3f
_De:_tt_cmap13_char_next
nDh:_ServerIdentity__ctor_m1576469955
OSa:__ZN9ShaderLab4Pass16SetupPassOptionsEv
VBj:_TimerCallback_BeginInvoke_m2938818726
Lyf:__ZN16VirtFuncInvoker0IP24ObjectU5BU5D_t3614634134E6InvokeEjPv
Ozk:_UnityEvent_4__ctor_m3102731553_gshared
Nnj:__Z78RuntimeInvoker_Int32_t2071877448_UICharInfo_t3056636800_UICharInfo_t3056636800PK10MethodInfoPvPS2_
Gh:_JS_Sound_ReleaseInstance
hBg:_Graphic_set_raycastTarget_m1229173591
Jzi:__ZL72IL2CPPStructAlignmentAttribute_t130316838_CustomAttributesCacheGeneratorP21CustomAttributesCache
w2f:_List_1_Shift_m439051997_gshared
ihe:__ZN5physx16PxsCCDBlockArrayINS_13PxsCCDOverlapELi128EE8pushBackEv
sWi:_Renderer_get_sortingLayerID_m2403577271
Tjg:_ReadOnlyCollection_1_System_Collections_IEnumerable_GetEnumerator_m818487667_gshared
Eak:_InAttribute__ctor_m1401060713
_Dc:__ZL25CalculateCurveRangesValueRKN4math7_float2ERK17AnimationCurveTplIfE
DKl:_emscripten_glPixelStorei__wrapper
mMf:_Decimal_System_IConvertible_ToDecimal_m1541432424_AdjustorThunk
PTb:__Z29Transfer_Blittable_ArrayFieldI18StreamedBinaryReadILb0EEaEvRT_R9ArrayInfoRK23StaticTransferFieldInfo
Rmc:__Z21Resources_CUSTOM_LoadP12Il2CppStringP12Il2CppObject
bn:FUNCTION_TABLE_diddi
Arg:_ExecuteEvents_Execute_m2863348178
jle:__ZN5physx2Gu12TriangleMesh7releaseEv
lNg:_Int16_System_IConvertible_ToSingle_m3277935657_AdjustorThunk
xSk:__ZNSt3__26vectorIPK10MethodInfoNS_9allocatorIS3_EEE21__push_back_slow_pathIRKS3_EEvOT_
hLj:_AttributeHelperEngine_CheckIsEditorScript_m2980171478
T6b:__ZN8GUILayerD2Ev
xek:_InternalRemotingServices__cctor_m3821625125
Dic:__Z42Register_UnityEngine_RectOffset_get_bottomv
M9e:_StringBuilder_Insert_m3322917127
E3h:_DefaultComparer_Equals_m724229128_gshared
S1f:_List_1__cctor_m1337542316_gshared
QZd:__ZN5physx14PxsAABBManagerD2Ev
BXj:_ArrayReadOnlyList_1_Clear_m2539474626_gshared
m4h:_DefaultComparer_Equals_m3680378320_gshared
Stk:_UnityAction_1_EndInvoke_m2603848420_gshared
Qvk:_ThreadAndSerializationSafe__ctor_m84326599
QGf:_Convert_ToDouble_m3520060872
XJl:_emscripten_glUniform1f__wrapper
rEl:dynCall_di
zmh:_SslCipherSuite_ComputeServerRecordMAC_m1876572367
AZd:__ZN5physx16PxsIslandManagerD2Ev
Aze:__ZN20TextRenderingPrivate19NativeTextGeneratorC2ERK11UTF16StringPNS_8FontImplE11ColorRGBA32ifRK8Vector2fbifiibffbbbP13dynamic_arrayIN2UI8UIVertexELj4EE
PAc:__Z28RegisterModule_JSONSerializev
zAj:_Interlocked_CompareExchange_m3227034792
$Jh:_HashAlgorithm_get_Hash_m931854461
yUk:_il2cpp_monitor_enter
i7j:_DefaultComparer_Compare_m3564013922_gshared
ewb:__ZN2UI13RectTransform8TransferI14SafeBinaryReadEEvRT_
zEc:__ZN34ColorBySpeedModulePropertyBindings13GetFloatValueERK14ParticleSystemi
mcc:__Z20IsHumanControllingUsv
Uac:__ZNK11ICallStringcvNSt3__212basic_stringIcNS0_11char_traitsIcEENS0_9allocatorIcEEEEEv
Ccg:_Collection_1_RemoveAt_m3454169520_gshared
t8c:__ZN26IntersectAnyVsMeshCallbackILi1ELb1EED0Ev
_ri:__ZL63GlobalProxySelection_t2251180943_CustomAttributesCacheGeneratorP21CustomAttributesCache
UBd:__ZNK5physx15NpActorTemplateINS_7PxClothEE17getDominanceGroupEv
bt:__ZN7mecanim5human9HumanGoal8TransferI14SafeBinaryReadEEvRT_
Igb:__ZN10systeminfo21GetPersistentDataPathEv
vzg:_Dropdown_set_value_m2945561009
Xya:__ZN13GfxDeviceGLES17DestroyGpuProgramEPK10GpuProgram
iLg:_GregorianCalendar_GetMonth_m523739832
iuc:__Z42Register_UnityEngine_GUIStyle_set_richTextv
_0a:__ZNSt3__218__insertion_sort_3IR23CompareReflectionProbesP31RuntimeReflectionProbeBlendInfoEEvT0_S5_T_
LOb:__ZN12NativeBufferI27Converter_SimpleNativeClassI8GradientEE15SetupForWritingER9ArrayInfo
rig:_ReadOnlyCollection_1_System_Collections_ICollection_get_IsSynchronized_m2987885125_gshared
Zpl:_wcslen
PLj:_GameObject_AddComponent_m3757565614
cfa:__ZN12_GLOBAL__N_113StaticDestroyEPv
Ljj:__Z54RuntimeInvoker_Boolean_t3825574718_Vector4_t2243707581PK10MethodInfoPvPS2_
MMg:_Guid_ToString_m51661589
